---
triple:          'arm64-apple-darwin'
binary-path:     '/Users/runner/work/godot-jolt/godot-jolt/build/macos-ios/EditorDistribution/godot-jolt_ios_editor.framework/godot-jolt_ios_editor'
relocations:
  - { offsetInCU: 0x198DA, offset: 0x198DA, size: 0x8, addend: 0x0, symName: __ZN5godot7vformatIJNS_15PhysicsServer3D19ConeTwistJointParamEEEENS_6StringERKS3_DpKT_, symObjAddr: 0xB00, symBinAddr: 0x2F4510, symSize: 0x1A8 }
  - { offsetInCU: 0x19E76, offset: 0x19E76, size: 0x8, addend: 0x0, symName: __ZN5godot7vformatIJNS_6StringEEEES1_RKS1_DpKT_, symObjAddr: 0x11A0, symBinAddr: 0x2F3D84, symSize: 0x19C }
  - { offsetInCU: 0x1A303, offset: 0x1A303, size: 0x8, addend: 0x0, symName: __ZN5godot7vformatIJPKcNS_6StringEEEES3_RKS3_DpKT_, symObjAddr: 0x133C, symBinAddr: 0x2F3980, symSize: 0x258 }
  - { offsetInCU: 0x1A9C5, offset: 0x1A9C5, size: 0x8, addend: 0x0, symName: __ZN5godot7vformatIJN19JoltPhysicsServer3D23ConeTwistJointParamJoltEEEENS_6StringERKS3_DpKT_, symObjAddr: 0x1744, symBinAddr: 0x2F3590, symSize: 0x1A8 }
  - { offsetInCU: 0x1AEB9, offset: 0x1AEB9, size: 0x8, addend: 0x0, symName: __ZN5godot7vformatIJN19JoltPhysicsServer3D22ConeTwistJointFlagJoltEEEENS_6StringERKS3_DpKT_, symObjAddr: 0x1D10, symBinAddr: 0x2F2D80, symSize: 0x1A8 }
  - { offsetInCU: 0x66F06, offset: 0x66F06, size: 0x8, addend: 0x0, symName: __ZN24JoltConeTwistJointImpl3D7rebuildEv, symObjAddr: 0x0, symBinAddr: 0x2F4C64, symSize: 0x8F8 }
  - { offsetInCU: 0x69CE6, offset: 0x69CE6, size: 0x8, addend: 0x0, symName: __ZN24JoltConeTwistJointImpl3DC1ERK15JoltJointImpl3DP14JoltBodyImpl3DS4_RKN5godot11Transform3DES8_, symObjAddr: 0x8F8, symBinAddr: 0x2F4BB4, symSize: 0x50 }
  - { offsetInCU: 0x69DB9, offset: 0x69DB9, size: 0x8, addend: 0x0, symName: __ZNK24JoltConeTwistJointImpl3D9get_paramEN5godot15PhysicsServer3D19ConeTwistJointParamE, symObjAddr: 0x948, symBinAddr: 0x2F46D0, symSize: 0x1B8 }
  - { offsetInCU: 0x6A21F, offset: 0x6A21F, size: 0x8, addend: 0x0, symName: __ZN24JoltConeTwistJointImpl3D9set_paramEN5godot15PhysicsServer3D19ConeTwistJointParamEd, symObjAddr: 0xCA8, symBinAddr: 0x2F3F6C, symSize: 0x4F8 }
  - { offsetInCU: 0x6B39A, offset: 0x6B39A, size: 0x8, addend: 0x0, symName: __ZNK24JoltConeTwistJointImpl3D14get_jolt_paramEN19JoltPhysicsServer3D23ConeTwistJointParamJoltE, symObjAddr: 0x1594, symBinAddr: 0x2F37CC, symSize: 0x1B0 }
  - { offsetInCU: 0x6B801, offset: 0x6B801, size: 0x8, addend: 0x0, symName: __ZN24JoltConeTwistJointImpl3D14set_jolt_paramEN19JoltPhysicsServer3D23ConeTwistJointParamJoltEd, symObjAddr: 0x18EC, symBinAddr: 0x2F332C, symSize: 0x260 }
  - { offsetInCU: 0x6BEDF, offset: 0x6BEDF, size: 0x8, addend: 0x0, symName: __ZNK24JoltConeTwistJointImpl3D13get_jolt_flagEN19JoltPhysicsServer3D22ConeTwistJointFlagJoltE, symObjAddr: 0x1B4C, symBinAddr: 0x2F2F2C, symSize: 0x1C4 }
  - { offsetInCU: 0x6C32D, offset: 0x6C32D, size: 0x8, addend: 0x0, symName: __ZN24JoltConeTwistJointImpl3D13set_jolt_flagEN19JoltPhysicsServer3D22ConeTwistJointFlagJoltEb, symObjAddr: 0x1EB8, symBinAddr: 0x2F2AD4, symSize: 0x218 }
  - { offsetInCU: 0x6C917, offset: 0x6C917, size: 0x8, addend: 0x0, symName: __ZN24JoltConeTwistJointImpl3DD1Ev, symObjAddr: 0x2248, symBinAddr: 0x2F2A84, symSize: 0x4 }
  - { offsetInCU: 0x6C93A, offset: 0x6C93A, size: 0x8, addend: 0x0, symName: __ZN24JoltConeTwistJointImpl3DD1Ev, symObjAddr: 0x2248, symBinAddr: 0x2F2A84, symSize: 0x4 }
  - { offsetInCU: 0x6C971, offset: 0x6C971, size: 0x8, addend: 0x0, symName: __ZN24JoltConeTwistJointImpl3DD0Ev, symObjAddr: 0x224C, symBinAddr: 0x2F278C, symSize: 0x14 }
  - { offsetInCU: 0x6C9D7, offset: 0x6C9D7, size: 0x8, addend: 0x0, symName: __ZNK24JoltConeTwistJointImpl3D8get_typeEv, symObjAddr: 0x2260, symBinAddr: 0x2F248C, symSize: 0x8 }
  - { offsetInCU: 0x1487E, offset: 0x835AA, size: 0x8, addend: 0x0, symName: __ZN5godot18create_method_bindI22JoltGeneric6DOFJoint3DdJNS1_5ParamEEEEPNS_10MethodBindEMT_KFT0_DpT1_E, symObjAddr: 0x1FEB8, symBinAddr: 0x229660, symSize: 0x298 }
  - { offsetInCU: 0x14E82, offset: 0x83BAE, size: 0x8, addend: 0x0, symName: __ZN5godot18create_method_bindI22JoltGeneric6DOFJoint3DJNS1_5ParamEdEEEPNS_10MethodBindEMT_FvDpT0_E, symObjAddr: 0x20D60, symBinAddr: 0x15709C, symSize: 0x2B0 }
  - { offsetInCU: 0x15469, offset: 0x84195, size: 0x8, addend: 0x0, symName: __ZN5godot18create_method_bindI22JoltGeneric6DOFJoint3DbJNS1_4FlagEEEEPNS_10MethodBindEMT_KFT0_DpT1_E, symObjAddr: 0x217D4, symBinAddr: 0x19CDB4, symSize: 0x298 }
  - { offsetInCU: 0x15A6D, offset: 0x84799, size: 0x8, addend: 0x0, symName: __ZN5godot18create_method_bindI22JoltGeneric6DOFJoint3DJNS1_4FlagEbEEEPNS_10MethodBindEMT_FvDpT0_E, symObjAddr: 0x2240C, symBinAddr: 0xE4C7C, symSize: 0x2B0 }
  - { offsetInCU: 0x16054, offset: 0x84D80, size: 0x8, addend: 0x0, symName: __ZN5godot18create_method_bindI22JoltGeneric6DOFJoint3DdJEEEPNS_10MethodBindEMT_KFT0_DpT1_E, symObjAddr: 0x22E80, symBinAddr: 0x202D44, symSize: 0x27C }
  - { offsetInCU: 0x16648, offset: 0x85374, size: 0x8, addend: 0x0, symName: __ZN5godot18create_method_bindI22JoltGeneric6DOFJoint3DJdEEEPNS_10MethodBindEMT_FvDpT0_E, symObjAddr: 0x230FC, symBinAddr: 0x39EEC, symSize: 0x290 }
  - { offsetInCU: 0x16C1F, offset: 0x8594B, size: 0x8, addend: 0x0, symName: __ZN5godot18create_method_bindI22JoltGeneric6DOFJoint3DbJEEEPNS_10MethodBindEMT_KFT0_DpT1_E, symObjAddr: 0x2338C, symBinAddr: 0x20D6C4, symSize: 0x27C }
  - { offsetInCU: 0x17213, offset: 0x85F3F, size: 0x8, addend: 0x0, symName: __ZN5godot18create_method_bindI22JoltGeneric6DOFJoint3DJbEEEPNS_10MethodBindEMT_FvDpT0_E, symObjAddr: 0x23608, symBinAddr: 0x110D9C, symSize: 0x290 }
  - { offsetInCU: 0x177EA, offset: 0x86516, size: 0x8, addend: 0x0, symName: __ZN5godot18create_method_bindI22JoltGeneric6DOFJoint3DfJEEEPNS_10MethodBindEMT_KFT0_DpT1_E, symObjAddr: 0x23898, symBinAddr: 0x21783C, symSize: 0x27C }
  - { offsetInCU: 0x17DDE, offset: 0x86B0A, size: 0x8, addend: 0x0, symName: __ZN5godot38enum_qualified_name_to_class_info_nameERKNS_6StringE, symObjAddr: 0x20AF4, symBinAddr: 0x289A04, symSize: 0x26C }
  - { offsetInCU: 0x18614, offset: 0x87340, size: 0x8, addend: 0x0, symName: __ZN5godot7vformatIJN22JoltGeneric6DOFJoint3D5ParamEEEENS_6StringERKS3_DpKT_, symObjAddr: 0x1FA70, symBinAddr: 0xE4AD4, symSize: 0x1A8 }
  - { offsetInCU: 0x18AF8, offset: 0x87824, size: 0x8, addend: 0x0, symName: __ZN5godot7vformatIJN22JoltGeneric6DOFJoint3D4FlagEEEENS_6StringERKS3_DpKT_, symObjAddr: 0x1FC18, symBinAddr: 0x6CFCC, symSize: 0x1A8 }
  - { offsetInCU: 0x19157, offset: 0x87E83, size: 0x8, addend: 0x0, symName: __ZN5godot34call_get_argument_type_info_helperIN22JoltGeneric6DOFJoint3D5ParamEEEviRiRNS_12PropertyInfoE, symObjAddr: 0x20864, symBinAddr: 0x27F710, symSize: 0x290 }
  - { offsetInCU: 0x1A2DA, offset: 0x89006, size: 0x8, addend: 0x0, symName: __ZN5godot34call_get_argument_type_info_helperIN22JoltGeneric6DOFJoint3D4FlagEEEviRiRNS_12PropertyInfoE, symObjAddr: 0x2217C, symBinAddr: 0x3402C, symSize: 0x290 }
  - { offsetInCU: 0x413C2, offset: 0xB00EE, size: 0x8, addend: 0x0, symName: __ZN22JoltGeneric6DOFJoint3D16get_class_staticEv, symObjAddr: 0x1DFD0, symBinAddr: 0xB6240, symSize: 0x8C }
  - { offsetInCU: 0x413E2, offset: 0xB010E, size: 0x8, addend: 0x0, symName: __ZZN22JoltGeneric6DOFJoint3D16get_class_staticEvE11string_name, symObjAddr: 0x26FC0, symBinAddr: 0x3624B8, symSize: 0x0 }
  - { offsetInCU: 0x41458, offset: 0xB0184, size: 0x8, addend: 0x0, symName: __ZNK22JoltGeneric6DOFJoint3D25_get_extension_class_nameEv, symObjAddr: 0x1FDC0, symBinAddr: 0x1DDA20, symSize: 0xB4 }
  - { offsetInCU: 0x4147C, offset: 0xB01A8, size: 0x8, addend: 0x0, symName: __ZZNK22JoltGeneric6DOFJoint3D25_get_extension_class_nameEvE11string_name, symObjAddr: 0x26FB0, symBinAddr: 0x3624D8, symSize: 0x0 }
  - { offsetInCU: 0x41534, offset: 0xB0260, size: 0x8, addend: 0x0, symName: __ZN22JoltGeneric6DOFJoint3D22_gde_binding_callbacksE, symObjAddr: 0x26E00, symBinAddr: 0x35F138, symSize: 0x0 }
  - { offsetInCU: 0x43C5C, offset: 0xB2988, size: 0x8, addend: 0x0, symName: __ZN22JoltGeneric6DOFJoint3D13_bind_methodsEv, symObjAddr: 0x0, symBinAddr: 0x2D6B30, symSize: 0x189FC }
  - { offsetInCU: 0xBE07E, offset: 0x12CDAA, size: 0x8, addend: 0x0, symName: __ZNK22JoltGeneric6DOFJoint3D11get_param_xENS_5ParamE, symObjAddr: 0x189FC, symBinAddr: 0x8D00, symSize: 0x30 }
  - { offsetInCU: 0xBE119, offset: 0x12CE45, size: 0x8, addend: 0x0, symName: __ZN22JoltGeneric6DOFJoint3D14_get_param_ptrEN5godot7Vector34AxisENS_5ParamE, symObjAddr: 0x1E16C, symBinAddr: 0x2F78D0, symSize: 0x248 }
  - { offsetInCU: 0xBE574, offset: 0x12D2A0, size: 0x8, addend: 0x0, symName: __ZN22JoltGeneric6DOFJoint3D11set_param_xENS_5ParamEd, symObjAddr: 0x18A2C, symBinAddr: 0x2F8E1C, symSize: 0x68 }
  - { offsetInCU: 0xBE5FF, offset: 0x12D32B, size: 0x8, addend: 0x0, symName: __ZN22JoltGeneric6DOFJoint3D14_param_changedEN5godot7Vector34AxisENS_5ParamE, symObjAddr: 0x1E3B4, symBinAddr: 0xCEBB8, symSize: 0x3F4 }
  - { offsetInCU: 0xBEC82, offset: 0x12D9AE, size: 0x8, addend: 0x0, symName: __ZNK22JoltGeneric6DOFJoint3D11get_param_yENS_5ParamE, symObjAddr: 0x18A94, symBinAddr: 0x2F8DA4, symSize: 0x30 }
  - { offsetInCU: 0xBED1D, offset: 0x12DA49, size: 0x8, addend: 0x0, symName: __ZN22JoltGeneric6DOFJoint3D11set_param_yENS_5ParamEd, symObjAddr: 0x18AC4, symBinAddr: 0x2F8CF0, symSize: 0x68 }
  - { offsetInCU: 0xBEDA8, offset: 0x12DAD4, size: 0x8, addend: 0x0, symName: __ZNK22JoltGeneric6DOFJoint3D11get_param_zENS_5ParamE, symObjAddr: 0x18B2C, symBinAddr: 0x186868, symSize: 0x30 }
  - { offsetInCU: 0xBEE43, offset: 0x12DB6F, size: 0x8, addend: 0x0, symName: __ZN22JoltGeneric6DOFJoint3D11set_param_zENS_5ParamEd, symObjAddr: 0x18B5C, symBinAddr: 0x2F8A64, symSize: 0x68 }
  - { offsetInCU: 0xBEF40, offset: 0x12DC6C, size: 0x8, addend: 0x0, symName: __ZNK22JoltGeneric6DOFJoint3D10get_flag_xENS_4FlagE, symObjAddr: 0x18BC4, symBinAddr: 0x2F89EC, symSize: 0x2C }
  - { offsetInCU: 0xBEFDB, offset: 0x12DD07, size: 0x8, addend: 0x0, symName: __ZN22JoltGeneric6DOFJoint3D13_get_flag_ptrEN5godot7Vector34AxisENS_4FlagE, symObjAddr: 0x1E7CC, symBinAddr: 0x195D60, symSize: 0x1E4 }
  - { offsetInCU: 0xBF43A, offset: 0x12E166, size: 0x8, addend: 0x0, symName: __ZN22JoltGeneric6DOFJoint3D10set_flag_xENS_4FlagEb, symObjAddr: 0x18BF0, symBinAddr: 0x2F88F4, symSize: 0x68 }
  - { offsetInCU: 0xBF4BC, offset: 0x12E1E8, size: 0x8, addend: 0x0, symName: __ZN22JoltGeneric6DOFJoint3D13_flag_changedEN5godot7Vector34AxisENS_4FlagE, symObjAddr: 0x1E9B0, symBinAddr: 0x2FF4B0, symSize: 0x33C }
  - { offsetInCU: 0xBFA91, offset: 0x12E7BD, size: 0x8, addend: 0x0, symName: __ZNK22JoltGeneric6DOFJoint3D10get_flag_yENS_4FlagE, symObjAddr: 0x18C58, symBinAddr: 0x2F8798, symSize: 0x2C }
  - { offsetInCU: 0xBFB2C, offset: 0x12E858, size: 0x8, addend: 0x0, symName: __ZN22JoltGeneric6DOFJoint3D10set_flag_yENS_4FlagEb, symObjAddr: 0x18C84, symBinAddr: 0x2F86E4, symSize: 0x68 }
  - { offsetInCU: 0xBFBAE, offset: 0x12E8DA, size: 0x8, addend: 0x0, symName: __ZNK22JoltGeneric6DOFJoint3D10get_flag_zENS_4FlagE, symObjAddr: 0x18CEC, symBinAddr: 0x186438, symSize: 0x2C }
  - { offsetInCU: 0xBFC49, offset: 0x12E975, size: 0x8, addend: 0x0, symName: __ZN22JoltGeneric6DOFJoint3D10set_flag_zENS_4FlagEb, symObjAddr: 0x18D18, symBinAddr: 0x2F8074, symSize: 0x68 }
  - { offsetInCU: 0xBFCED, offset: 0x12EA19, size: 0x8, addend: 0x0, symName: __ZNK22JoltGeneric6DOFJoint3D24get_linear_limit_x_upperEv, symObjAddr: 0x18D80, symBinAddr: 0xFAE8, symSize: 0x8 }
  - { offsetInCU: 0xBFD14, offset: 0x12EA40, size: 0x8, addend: 0x0, symName: __ZNK22JoltGeneric6DOFJoint3D24get_linear_limit_x_upperEv, symObjAddr: 0x18D80, symBinAddr: 0xFAE8, symSize: 0x8 }
  - { offsetInCU: 0xBFD36, offset: 0x12EA62, size: 0x8, addend: 0x0, symName: __ZNK22JoltGeneric6DOFJoint3D24get_linear_limit_x_upperEv, symObjAddr: 0x18D80, symBinAddr: 0xFAE8, symSize: 0x8 }
  - { offsetInCU: 0xBFE70, offset: 0x12EB9C, size: 0x8, addend: 0x0, symName: __ZN22JoltGeneric6DOFJoint3D24set_linear_limit_x_upperEd, symObjAddr: 0x18D88, symBinAddr: 0x2F7D78, symSize: 0xA0 }
  - { offsetInCU: 0xC001D, offset: 0x12ED49, size: 0x8, addend: 0x0, symName: __ZNK22JoltGeneric6DOFJoint3D24get_linear_limit_x_lowerEv, symObjAddr: 0x18E28, symBinAddr: 0x2F7C98, symSize: 0x8 }
  - { offsetInCU: 0xC0044, offset: 0x12ED70, size: 0x8, addend: 0x0, symName: __ZNK22JoltGeneric6DOFJoint3D24get_linear_limit_x_lowerEv, symObjAddr: 0x18E28, symBinAddr: 0x2F7C98, symSize: 0x8 }
  - { offsetInCU: 0xC0066, offset: 0x12ED92, size: 0x8, addend: 0x0, symName: __ZNK22JoltGeneric6DOFJoint3D24get_linear_limit_x_lowerEv, symObjAddr: 0x18E28, symBinAddr: 0x2F7C98, symSize: 0x8 }
  - { offsetInCU: 0xC0099, offset: 0x12EDC5, size: 0x8, addend: 0x0, symName: __ZN22JoltGeneric6DOFJoint3D24set_linear_limit_x_lowerEd, symObjAddr: 0x18E30, symBinAddr: 0xC6A40, symSize: 0xA0 }
  - { offsetInCU: 0xC0268, offset: 0x12EF94, size: 0x8, addend: 0x0, symName: __ZNK22JoltGeneric6DOFJoint3D24get_linear_limit_y_upperEv, symObjAddr: 0x18ED0, symBinAddr: 0x2F7B64, symSize: 0x8 }
  - { offsetInCU: 0xC028F, offset: 0x12EFBB, size: 0x8, addend: 0x0, symName: __ZNK22JoltGeneric6DOFJoint3D24get_linear_limit_y_upperEv, symObjAddr: 0x18ED0, symBinAddr: 0x2F7B64, symSize: 0x8 }
  - { offsetInCU: 0xC02B1, offset: 0x12EFDD, size: 0x8, addend: 0x0, symName: __ZNK22JoltGeneric6DOFJoint3D24get_linear_limit_y_upperEv, symObjAddr: 0x18ED0, symBinAddr: 0x2F7B64, symSize: 0x8 }
  - { offsetInCU: 0xC0312, offset: 0x12F03E, size: 0x8, addend: 0x0, symName: __ZN22JoltGeneric6DOFJoint3D24set_linear_limit_y_upperEd, symObjAddr: 0x18ED8, symBinAddr: 0x2F7828, symSize: 0xA0 }
  - { offsetInCU: 0xC04BF, offset: 0x12F1EB, size: 0x8, addend: 0x0, symName: __ZNK22JoltGeneric6DOFJoint3D24get_linear_limit_y_lowerEv, symObjAddr: 0x18F78, symBinAddr: 0x2F78C8, symSize: 0x8 }
  - { offsetInCU: 0xC04E6, offset: 0x12F212, size: 0x8, addend: 0x0, symName: __ZNK22JoltGeneric6DOFJoint3D24get_linear_limit_y_lowerEv, symObjAddr: 0x18F78, symBinAddr: 0x2F78C8, symSize: 0x8 }
  - { offsetInCU: 0xC0508, offset: 0x12F234, size: 0x8, addend: 0x0, symName: __ZNK22JoltGeneric6DOFJoint3D24get_linear_limit_y_lowerEv, symObjAddr: 0x18F78, symBinAddr: 0x2F78C8, symSize: 0x8 }
  - { offsetInCU: 0xC053B, offset: 0x12F267, size: 0x8, addend: 0x0, symName: __ZN22JoltGeneric6DOFJoint3D24set_linear_limit_y_lowerEd, symObjAddr: 0x18F80, symBinAddr: 0x2F76F4, symSize: 0xA0 }
  - { offsetInCU: 0xC070A, offset: 0x12F436, size: 0x8, addend: 0x0, symName: __ZNK22JoltGeneric6DOFJoint3D24get_linear_limit_z_upperEv, symObjAddr: 0x19020, symBinAddr: 0x2F76A0, symSize: 0x8 }
  - { offsetInCU: 0xC0731, offset: 0x12F45D, size: 0x8, addend: 0x0, symName: __ZNK22JoltGeneric6DOFJoint3D24get_linear_limit_z_upperEv, symObjAddr: 0x19020, symBinAddr: 0x2F76A0, symSize: 0x8 }
  - { offsetInCU: 0xC0753, offset: 0x12F47F, size: 0x8, addend: 0x0, symName: __ZNK22JoltGeneric6DOFJoint3D24get_linear_limit_z_upperEv, symObjAddr: 0x19020, symBinAddr: 0x2F76A0, symSize: 0x8 }
  - { offsetInCU: 0xC07B4, offset: 0x12F4E0, size: 0x8, addend: 0x0, symName: __ZN22JoltGeneric6DOFJoint3D24set_linear_limit_z_upperEd, symObjAddr: 0x19028, symBinAddr: 0x2F75B4, symSize: 0xA0 }
  - { offsetInCU: 0xC0961, offset: 0x12F68D, size: 0x8, addend: 0x0, symName: __ZNK22JoltGeneric6DOFJoint3D24get_linear_limit_z_lowerEv, symObjAddr: 0x190C8, symBinAddr: 0x2F71B4, symSize: 0x8 }
  - { offsetInCU: 0xC0988, offset: 0x12F6B4, size: 0x8, addend: 0x0, symName: __ZNK22JoltGeneric6DOFJoint3D24get_linear_limit_z_lowerEv, symObjAddr: 0x190C8, symBinAddr: 0x2F71B4, symSize: 0x8 }
  - { offsetInCU: 0xC09AA, offset: 0x12F6D6, size: 0x8, addend: 0x0, symName: __ZNK22JoltGeneric6DOFJoint3D24get_linear_limit_z_lowerEv, symObjAddr: 0x190C8, symBinAddr: 0x2F71B4, symSize: 0x8 }
  - { offsetInCU: 0xC09DD, offset: 0x12F709, size: 0x8, addend: 0x0, symName: __ZN22JoltGeneric6DOFJoint3D24set_linear_limit_z_lowerEd, symObjAddr: 0x190D0, symBinAddr: 0x2F706C, symSize: 0xA0 }
  - { offsetInCU: 0xC0B8A, offset: 0x12F8B6, size: 0x8, addend: 0x0, symName: __ZNK22JoltGeneric6DOFJoint3D35get_linear_limit_spring_x_frequencyEv, symObjAddr: 0x19170, symBinAddr: 0x2F702C, symSize: 0x8 }
  - { offsetInCU: 0xC0BB1, offset: 0x12F8DD, size: 0x8, addend: 0x0, symName: __ZNK22JoltGeneric6DOFJoint3D35get_linear_limit_spring_x_frequencyEv, symObjAddr: 0x19170, symBinAddr: 0x2F702C, symSize: 0x8 }
  - { offsetInCU: 0xC0BD3, offset: 0x12F8FF, size: 0x8, addend: 0x0, symName: __ZNK22JoltGeneric6DOFJoint3D35get_linear_limit_spring_x_frequencyEv, symObjAddr: 0x19170, symBinAddr: 0x2F702C, symSize: 0x8 }
  - { offsetInCU: 0xC0C91, offset: 0x12F9BD, size: 0x8, addend: 0x0, symName: __ZN22JoltGeneric6DOFJoint3D35set_linear_limit_spring_x_frequencyEd, symObjAddr: 0x19178, symBinAddr: 0x2F6D0C, symSize: 0x2D4 }
  - { offsetInCU: 0xC0FFB, offset: 0x12FD27, size: 0x8, addend: 0x0, symName: __ZNK22JoltGeneric6DOFJoint3D33get_linear_limit_spring_x_dampingEv, symObjAddr: 0x1944C, symBinAddr: 0x2F6CA4, symSize: 0x8 }
  - { offsetInCU: 0xC1022, offset: 0x12FD4E, size: 0x8, addend: 0x0, symName: __ZNK22JoltGeneric6DOFJoint3D33get_linear_limit_spring_x_dampingEv, symObjAddr: 0x1944C, symBinAddr: 0x2F6CA4, symSize: 0x8 }
  - { offsetInCU: 0xC1044, offset: 0x12FD70, size: 0x8, addend: 0x0, symName: __ZNK22JoltGeneric6DOFJoint3D33get_linear_limit_spring_x_dampingEv, symObjAddr: 0x1944C, symBinAddr: 0x2F6CA4, symSize: 0x8 }
  - { offsetInCU: 0xC1077, offset: 0x12FDA3, size: 0x8, addend: 0x0, symName: __ZN22JoltGeneric6DOFJoint3D33set_linear_limit_spring_x_dampingEd, symObjAddr: 0x19454, symBinAddr: 0x2F68D0, symSize: 0x2D4 }
  - { offsetInCU: 0xC13E1, offset: 0x13010D, size: 0x8, addend: 0x0, symName: __ZNK22JoltGeneric6DOFJoint3D35get_linear_limit_spring_y_frequencyEv, symObjAddr: 0x19728, symBinAddr: 0x2F6520, symSize: 0x8 }
  - { offsetInCU: 0xC1408, offset: 0x130134, size: 0x8, addend: 0x0, symName: __ZNK22JoltGeneric6DOFJoint3D35get_linear_limit_spring_y_frequencyEv, symObjAddr: 0x19728, symBinAddr: 0x2F6520, symSize: 0x8 }
  - { offsetInCU: 0xC142A, offset: 0x130156, size: 0x8, addend: 0x0, symName: __ZNK22JoltGeneric6DOFJoint3D35get_linear_limit_spring_y_frequencyEv, symObjAddr: 0x19728, symBinAddr: 0x2F6520, symSize: 0x8 }
  - { offsetInCU: 0xC145D, offset: 0x130189, size: 0x8, addend: 0x0, symName: __ZN22JoltGeneric6DOFJoint3D35set_linear_limit_spring_y_frequencyEd, symObjAddr: 0x19730, symBinAddr: 0x2F6528, symSize: 0x2D4 }
  - { offsetInCU: 0xC17C7, offset: 0x1304F3, size: 0x8, addend: 0x0, symName: __ZNK22JoltGeneric6DOFJoint3D33get_linear_limit_spring_y_dampingEv, symObjAddr: 0x19A04, symBinAddr: 0x2F61F8, symSize: 0x8 }
  - { offsetInCU: 0xC17EE, offset: 0x13051A, size: 0x8, addend: 0x0, symName: __ZNK22JoltGeneric6DOFJoint3D33get_linear_limit_spring_y_dampingEv, symObjAddr: 0x19A04, symBinAddr: 0x2F61F8, symSize: 0x8 }
  - { offsetInCU: 0xC1810, offset: 0x13053C, size: 0x8, addend: 0x0, symName: __ZNK22JoltGeneric6DOFJoint3D33get_linear_limit_spring_y_dampingEv, symObjAddr: 0x19A04, symBinAddr: 0x2F61F8, symSize: 0x8 }
  - { offsetInCU: 0xC1843, offset: 0x13056F, size: 0x8, addend: 0x0, symName: __ZN22JoltGeneric6DOFJoint3D33set_linear_limit_spring_y_dampingEd, symObjAddr: 0x19A0C, symBinAddr: 0x2F5E5C, symSize: 0x2D4 }
  - { offsetInCU: 0xC1BAD, offset: 0x1308D9, size: 0x8, addend: 0x0, symName: __ZNK22JoltGeneric6DOFJoint3D35get_linear_limit_spring_z_frequencyEv, symObjAddr: 0x19CE0, symBinAddr: 0x2F5E50, symSize: 0x8 }
  - { offsetInCU: 0xC1BD4, offset: 0x130900, size: 0x8, addend: 0x0, symName: __ZNK22JoltGeneric6DOFJoint3D35get_linear_limit_spring_z_frequencyEv, symObjAddr: 0x19CE0, symBinAddr: 0x2F5E50, symSize: 0x8 }
  - { offsetInCU: 0xC1BF6, offset: 0x130922, size: 0x8, addend: 0x0, symName: __ZNK22JoltGeneric6DOFJoint3D35get_linear_limit_spring_z_frequencyEv, symObjAddr: 0x19CE0, symBinAddr: 0x2F5E50, symSize: 0x8 }
  - { offsetInCU: 0xC1C29, offset: 0x130955, size: 0x8, addend: 0x0, symName: __ZN22JoltGeneric6DOFJoint3D35set_linear_limit_spring_z_frequencyEd, symObjAddr: 0x19CE8, symBinAddr: 0x2F5B30, symSize: 0x2D4 }
  - { offsetInCU: 0xC1F93, offset: 0x130CBF, size: 0x8, addend: 0x0, symName: __ZNK22JoltGeneric6DOFJoint3D33get_linear_limit_spring_z_dampingEv, symObjAddr: 0x19FBC, symBinAddr: 0x2F5B24, symSize: 0x8 }
  - { offsetInCU: 0xC1FBA, offset: 0x130CE6, size: 0x8, addend: 0x0, symName: __ZNK22JoltGeneric6DOFJoint3D33get_linear_limit_spring_z_dampingEv, symObjAddr: 0x19FBC, symBinAddr: 0x2F5B24, symSize: 0x8 }
  - { offsetInCU: 0xC1FDC, offset: 0x130D08, size: 0x8, addend: 0x0, symName: __ZNK22JoltGeneric6DOFJoint3D33get_linear_limit_spring_z_dampingEv, symObjAddr: 0x19FBC, symBinAddr: 0x2F5B24, symSize: 0x8 }
  - { offsetInCU: 0xC200F, offset: 0x130D3B, size: 0x8, addend: 0x0, symName: __ZN22JoltGeneric6DOFJoint3D33set_linear_limit_spring_z_dampingEd, symObjAddr: 0x19FC4, symBinAddr: 0x2F5788, symSize: 0x2D4 }
  - { offsetInCU: 0xC2379, offset: 0x1310A5, size: 0x8, addend: 0x0, symName: __ZNK22JoltGeneric6DOFJoint3D34get_linear_motor_x_target_velocityEv, symObjAddr: 0x1A298, symBinAddr: 0x2F5734, symSize: 0x8 }
  - { offsetInCU: 0xC23A0, offset: 0x1310CC, size: 0x8, addend: 0x0, symName: __ZNK22JoltGeneric6DOFJoint3D34get_linear_motor_x_target_velocityEv, symObjAddr: 0x1A298, symBinAddr: 0x2F5734, symSize: 0x8 }
  - { offsetInCU: 0xC23C2, offset: 0x1310EE, size: 0x8, addend: 0x0, symName: __ZNK22JoltGeneric6DOFJoint3D34get_linear_motor_x_target_velocityEv, symObjAddr: 0x1A298, symBinAddr: 0x2F5734, symSize: 0x8 }
  - { offsetInCU: 0xC23F5, offset: 0x131121, size: 0x8, addend: 0x0, symName: __ZN22JoltGeneric6DOFJoint3D34set_linear_motor_x_target_velocityEd, symObjAddr: 0x1A2A0, symBinAddr: 0x2F5648, symSize: 0xA0 }
  - { offsetInCU: 0xC25A2, offset: 0x1312CE, size: 0x8, addend: 0x0, symName: __ZNK22JoltGeneric6DOFJoint3D28get_linear_motor_x_max_forceEv, symObjAddr: 0x1A340, symBinAddr: 0x2F5608, symSize: 0x8 }
  - { offsetInCU: 0xC25C9, offset: 0x1312F5, size: 0x8, addend: 0x0, symName: __ZNK22JoltGeneric6DOFJoint3D28get_linear_motor_x_max_forceEv, symObjAddr: 0x1A340, symBinAddr: 0x2F5608, symSize: 0x8 }
  - { offsetInCU: 0xC25EB, offset: 0x131317, size: 0x8, addend: 0x0, symName: __ZNK22JoltGeneric6DOFJoint3D28get_linear_motor_x_max_forceEv, symObjAddr: 0x1A340, symBinAddr: 0x2F5608, symSize: 0x8 }
  - { offsetInCU: 0xC261E, offset: 0x13134A, size: 0x8, addend: 0x0, symName: __ZN22JoltGeneric6DOFJoint3D28set_linear_motor_x_max_forceEd, symObjAddr: 0x1A348, symBinAddr: 0x95C8, symSize: 0xA0 }
  - { offsetInCU: 0xC27CB, offset: 0x1314F7, size: 0x8, addend: 0x0, symName: __ZNK22JoltGeneric6DOFJoint3D34get_linear_motor_y_target_velocityEv, symObjAddr: 0x1A3E8, symBinAddr: 0x2FD688, symSize: 0x8 }
  - { offsetInCU: 0xC27F2, offset: 0x13151E, size: 0x8, addend: 0x0, symName: __ZNK22JoltGeneric6DOFJoint3D34get_linear_motor_y_target_velocityEv, symObjAddr: 0x1A3E8, symBinAddr: 0x2FD688, symSize: 0x8 }
  - { offsetInCU: 0xC2814, offset: 0x131540, size: 0x8, addend: 0x0, symName: __ZNK22JoltGeneric6DOFJoint3D34get_linear_motor_y_target_velocityEv, symObjAddr: 0x1A3E8, symBinAddr: 0x2FD688, symSize: 0x8 }
  - { offsetInCU: 0xC2847, offset: 0x131573, size: 0x8, addend: 0x0, symName: __ZN22JoltGeneric6DOFJoint3D34set_linear_motor_y_target_velocityEd, symObjAddr: 0x1A3F0, symBinAddr: 0x2FD2D4, symSize: 0xA0 }
  - { offsetInCU: 0xC29F4, offset: 0x131720, size: 0x8, addend: 0x0, symName: __ZNK22JoltGeneric6DOFJoint3D28get_linear_motor_y_max_forceEv, symObjAddr: 0x1A490, symBinAddr: 0x2FD23C, symSize: 0x8 }
  - { offsetInCU: 0xC2A1B, offset: 0x131747, size: 0x8, addend: 0x0, symName: __ZNK22JoltGeneric6DOFJoint3D28get_linear_motor_y_max_forceEv, symObjAddr: 0x1A490, symBinAddr: 0x2FD23C, symSize: 0x8 }
  - { offsetInCU: 0xC2A3D, offset: 0x131769, size: 0x8, addend: 0x0, symName: __ZNK22JoltGeneric6DOFJoint3D28get_linear_motor_y_max_forceEv, symObjAddr: 0x1A490, symBinAddr: 0x2FD23C, symSize: 0x8 }
  - { offsetInCU: 0xC2A70, offset: 0x13179C, size: 0x8, addend: 0x0, symName: __ZN22JoltGeneric6DOFJoint3D28set_linear_motor_y_max_forceEd, symObjAddr: 0x1A498, symBinAddr: 0x2FD058, symSize: 0xA0 }
  - { offsetInCU: 0xC2C1D, offset: 0x131949, size: 0x8, addend: 0x0, symName: __ZNK22JoltGeneric6DOFJoint3D34get_linear_motor_z_target_velocityEv, symObjAddr: 0x1A538, symBinAddr: 0x2FCF28, symSize: 0x8 }
  - { offsetInCU: 0xC2C44, offset: 0x131970, size: 0x8, addend: 0x0, symName: __ZNK22JoltGeneric6DOFJoint3D34get_linear_motor_z_target_velocityEv, symObjAddr: 0x1A538, symBinAddr: 0x2FCF28, symSize: 0x8 }
  - { offsetInCU: 0xC2C66, offset: 0x131992, size: 0x8, addend: 0x0, symName: __ZNK22JoltGeneric6DOFJoint3D34get_linear_motor_z_target_velocityEv, symObjAddr: 0x1A538, symBinAddr: 0x2FCF28, symSize: 0x8 }
  - { offsetInCU: 0xC2C99, offset: 0x1319C5, size: 0x8, addend: 0x0, symName: __ZN22JoltGeneric6DOFJoint3D34set_linear_motor_z_target_velocityEd, symObjAddr: 0x1A540, symBinAddr: 0x2FCD48, symSize: 0xA0 }
  - { offsetInCU: 0xC2E46, offset: 0x131B72, size: 0x8, addend: 0x0, symName: __ZNK22JoltGeneric6DOFJoint3D28get_linear_motor_z_max_forceEv, symObjAddr: 0x1A5E0, symBinAddr: 0x2FCDE8, symSize: 0x8 }
  - { offsetInCU: 0xC2E6D, offset: 0x131B99, size: 0x8, addend: 0x0, symName: __ZNK22JoltGeneric6DOFJoint3D28get_linear_motor_z_max_forceEv, symObjAddr: 0x1A5E0, symBinAddr: 0x2FCDE8, symSize: 0x8 }
  - { offsetInCU: 0xC2E8F, offset: 0x131BBB, size: 0x8, addend: 0x0, symName: __ZNK22JoltGeneric6DOFJoint3D28get_linear_motor_z_max_forceEv, symObjAddr: 0x1A5E0, symBinAddr: 0x2FCDE8, symSize: 0x8 }
  - { offsetInCU: 0xC2EC2, offset: 0x131BEE, size: 0x8, addend: 0x0, symName: __ZN22JoltGeneric6DOFJoint3D28set_linear_motor_z_max_forceEd, symObjAddr: 0x1A5E8, symBinAddr: 0x2FCDF0, symSize: 0xA0 }
  - { offsetInCU: 0xC306F, offset: 0x131D9B, size: 0x8, addend: 0x0, symName: __ZNK22JoltGeneric6DOFJoint3D29get_linear_spring_x_frequencyEv, symObjAddr: 0x1A688, symBinAddr: 0x2FCCF4, symSize: 0x8 }
  - { offsetInCU: 0xC3096, offset: 0x131DC2, size: 0x8, addend: 0x0, symName: __ZNK22JoltGeneric6DOFJoint3D29get_linear_spring_x_frequencyEv, symObjAddr: 0x1A688, symBinAddr: 0x2FCCF4, symSize: 0x8 }
  - { offsetInCU: 0xC30B8, offset: 0x131DE4, size: 0x8, addend: 0x0, symName: __ZNK22JoltGeneric6DOFJoint3D29get_linear_spring_x_frequencyEv, symObjAddr: 0x1A688, symBinAddr: 0x2FCCF4, symSize: 0x8 }
  - { offsetInCU: 0xC30EB, offset: 0x131E17, size: 0x8, addend: 0x0, symName: __ZN22JoltGeneric6DOFJoint3D29set_linear_spring_x_frequencyEd, symObjAddr: 0x1A690, symBinAddr: 0x2FA054, symSize: 0x2D4 }
  - { offsetInCU: 0xC3455, offset: 0x132181, size: 0x8, addend: 0x0, symName: __ZNK22JoltGeneric6DOFJoint3D27get_linear_spring_x_dampingEv, symObjAddr: 0x1A964, symBinAddr: 0x2FA000, symSize: 0x8 }
  - { offsetInCU: 0xC347C, offset: 0x1321A8, size: 0x8, addend: 0x0, symName: __ZNK22JoltGeneric6DOFJoint3D27get_linear_spring_x_dampingEv, symObjAddr: 0x1A964, symBinAddr: 0x2FA000, symSize: 0x8 }
  - { offsetInCU: 0xC349E, offset: 0x1321CA, size: 0x8, addend: 0x0, symName: __ZNK22JoltGeneric6DOFJoint3D27get_linear_spring_x_dampingEv, symObjAddr: 0x1A964, symBinAddr: 0x2FA000, symSize: 0x8 }
  - { offsetInCU: 0xC34D1, offset: 0x1321FD, size: 0x8, addend: 0x0, symName: __ZN22JoltGeneric6DOFJoint3D27set_linear_spring_x_dampingEd, symObjAddr: 0x1A96C, symBinAddr: 0x2F98D4, symSize: 0xA0 }
  - { offsetInCU: 0xC367E, offset: 0x1323AA, size: 0x8, addend: 0x0, symName: __ZNK22JoltGeneric6DOFJoint3D37get_linear_spring_x_equilibrium_pointEv, symObjAddr: 0x1AA0C, symBinAddr: 0x2F983C, symSize: 0x8 }
  - { offsetInCU: 0xC36A5, offset: 0x1323D1, size: 0x8, addend: 0x0, symName: __ZNK22JoltGeneric6DOFJoint3D37get_linear_spring_x_equilibrium_pointEv, symObjAddr: 0x1AA0C, symBinAddr: 0x2F983C, symSize: 0x8 }
  - { offsetInCU: 0xC36C7, offset: 0x1323F3, size: 0x8, addend: 0x0, symName: __ZNK22JoltGeneric6DOFJoint3D37get_linear_spring_x_equilibrium_pointEv, symObjAddr: 0x1AA0C, symBinAddr: 0x2F983C, symSize: 0x8 }
  - { offsetInCU: 0xC36FA, offset: 0x132426, size: 0x8, addend: 0x0, symName: __ZN22JoltGeneric6DOFJoint3D37set_linear_spring_x_equilibrium_pointEd, symObjAddr: 0x1AA14, symBinAddr: 0x2F9714, symSize: 0xA0 }
  - { offsetInCU: 0xC38A7, offset: 0x1325D3, size: 0x8, addend: 0x0, symName: __ZNK22JoltGeneric6DOFJoint3D29get_linear_spring_y_frequencyEv, symObjAddr: 0x1AAB4, symBinAddr: 0x2F9678, symSize: 0x8 }
  - { offsetInCU: 0xC38CE, offset: 0x1325FA, size: 0x8, addend: 0x0, symName: __ZNK22JoltGeneric6DOFJoint3D29get_linear_spring_y_frequencyEv, symObjAddr: 0x1AAB4, symBinAddr: 0x2F9678, symSize: 0x8 }
  - { offsetInCU: 0xC38F0, offset: 0x13261C, size: 0x8, addend: 0x0, symName: __ZNK22JoltGeneric6DOFJoint3D29get_linear_spring_y_frequencyEv, symObjAddr: 0x1AAB4, symBinAddr: 0x2F9678, symSize: 0x8 }
  - { offsetInCU: 0xC3923, offset: 0x13264F, size: 0x8, addend: 0x0, symName: __ZN22JoltGeneric6DOFJoint3D29set_linear_spring_y_frequencyEd, symObjAddr: 0x1AABC, symBinAddr: 0x2F9358, symSize: 0x2D4 }
  - { offsetInCU: 0xC3C8D, offset: 0x1329B9, size: 0x8, addend: 0x0, symName: __ZNK22JoltGeneric6DOFJoint3D27get_linear_spring_y_dampingEv, symObjAddr: 0x1AD90, symBinAddr: 0x2F9304, symSize: 0x8 }
  - { offsetInCU: 0xC3CB4, offset: 0x1329E0, size: 0x8, addend: 0x0, symName: __ZNK22JoltGeneric6DOFJoint3D27get_linear_spring_y_dampingEv, symObjAddr: 0x1AD90, symBinAddr: 0x2F9304, symSize: 0x8 }
  - { offsetInCU: 0xC3CD6, offset: 0x132A02, size: 0x8, addend: 0x0, symName: __ZNK22JoltGeneric6DOFJoint3D27get_linear_spring_y_dampingEv, symObjAddr: 0x1AD90, symBinAddr: 0x2F9304, symSize: 0x8 }
  - { offsetInCU: 0xC3D09, offset: 0x132A35, size: 0x8, addend: 0x0, symName: __ZN22JoltGeneric6DOFJoint3D27set_linear_spring_y_dampingEd, symObjAddr: 0x1AD98, symBinAddr: 0x2F9114, symSize: 0xA0 }
  - { offsetInCU: 0xC3EB6, offset: 0x132BE2, size: 0x8, addend: 0x0, symName: __ZNK22JoltGeneric6DOFJoint3D37get_linear_spring_y_equilibrium_pointEv, symObjAddr: 0x1AE38, symBinAddr: 0x2F907C, symSize: 0x8 }
  - { offsetInCU: 0xC3EDD, offset: 0x132C09, size: 0x8, addend: 0x0, symName: __ZNK22JoltGeneric6DOFJoint3D37get_linear_spring_y_equilibrium_pointEv, symObjAddr: 0x1AE38, symBinAddr: 0x2F907C, symSize: 0x8 }
  - { offsetInCU: 0xC3EFF, offset: 0x132C2B, size: 0x8, addend: 0x0, symName: __ZNK22JoltGeneric6DOFJoint3D37get_linear_spring_y_equilibrium_pointEv, symObjAddr: 0x1AE38, symBinAddr: 0x2F907C, symSize: 0x8 }
  - { offsetInCU: 0xC3F32, offset: 0x132C5E, size: 0x8, addend: 0x0, symName: __ZN22JoltGeneric6DOFJoint3D37set_linear_spring_y_equilibrium_pointEd, symObjAddr: 0x1AE40, symBinAddr: 0x2F8ED0, symSize: 0xA0 }
  - { offsetInCU: 0xC40DF, offset: 0x132E0B, size: 0x8, addend: 0x0, symName: __ZNK22JoltGeneric6DOFJoint3D29get_linear_spring_z_frequencyEv, symObjAddr: 0x1AEE0, symBinAddr: 0xA3C0, symSize: 0x8 }
  - { offsetInCU: 0xC4106, offset: 0x132E32, size: 0x8, addend: 0x0, symName: __ZNK22JoltGeneric6DOFJoint3D29get_linear_spring_z_frequencyEv, symObjAddr: 0x1AEE0, symBinAddr: 0xA3C0, symSize: 0x8 }
  - { offsetInCU: 0xC4128, offset: 0x132E54, size: 0x8, addend: 0x0, symName: __ZNK22JoltGeneric6DOFJoint3D29get_linear_spring_z_frequencyEv, symObjAddr: 0x1AEE0, symBinAddr: 0xA3C0, symSize: 0x8 }
  - { offsetInCU: 0xC415B, offset: 0x132E87, size: 0x8, addend: 0x0, symName: __ZN22JoltGeneric6DOFJoint3D29set_linear_spring_z_frequencyEd, symObjAddr: 0x1AEE8, symBinAddr: 0x2FD9D4, symSize: 0x2D4 }
  - { offsetInCU: 0xC44C5, offset: 0x1331F1, size: 0x8, addend: 0x0, symName: __ZNK22JoltGeneric6DOFJoint3D27get_linear_spring_z_dampingEv, symObjAddr: 0x1B1BC, symBinAddr: 0x18AD9C, symSize: 0x8 }
  - { offsetInCU: 0xC44EC, offset: 0x133218, size: 0x8, addend: 0x0, symName: __ZNK22JoltGeneric6DOFJoint3D27get_linear_spring_z_dampingEv, symObjAddr: 0x1B1BC, symBinAddr: 0x18AD9C, symSize: 0x8 }
  - { offsetInCU: 0xC450E, offset: 0x13323A, size: 0x8, addend: 0x0, symName: __ZNK22JoltGeneric6DOFJoint3D27get_linear_spring_z_dampingEv, symObjAddr: 0x1B1BC, symBinAddr: 0x18AD9C, symSize: 0x8 }
  - { offsetInCU: 0xC4541, offset: 0x13326D, size: 0x8, addend: 0x0, symName: __ZN22JoltGeneric6DOFJoint3D27set_linear_spring_z_dampingEd, symObjAddr: 0x1B1C4, symBinAddr: 0x2FD8E8, symSize: 0xA0 }
  - { offsetInCU: 0xC46EE, offset: 0x13341A, size: 0x8, addend: 0x0, symName: __ZNK22JoltGeneric6DOFJoint3D37get_linear_spring_z_equilibrium_pointEv, symObjAddr: 0x1B264, symBinAddr: 0x2FDCA8, symSize: 0x8 }
  - { offsetInCU: 0xC4715, offset: 0x133441, size: 0x8, addend: 0x0, symName: __ZNK22JoltGeneric6DOFJoint3D37get_linear_spring_z_equilibrium_pointEv, symObjAddr: 0x1B264, symBinAddr: 0x2FDCA8, symSize: 0x8 }
  - { offsetInCU: 0xC4737, offset: 0x133463, size: 0x8, addend: 0x0, symName: __ZNK22JoltGeneric6DOFJoint3D37get_linear_spring_z_equilibrium_pointEv, symObjAddr: 0x1B264, symBinAddr: 0x2FDCA8, symSize: 0x8 }
  - { offsetInCU: 0xC476A, offset: 0x133496, size: 0x8, addend: 0x0, symName: __ZN22JoltGeneric6DOFJoint3D37set_linear_spring_z_equilibrium_pointEd, symObjAddr: 0x1B26C, symBinAddr: 0x2FDCB0, symSize: 0xA0 }
  - { offsetInCU: 0xC4939, offset: 0x133665, size: 0x8, addend: 0x0, symName: __ZNK22JoltGeneric6DOFJoint3D26get_linear_limit_x_enabledEv, symObjAddr: 0x1B30C, symBinAddr: 0x2FDD50, symSize: 0x8 }
  - { offsetInCU: 0xC4962, offset: 0x13368E, size: 0x8, addend: 0x0, symName: __ZNK22JoltGeneric6DOFJoint3D26get_linear_limit_x_enabledEv, symObjAddr: 0x1B30C, symBinAddr: 0x2FDD50, symSize: 0x8 }
  - { offsetInCU: 0xC4984, offset: 0x1336B0, size: 0x8, addend: 0x0, symName: __ZNK22JoltGeneric6DOFJoint3D26get_linear_limit_x_enabledEv, symObjAddr: 0x1B30C, symBinAddr: 0x2FDD50, symSize: 0x8 }
  - { offsetInCU: 0xC4AA3, offset: 0x1337CF, size: 0x8, addend: 0x0, symName: __ZN22JoltGeneric6DOFJoint3D26set_linear_limit_x_enabledEb, symObjAddr: 0x1B314, symBinAddr: 0x2FCF30, symSize: 0x90 }
  - { offsetInCU: 0xC4C72, offset: 0x13399E, size: 0x8, addend: 0x0, symName: __ZNK22JoltGeneric6DOFJoint3D26get_linear_limit_y_enabledEv, symObjAddr: 0x1B3A4, symBinAddr: 0x186898, symSize: 0x8 }
  - { offsetInCU: 0xC4C9B, offset: 0x1339C7, size: 0x8, addend: 0x0, symName: __ZNK22JoltGeneric6DOFJoint3D26get_linear_limit_y_enabledEv, symObjAddr: 0x1B3A4, symBinAddr: 0x186898, symSize: 0x8 }
  - { offsetInCU: 0xC4CBD, offset: 0x1339E9, size: 0x8, addend: 0x0, symName: __ZNK22JoltGeneric6DOFJoint3D26get_linear_limit_y_enabledEv, symObjAddr: 0x1B3A4, symBinAddr: 0x186898, symSize: 0x8 }
  - { offsetInCU: 0xC4D1E, offset: 0x133A4A, size: 0x8, addend: 0x0, symName: __ZN22JoltGeneric6DOFJoint3D26set_linear_limit_y_enabledEb, symObjAddr: 0x1B3AC, symBinAddr: 0xC8BB8, symSize: 0x90 }
  - { offsetInCU: 0xC4EED, offset: 0x133C19, size: 0x8, addend: 0x0, symName: __ZNK22JoltGeneric6DOFJoint3D26get_linear_limit_z_enabledEv, symObjAddr: 0x1B43C, symBinAddr: 0x2FD690, symSize: 0x8 }
  - { offsetInCU: 0xC4F16, offset: 0x133C42, size: 0x8, addend: 0x0, symName: __ZNK22JoltGeneric6DOFJoint3D26get_linear_limit_z_enabledEv, symObjAddr: 0x1B43C, symBinAddr: 0x2FD690, symSize: 0x8 }
  - { offsetInCU: 0xC4F38, offset: 0x133C64, size: 0x8, addend: 0x0, symName: __ZNK22JoltGeneric6DOFJoint3D26get_linear_limit_z_enabledEv, symObjAddr: 0x1B43C, symBinAddr: 0x2FD690, symSize: 0x8 }
  - { offsetInCU: 0xC4F99, offset: 0x133CC5, size: 0x8, addend: 0x0, symName: __ZN22JoltGeneric6DOFJoint3D26set_linear_limit_z_enabledEb, symObjAddr: 0x1B444, symBinAddr: 0xA710, symSize: 0x90 }
  - { offsetInCU: 0xC5146, offset: 0x133E72, size: 0x8, addend: 0x0, symName: __ZNK22JoltGeneric6DOFJoint3D33get_linear_limit_spring_x_enabledEv, symObjAddr: 0x1B4D4, symBinAddr: 0x18ADA4, symSize: 0x8 }
  - { offsetInCU: 0xC516F, offset: 0x133E9B, size: 0x8, addend: 0x0, symName: __ZNK22JoltGeneric6DOFJoint3D33get_linear_limit_spring_x_enabledEv, symObjAddr: 0x1B4D4, symBinAddr: 0x18ADA4, symSize: 0x8 }
  - { offsetInCU: 0xC5191, offset: 0x133EBD, size: 0x8, addend: 0x0, symName: __ZNK22JoltGeneric6DOFJoint3D33get_linear_limit_spring_x_enabledEv, symObjAddr: 0x1B4D4, symBinAddr: 0x18ADA4, symSize: 0x8 }
  - { offsetInCU: 0xC524F, offset: 0x133F7B, size: 0x8, addend: 0x0, symName: __ZN22JoltGeneric6DOFJoint3D33set_linear_limit_spring_x_enabledEb, symObjAddr: 0x1B4DC, symBinAddr: 0x18B138, symSize: 0x2D8 }
  - { offsetInCU: 0xC55B9, offset: 0x1342E5, size: 0x8, addend: 0x0, symName: __ZNK22JoltGeneric6DOFJoint3D33get_linear_limit_spring_y_enabledEv, symObjAddr: 0x1B7B4, symBinAddr: 0x2FE568, symSize: 0x8 }
  - { offsetInCU: 0xC55E2, offset: 0x13430E, size: 0x8, addend: 0x0, symName: __ZNK22JoltGeneric6DOFJoint3D33get_linear_limit_spring_y_enabledEv, symObjAddr: 0x1B7B4, symBinAddr: 0x2FE568, symSize: 0x8 }
  - { offsetInCU: 0xC5604, offset: 0x134330, size: 0x8, addend: 0x0, symName: __ZNK22JoltGeneric6DOFJoint3D33get_linear_limit_spring_y_enabledEv, symObjAddr: 0x1B7B4, symBinAddr: 0x2FE568, symSize: 0x8 }
  - { offsetInCU: 0xC5637, offset: 0x134363, size: 0x8, addend: 0x0, symName: __ZN22JoltGeneric6DOFJoint3D33set_linear_limit_spring_y_enabledEb, symObjAddr: 0x1B7BC, symBinAddr: 0x2FDD58, symSize: 0x2D8 }
  - { offsetInCU: 0xC59A1, offset: 0x1346CD, size: 0x8, addend: 0x0, symName: __ZNK22JoltGeneric6DOFJoint3D33get_linear_limit_spring_z_enabledEv, symObjAddr: 0x1BA94, symBinAddr: 0x2FE570, symSize: 0x8 }
  - { offsetInCU: 0xC59CA, offset: 0x1346F6, size: 0x8, addend: 0x0, symName: __ZNK22JoltGeneric6DOFJoint3D33get_linear_limit_spring_z_enabledEv, symObjAddr: 0x1BA94, symBinAddr: 0x2FE570, symSize: 0x8 }
  - { offsetInCU: 0xC59EC, offset: 0x134718, size: 0x8, addend: 0x0, symName: __ZNK22JoltGeneric6DOFJoint3D33get_linear_limit_spring_z_enabledEv, symObjAddr: 0x1BA94, symBinAddr: 0x2FE570, symSize: 0x8 }
  - { offsetInCU: 0xC5A1F, offset: 0x13474B, size: 0x8, addend: 0x0, symName: __ZN22JoltGeneric6DOFJoint3D33set_linear_limit_spring_z_enabledEb, symObjAddr: 0x1BA9C, symBinAddr: 0x2FE030, symSize: 0x2D8 }
  - { offsetInCU: 0xC5D89, offset: 0x134AB5, size: 0x8, addend: 0x0, symName: __ZNK22JoltGeneric6DOFJoint3D26get_linear_motor_x_enabledEv, symObjAddr: 0x1BD74, symBinAddr: 0xAA84, symSize: 0x8 }
  - { offsetInCU: 0xC5DB2, offset: 0x134ADE, size: 0x8, addend: 0x0, symName: __ZNK22JoltGeneric6DOFJoint3D26get_linear_motor_x_enabledEv, symObjAddr: 0x1BD74, symBinAddr: 0xAA84, symSize: 0x8 }
  - { offsetInCU: 0xC5DD4, offset: 0x134B00, size: 0x8, addend: 0x0, symName: __ZNK22JoltGeneric6DOFJoint3D26get_linear_motor_x_enabledEv, symObjAddr: 0x1BD74, symBinAddr: 0xAA84, symSize: 0x8 }
  - { offsetInCU: 0xC5E07, offset: 0x134B33, size: 0x8, addend: 0x0, symName: __ZN22JoltGeneric6DOFJoint3D26set_linear_motor_x_enabledEb, symObjAddr: 0x1BD7C, symBinAddr: 0x2FEA58, symSize: 0x90 }
  - { offsetInCU: 0xC5FB4, offset: 0x134CE0, size: 0x8, addend: 0x0, symName: __ZNK22JoltGeneric6DOFJoint3D26get_linear_motor_y_enabledEv, symObjAddr: 0x1BE0C, symBinAddr: 0x2FE578, symSize: 0x8 }
  - { offsetInCU: 0xC5FDD, offset: 0x134D09, size: 0x8, addend: 0x0, symName: __ZNK22JoltGeneric6DOFJoint3D26get_linear_motor_y_enabledEv, symObjAddr: 0x1BE0C, symBinAddr: 0x2FE578, symSize: 0x8 }
  - { offsetInCU: 0xC5FFF, offset: 0x134D2B, size: 0x8, addend: 0x0, symName: __ZNK22JoltGeneric6DOFJoint3D26get_linear_motor_y_enabledEv, symObjAddr: 0x1BE0C, symBinAddr: 0x2FE578, symSize: 0x8 }
  - { offsetInCU: 0xC6032, offset: 0x134D5E, size: 0x8, addend: 0x0, symName: __ZN22JoltGeneric6DOFJoint3D26set_linear_motor_y_enabledEb, symObjAddr: 0x1BE14, symBinAddr: 0x2FE308, symSize: 0x90 }
  - { offsetInCU: 0xC61DF, offset: 0x134F0B, size: 0x8, addend: 0x0, symName: __ZNK22JoltGeneric6DOFJoint3D26get_linear_motor_z_enabledEv, symObjAddr: 0x1BEA4, symBinAddr: 0xAC2C, symSize: 0x8 }
  - { offsetInCU: 0xC6208, offset: 0x134F34, size: 0x8, addend: 0x0, symName: __ZNK22JoltGeneric6DOFJoint3D26get_linear_motor_z_enabledEv, symObjAddr: 0x1BEA4, symBinAddr: 0xAC2C, symSize: 0x8 }
  - { offsetInCU: 0xC622A, offset: 0x134F56, size: 0x8, addend: 0x0, symName: __ZNK22JoltGeneric6DOFJoint3D26get_linear_motor_z_enabledEv, symObjAddr: 0x1BEA4, symBinAddr: 0xAC2C, symSize: 0x8 }
  - { offsetInCU: 0xC625D, offset: 0x134F89, size: 0x8, addend: 0x0, symName: __ZN22JoltGeneric6DOFJoint3D26set_linear_motor_z_enabledEb, symObjAddr: 0x1BEAC, symBinAddr: 0x18B410, symSize: 0x90 }
  - { offsetInCU: 0xC640A, offset: 0x135136, size: 0x8, addend: 0x0, symName: __ZNK22JoltGeneric6DOFJoint3D27get_linear_spring_x_enabledEv, symObjAddr: 0x1BF3C, symBinAddr: 0x2FE398, symSize: 0x8 }
  - { offsetInCU: 0xC6433, offset: 0x13515F, size: 0x8, addend: 0x0, symName: __ZNK22JoltGeneric6DOFJoint3D27get_linear_spring_x_enabledEv, symObjAddr: 0x1BF3C, symBinAddr: 0x2FE398, symSize: 0x8 }
  - { offsetInCU: 0xC6455, offset: 0x135181, size: 0x8, addend: 0x0, symName: __ZNK22JoltGeneric6DOFJoint3D27get_linear_spring_x_enabledEv, symObjAddr: 0x1BF3C, symBinAddr: 0x2FE398, symSize: 0x8 }
  - { offsetInCU: 0xC6488, offset: 0x1351B4, size: 0x8, addend: 0x0, symName: __ZN22JoltGeneric6DOFJoint3D27set_linear_spring_x_enabledEb, symObjAddr: 0x1BF44, symBinAddr: 0xAE28, symSize: 0x90 }
  - { offsetInCU: 0xC6635, offset: 0x135361, size: 0x8, addend: 0x0, symName: __ZNK22JoltGeneric6DOFJoint3D27get_linear_spring_y_enabledEv, symObjAddr: 0x1BFD4, symBinAddr: 0x2FEAE8, symSize: 0x8 }
  - { offsetInCU: 0xC665E, offset: 0x13538A, size: 0x8, addend: 0x0, symName: __ZNK22JoltGeneric6DOFJoint3D27get_linear_spring_y_enabledEv, symObjAddr: 0x1BFD4, symBinAddr: 0x2FEAE8, symSize: 0x8 }
  - { offsetInCU: 0xC6680, offset: 0x1353AC, size: 0x8, addend: 0x0, symName: __ZNK22JoltGeneric6DOFJoint3D27get_linear_spring_y_enabledEv, symObjAddr: 0x1BFD4, symBinAddr: 0x2FEAE8, symSize: 0x8 }
  - { offsetInCU: 0xC66B3, offset: 0x1353DF, size: 0x8, addend: 0x0, symName: __ZN22JoltGeneric6DOFJoint3D27set_linear_spring_y_enabledEb, symObjAddr: 0x1BFDC, symBinAddr: 0x2FEAF0, symSize: 0x90 }
  - { offsetInCU: 0xC6860, offset: 0x13558C, size: 0x8, addend: 0x0, symName: __ZNK22JoltGeneric6DOFJoint3D27get_linear_spring_z_enabledEv, symObjAddr: 0x1C06C, symBinAddr: 0xAEF8, symSize: 0x8 }
  - { offsetInCU: 0xC6889, offset: 0x1355B5, size: 0x8, addend: 0x0, symName: __ZNK22JoltGeneric6DOFJoint3D27get_linear_spring_z_enabledEv, symObjAddr: 0x1C06C, symBinAddr: 0xAEF8, symSize: 0x8 }
  - { offsetInCU: 0xC68AB, offset: 0x1355D7, size: 0x8, addend: 0x0, symName: __ZNK22JoltGeneric6DOFJoint3D27get_linear_spring_z_enabledEv, symObjAddr: 0x1C06C, symBinAddr: 0xAEF8, symSize: 0x8 }
  - { offsetInCU: 0xC68DE, offset: 0x13560A, size: 0x8, addend: 0x0, symName: __ZN22JoltGeneric6DOFJoint3D27set_linear_spring_z_enabledEb, symObjAddr: 0x1C074, symBinAddr: 0x2FEB80, symSize: 0x90 }
  - { offsetInCU: 0xC6A8B, offset: 0x1357B7, size: 0x8, addend: 0x0, symName: __ZNK22JoltGeneric6DOFJoint3D25get_angular_limit_x_upperEv, symObjAddr: 0x1C104, symBinAddr: 0xAFCC, symSize: 0x8 }
  - { offsetInCU: 0xC6AB2, offset: 0x1357DE, size: 0x8, addend: 0x0, symName: __ZNK22JoltGeneric6DOFJoint3D25get_angular_limit_x_upperEv, symObjAddr: 0x1C104, symBinAddr: 0xAFCC, symSize: 0x8 }
  - { offsetInCU: 0xC6AD4, offset: 0x135800, size: 0x8, addend: 0x0, symName: __ZNK22JoltGeneric6DOFJoint3D25get_angular_limit_x_upperEv, symObjAddr: 0x1C104, symBinAddr: 0xAFCC, symSize: 0x8 }
  - { offsetInCU: 0xC6B07, offset: 0x135833, size: 0x8, addend: 0x0, symName: __ZN22JoltGeneric6DOFJoint3D25set_angular_limit_x_upperEd, symObjAddr: 0x1C10C, symBinAddr: 0x2FEC10, symSize: 0xA0 }
  - { offsetInCU: 0xC6CB4, offset: 0x1359E0, size: 0x8, addend: 0x0, symName: __ZNK22JoltGeneric6DOFJoint3D25get_angular_limit_x_lowerEv, symObjAddr: 0x1C1AC, symBinAddr: 0xB04C, symSize: 0x8 }
  - { offsetInCU: 0xC6CDB, offset: 0x135A07, size: 0x8, addend: 0x0, symName: __ZNK22JoltGeneric6DOFJoint3D25get_angular_limit_x_lowerEv, symObjAddr: 0x1C1AC, symBinAddr: 0xB04C, symSize: 0x8 }
  - { offsetInCU: 0xC6CFE, offset: 0x135A2A, size: 0x8, addend: 0x0, symName: __ZNK22JoltGeneric6DOFJoint3D25get_angular_limit_x_lowerEv, symObjAddr: 0x1C1AC, symBinAddr: 0xB04C, symSize: 0x8 }
  - { offsetInCU: 0xC6D31, offset: 0x135A5D, size: 0x8, addend: 0x0, symName: __ZN22JoltGeneric6DOFJoint3D25set_angular_limit_x_lowerEd, symObjAddr: 0x1C1B4, symBinAddr: 0x2FE580, symSize: 0xA0 }
  - { offsetInCU: 0xC6EDE, offset: 0x135C0A, size: 0x8, addend: 0x0, symName: __ZNK22JoltGeneric6DOFJoint3D25get_angular_limit_y_upperEv, symObjAddr: 0x1C254, symBinAddr: 0xB08C, symSize: 0x8 }
  - { offsetInCU: 0xC6F05, offset: 0x135C31, size: 0x8, addend: 0x0, symName: __ZNK22JoltGeneric6DOFJoint3D25get_angular_limit_y_upperEv, symObjAddr: 0x1C254, symBinAddr: 0xB08C, symSize: 0x8 }
  - { offsetInCU: 0xC6F28, offset: 0x135C54, size: 0x8, addend: 0x0, symName: __ZNK22JoltGeneric6DOFJoint3D25get_angular_limit_y_upperEv, symObjAddr: 0x1C254, symBinAddr: 0xB08C, symSize: 0x8 }
  - { offsetInCU: 0xC6F5B, offset: 0x135C87, size: 0x8, addend: 0x0, symName: __ZN22JoltGeneric6DOFJoint3D25set_angular_limit_y_upperEd, symObjAddr: 0x1C25C, symBinAddr: 0x2FECB0, symSize: 0xA0 }
  - { offsetInCU: 0xC7108, offset: 0x135E34, size: 0x8, addend: 0x0, symName: __ZNK22JoltGeneric6DOFJoint3D25get_angular_limit_y_lowerEv, symObjAddr: 0x1C2FC, symBinAddr: 0xB09C, symSize: 0x8 }
  - { offsetInCU: 0xC712F, offset: 0x135E5B, size: 0x8, addend: 0x0, symName: __ZNK22JoltGeneric6DOFJoint3D25get_angular_limit_y_lowerEv, symObjAddr: 0x1C2FC, symBinAddr: 0xB09C, symSize: 0x8 }
  - { offsetInCU: 0xC7152, offset: 0x135E7E, size: 0x8, addend: 0x0, symName: __ZNK22JoltGeneric6DOFJoint3D25get_angular_limit_y_lowerEv, symObjAddr: 0x1C2FC, symBinAddr: 0xB09C, symSize: 0x8 }
  - { offsetInCU: 0xC7185, offset: 0x135EB1, size: 0x8, addend: 0x0, symName: __ZN22JoltGeneric6DOFJoint3D25set_angular_limit_y_lowerEd, symObjAddr: 0x1C304, symBinAddr: 0x2FED64, symSize: 0xA0 }
  - { offsetInCU: 0xC7332, offset: 0x13605E, size: 0x8, addend: 0x0, symName: __ZNK22JoltGeneric6DOFJoint3D25get_angular_limit_z_upperEv, symObjAddr: 0x1C3A4, symBinAddr: 0xB0B0, symSize: 0x8 }
  - { offsetInCU: 0xC7359, offset: 0x136085, size: 0x8, addend: 0x0, symName: __ZNK22JoltGeneric6DOFJoint3D25get_angular_limit_z_upperEv, symObjAddr: 0x1C3A4, symBinAddr: 0xB0B0, symSize: 0x8 }
  - { offsetInCU: 0xC737C, offset: 0x1360A8, size: 0x8, addend: 0x0, symName: __ZNK22JoltGeneric6DOFJoint3D25get_angular_limit_z_upperEv, symObjAddr: 0x1C3A4, symBinAddr: 0xB0B0, symSize: 0x8 }
  - { offsetInCU: 0xC73AF, offset: 0x1360DB, size: 0x8, addend: 0x0, symName: __ZN22JoltGeneric6DOFJoint3D25set_angular_limit_z_upperEd, symObjAddr: 0x1C3AC, symBinAddr: 0x2FEE04, symSize: 0xA0 }
  - { offsetInCU: 0xC755C, offset: 0x136288, size: 0x8, addend: 0x0, symName: __ZNK22JoltGeneric6DOFJoint3D25get_angular_limit_z_lowerEv, symObjAddr: 0x1C44C, symBinAddr: 0xB244, symSize: 0x8 }
  - { offsetInCU: 0xC7583, offset: 0x1362AF, size: 0x8, addend: 0x0, symName: __ZNK22JoltGeneric6DOFJoint3D25get_angular_limit_z_lowerEv, symObjAddr: 0x1C44C, symBinAddr: 0xB244, symSize: 0x8 }
  - { offsetInCU: 0xC75A6, offset: 0x1362D2, size: 0x8, addend: 0x0, symName: __ZNK22JoltGeneric6DOFJoint3D25get_angular_limit_z_lowerEv, symObjAddr: 0x1C44C, symBinAddr: 0xB244, symSize: 0x8 }
  - { offsetInCU: 0xC75D9, offset: 0x136305, size: 0x8, addend: 0x0, symName: __ZN22JoltGeneric6DOFJoint3D25set_angular_limit_z_lowerEd, symObjAddr: 0x1C454, symBinAddr: 0x2FEEA4, symSize: 0xA0 }
  - { offsetInCU: 0xC7786, offset: 0x1364B2, size: 0x8, addend: 0x0, symName: __ZNK22JoltGeneric6DOFJoint3D35get_angular_motor_x_target_velocityEv, symObjAddr: 0x1C4F4, symBinAddr: 0xB3C8, symSize: 0x8 }
  - { offsetInCU: 0xC77AD, offset: 0x1364D9, size: 0x8, addend: 0x0, symName: __ZNK22JoltGeneric6DOFJoint3D35get_angular_motor_x_target_velocityEv, symObjAddr: 0x1C4F4, symBinAddr: 0xB3C8, symSize: 0x8 }
  - { offsetInCU: 0xC77D0, offset: 0x1364FC, size: 0x8, addend: 0x0, symName: __ZNK22JoltGeneric6DOFJoint3D35get_angular_motor_x_target_velocityEv, symObjAddr: 0x1C4F4, symBinAddr: 0xB3C8, symSize: 0x8 }
  - { offsetInCU: 0xC7803, offset: 0x13652F, size: 0x8, addend: 0x0, symName: __ZN22JoltGeneric6DOFJoint3D35set_angular_motor_x_target_velocityEd, symObjAddr: 0x1C4FC, symBinAddr: 0x2FEF44, symSize: 0xA0 }
  - { offsetInCU: 0xC79B0, offset: 0x1366DC, size: 0x8, addend: 0x0, symName: __ZNK22JoltGeneric6DOFJoint3D30get_angular_motor_x_max_torqueEv, symObjAddr: 0x1C59C, symBinAddr: 0xB49C, symSize: 0x8 }
  - { offsetInCU: 0xC79D7, offset: 0x136703, size: 0x8, addend: 0x0, symName: __ZNK22JoltGeneric6DOFJoint3D30get_angular_motor_x_max_torqueEv, symObjAddr: 0x1C59C, symBinAddr: 0xB49C, symSize: 0x8 }
  - { offsetInCU: 0xC79FA, offset: 0x136726, size: 0x8, addend: 0x0, symName: __ZNK22JoltGeneric6DOFJoint3D30get_angular_motor_x_max_torqueEv, symObjAddr: 0x1C59C, symBinAddr: 0xB49C, symSize: 0x8 }
  - { offsetInCU: 0xC7A2D, offset: 0x136759, size: 0x8, addend: 0x0, symName: __ZN22JoltGeneric6DOFJoint3D30set_angular_motor_x_max_torqueEd, symObjAddr: 0x1C5A4, symBinAddr: 0x2FEFE4, symSize: 0xA0 }
  - { offsetInCU: 0xC7BDA, offset: 0x136906, size: 0x8, addend: 0x0, symName: __ZNK22JoltGeneric6DOFJoint3D35get_angular_motor_y_target_velocityEv, symObjAddr: 0x1C644, symBinAddr: 0xB51C, symSize: 0x8 }
  - { offsetInCU: 0xC7C01, offset: 0x13692D, size: 0x8, addend: 0x0, symName: __ZNK22JoltGeneric6DOFJoint3D35get_angular_motor_y_target_velocityEv, symObjAddr: 0x1C644, symBinAddr: 0xB51C, symSize: 0x8 }
  - { offsetInCU: 0xC7C24, offset: 0x136950, size: 0x8, addend: 0x0, symName: __ZNK22JoltGeneric6DOFJoint3D35get_angular_motor_y_target_velocityEv, symObjAddr: 0x1C644, symBinAddr: 0xB51C, symSize: 0x8 }
  - { offsetInCU: 0xC7C57, offset: 0x136983, size: 0x8, addend: 0x0, symName: __ZN22JoltGeneric6DOFJoint3D35set_angular_motor_y_target_velocityEd, symObjAddr: 0x1C64C, symBinAddr: 0xC8C48, symSize: 0xA0 }
  - { offsetInCU: 0xC7E04, offset: 0x136B30, size: 0x8, addend: 0x0, symName: __ZNK22JoltGeneric6DOFJoint3D30get_angular_motor_y_max_torqueEv, symObjAddr: 0x1C6EC, symBinAddr: 0xB55C, symSize: 0x8 }
  - { offsetInCU: 0xC7E2B, offset: 0x136B57, size: 0x8, addend: 0x0, symName: __ZNK22JoltGeneric6DOFJoint3D30get_angular_motor_y_max_torqueEv, symObjAddr: 0x1C6EC, symBinAddr: 0xB55C, symSize: 0x8 }
  - { offsetInCU: 0xC7E4E, offset: 0x136B7A, size: 0x8, addend: 0x0, symName: __ZNK22JoltGeneric6DOFJoint3D30get_angular_motor_y_max_torqueEv, symObjAddr: 0x1C6EC, symBinAddr: 0xB55C, symSize: 0x8 }
  - { offsetInCU: 0xC7E81, offset: 0x136BAD, size: 0x8, addend: 0x0, symName: __ZN22JoltGeneric6DOFJoint3D30set_angular_motor_y_max_torqueEd, symObjAddr: 0x1C6F4, symBinAddr: 0x67F50, symSize: 0xA0 }
  - { offsetInCU: 0xC802E, offset: 0x136D5A, size: 0x8, addend: 0x0, symName: __ZNK22JoltGeneric6DOFJoint3D35get_angular_motor_z_target_velocityEv, symObjAddr: 0x1C794, symBinAddr: 0xB56C, symSize: 0x8 }
  - { offsetInCU: 0xC8055, offset: 0x136D81, size: 0x8, addend: 0x0, symName: __ZNK22JoltGeneric6DOFJoint3D35get_angular_motor_z_target_velocityEv, symObjAddr: 0x1C794, symBinAddr: 0xB56C, symSize: 0x8 }
  - { offsetInCU: 0xC8078, offset: 0x136DA4, size: 0x8, addend: 0x0, symName: __ZNK22JoltGeneric6DOFJoint3D35get_angular_motor_z_target_velocityEv, symObjAddr: 0x1C794, symBinAddr: 0xB56C, symSize: 0x8 }
  - { offsetInCU: 0xC80AB, offset: 0x136DD7, size: 0x8, addend: 0x0, symName: __ZN22JoltGeneric6DOFJoint3D35set_angular_motor_z_target_velocityEd, symObjAddr: 0x1C79C, symBinAddr: 0x18D558, symSize: 0xA0 }
  - { offsetInCU: 0xC8258, offset: 0x136F84, size: 0x8, addend: 0x0, symName: __ZNK22JoltGeneric6DOFJoint3D30get_angular_motor_z_max_torqueEv, symObjAddr: 0x1C83C, symBinAddr: 0xB580, symSize: 0x8 }
  - { offsetInCU: 0xC827F, offset: 0x136FAB, size: 0x8, addend: 0x0, symName: __ZNK22JoltGeneric6DOFJoint3D30get_angular_motor_z_max_torqueEv, symObjAddr: 0x1C83C, symBinAddr: 0xB580, symSize: 0x8 }
  - { offsetInCU: 0xC82A2, offset: 0x136FCE, size: 0x8, addend: 0x0, symName: __ZNK22JoltGeneric6DOFJoint3D30get_angular_motor_z_max_torqueEv, symObjAddr: 0x1C83C, symBinAddr: 0xB580, symSize: 0x8 }
  - { offsetInCU: 0xC82D5, offset: 0x137001, size: 0x8, addend: 0x0, symName: __ZN22JoltGeneric6DOFJoint3D30set_angular_motor_z_max_torqueEd, symObjAddr: 0x1C844, symBinAddr: 0x2FF084, symSize: 0xA0 }
  - { offsetInCU: 0xC8482, offset: 0x1371AE, size: 0x8, addend: 0x0, symName: __ZNK22JoltGeneric6DOFJoint3D30get_angular_spring_x_frequencyEv, symObjAddr: 0x1C8E4, symBinAddr: 0xB714, symSize: 0x8 }
  - { offsetInCU: 0xC84A9, offset: 0x1371D5, size: 0x8, addend: 0x0, symName: __ZNK22JoltGeneric6DOFJoint3D30get_angular_spring_x_frequencyEv, symObjAddr: 0x1C8E4, symBinAddr: 0xB714, symSize: 0x8 }
  - { offsetInCU: 0xC84CC, offset: 0x1371F8, size: 0x8, addend: 0x0, symName: __ZNK22JoltGeneric6DOFJoint3D30get_angular_spring_x_frequencyEv, symObjAddr: 0x1C8E4, symBinAddr: 0xB714, symSize: 0x8 }
  - { offsetInCU: 0xC84FF, offset: 0x13722B, size: 0x8, addend: 0x0, symName: __ZN22JoltGeneric6DOFJoint3D30set_angular_spring_x_frequencyEd, symObjAddr: 0x1C8EC, symBinAddr: 0xD8F48, symSize: 0x2D4 }
  - { offsetInCU: 0xC8869, offset: 0x137595, size: 0x8, addend: 0x0, symName: __ZNK22JoltGeneric6DOFJoint3D28get_angular_spring_x_dampingEv, symObjAddr: 0x1CBC0, symBinAddr: 0xB898, symSize: 0x8 }
  - { offsetInCU: 0xC8890, offset: 0x1375BC, size: 0x8, addend: 0x0, symName: __ZNK22JoltGeneric6DOFJoint3D28get_angular_spring_x_dampingEv, symObjAddr: 0x1CBC0, symBinAddr: 0xB898, symSize: 0x8 }
  - { offsetInCU: 0xC88B3, offset: 0x1375DF, size: 0x8, addend: 0x0, symName: __ZNK22JoltGeneric6DOFJoint3D28get_angular_spring_x_dampingEv, symObjAddr: 0x1CBC0, symBinAddr: 0xB898, symSize: 0x8 }
  - { offsetInCU: 0xC88E6, offset: 0x137612, size: 0x8, addend: 0x0, symName: __ZN22JoltGeneric6DOFJoint3D28set_angular_spring_x_dampingEd, symObjAddr: 0x1CBC8, symBinAddr: 0x18D700, symSize: 0xA0 }
  - { offsetInCU: 0xC8A93, offset: 0x1377BF, size: 0x8, addend: 0x0, symName: __ZNK22JoltGeneric6DOFJoint3D38get_angular_spring_x_equilibrium_pointEv, symObjAddr: 0x1CC68, symBinAddr: 0xB96C, symSize: 0x8 }
  - { offsetInCU: 0xC8ABA, offset: 0x1377E6, size: 0x8, addend: 0x0, symName: __ZNK22JoltGeneric6DOFJoint3D38get_angular_spring_x_equilibrium_pointEv, symObjAddr: 0x1CC68, symBinAddr: 0xB96C, symSize: 0x8 }
  - { offsetInCU: 0xC8ADD, offset: 0x137809, size: 0x8, addend: 0x0, symName: __ZNK22JoltGeneric6DOFJoint3D38get_angular_spring_x_equilibrium_pointEv, symObjAddr: 0x1CC68, symBinAddr: 0xB96C, symSize: 0x8 }
  - { offsetInCU: 0xC8B10, offset: 0x13783C, size: 0x8, addend: 0x0, symName: __ZN22JoltGeneric6DOFJoint3D38set_angular_spring_x_equilibrium_pointEd, symObjAddr: 0x1CC70, symBinAddr: 0xD7AA4, symSize: 0xA0 }
  - { offsetInCU: 0xC8CBD, offset: 0x1379E9, size: 0x8, addend: 0x0, symName: __ZNK22JoltGeneric6DOFJoint3D30get_angular_spring_y_frequencyEv, symObjAddr: 0x1CD10, symBinAddr: 0xB9EC, symSize: 0x8 }
  - { offsetInCU: 0xC8CE4, offset: 0x137A10, size: 0x8, addend: 0x0, symName: __ZNK22JoltGeneric6DOFJoint3D30get_angular_spring_y_frequencyEv, symObjAddr: 0x1CD10, symBinAddr: 0xB9EC, symSize: 0x8 }
  - { offsetInCU: 0xC8D07, offset: 0x137A33, size: 0x8, addend: 0x0, symName: __ZNK22JoltGeneric6DOFJoint3D30get_angular_spring_y_frequencyEv, symObjAddr: 0x1CD10, symBinAddr: 0xB9EC, symSize: 0x8 }
  - { offsetInCU: 0xC8D3A, offset: 0x137A66, size: 0x8, addend: 0x0, symName: __ZN22JoltGeneric6DOFJoint3D30set_angular_spring_y_frequencyEd, symObjAddr: 0x1CD18, symBinAddr: 0x2FF124, symSize: 0x2D4 }
  - { offsetInCU: 0xC90A4, offset: 0x137DD0, size: 0x8, addend: 0x0, symName: __ZNK22JoltGeneric6DOFJoint3D28get_angular_spring_y_dampingEv, symObjAddr: 0x1CFEC, symBinAddr: 0xBA2C, symSize: 0x8 }
  - { offsetInCU: 0xC90CB, offset: 0x137DF7, size: 0x8, addend: 0x0, symName: __ZNK22JoltGeneric6DOFJoint3D28get_angular_spring_y_dampingEv, symObjAddr: 0x1CFEC, symBinAddr: 0xBA2C, symSize: 0x8 }
  - { offsetInCU: 0xC90EE, offset: 0x137E1A, size: 0x8, addend: 0x0, symName: __ZNK22JoltGeneric6DOFJoint3D28get_angular_spring_y_dampingEv, symObjAddr: 0x1CFEC, symBinAddr: 0xBA2C, symSize: 0x8 }
  - { offsetInCU: 0xC9121, offset: 0x137E4D, size: 0x8, addend: 0x0, symName: __ZN22JoltGeneric6DOFJoint3D28set_angular_spring_y_dampingEd, symObjAddr: 0x1CFF4, symBinAddr: 0x18DC90, symSize: 0xA0 }
  - { offsetInCU: 0xC92CE, offset: 0x137FFA, size: 0x8, addend: 0x0, symName: __ZNK22JoltGeneric6DOFJoint3D38get_angular_spring_y_equilibrium_pointEv, symObjAddr: 0x1D094, symBinAddr: 0xBA3C, symSize: 0x8 }
  - { offsetInCU: 0xC92F5, offset: 0x138021, size: 0x8, addend: 0x0, symName: __ZNK22JoltGeneric6DOFJoint3D38get_angular_spring_y_equilibrium_pointEv, symObjAddr: 0x1D094, symBinAddr: 0xBA3C, symSize: 0x8 }
  - { offsetInCU: 0xC9318, offset: 0x138044, size: 0x8, addend: 0x0, symName: __ZNK22JoltGeneric6DOFJoint3D38get_angular_spring_y_equilibrium_pointEv, symObjAddr: 0x1D094, symBinAddr: 0xBA3C, symSize: 0x8 }
  - { offsetInCU: 0xC934B, offset: 0x138077, size: 0x8, addend: 0x0, symName: __ZN22JoltGeneric6DOFJoint3D38set_angular_spring_y_equilibrium_pointEd, symObjAddr: 0x1D09C, symBinAddr: 0x2FF3F8, symSize: 0xA0 }
  - { offsetInCU: 0xC94F8, offset: 0x138224, size: 0x8, addend: 0x0, symName: __ZNK22JoltGeneric6DOFJoint3D30get_angular_spring_z_frequencyEv, symObjAddr: 0x1D13C, symBinAddr: 0x2FF498, symSize: 0x8 }
  - { offsetInCU: 0xC951F, offset: 0x13824B, size: 0x8, addend: 0x0, symName: __ZNK22JoltGeneric6DOFJoint3D30get_angular_spring_z_frequencyEv, symObjAddr: 0x1D13C, symBinAddr: 0x2FF498, symSize: 0x8 }
  - { offsetInCU: 0xC9542, offset: 0x13826E, size: 0x8, addend: 0x0, symName: __ZNK22JoltGeneric6DOFJoint3D30get_angular_spring_z_frequencyEv, symObjAddr: 0x1D13C, symBinAddr: 0x2FF498, symSize: 0x8 }
  - { offsetInCU: 0xC9575, offset: 0x1382A1, size: 0x8, addend: 0x0, symName: __ZN22JoltGeneric6DOFJoint3D30set_angular_spring_z_frequencyEd, symObjAddr: 0x1D144, symBinAddr: 0x24DE74, symSize: 0x2D4 }
  - { offsetInCU: 0xC98DF, offset: 0x13860B, size: 0x8, addend: 0x0, symName: __ZNK22JoltGeneric6DOFJoint3D28get_angular_spring_z_dampingEv, symObjAddr: 0x1D418, symBinAddr: 0x2FF4A0, symSize: 0x8 }
  - { offsetInCU: 0xC9906, offset: 0x138632, size: 0x8, addend: 0x0, symName: __ZNK22JoltGeneric6DOFJoint3D28get_angular_spring_z_dampingEv, symObjAddr: 0x1D418, symBinAddr: 0x2FF4A0, symSize: 0x8 }
  - { offsetInCU: 0xC9929, offset: 0x138655, size: 0x8, addend: 0x0, symName: __ZNK22JoltGeneric6DOFJoint3D28get_angular_spring_z_dampingEv, symObjAddr: 0x1D418, symBinAddr: 0x2FF4A0, symSize: 0x8 }
  - { offsetInCU: 0xC995C, offset: 0x138688, size: 0x8, addend: 0x0, symName: __ZN22JoltGeneric6DOFJoint3D28set_angular_spring_z_dampingEd, symObjAddr: 0x1D420, symBinAddr: 0x203FBC, symSize: 0xA0 }
  - { offsetInCU: 0xC9B09, offset: 0x138835, size: 0x8, addend: 0x0, symName: __ZNK22JoltGeneric6DOFJoint3D38get_angular_spring_z_equilibrium_pointEv, symObjAddr: 0x1D4C0, symBinAddr: 0x24E180, symSize: 0x8 }
  - { offsetInCU: 0xC9B30, offset: 0x13885C, size: 0x8, addend: 0x0, symName: __ZNK22JoltGeneric6DOFJoint3D38get_angular_spring_z_equilibrium_pointEv, symObjAddr: 0x1D4C0, symBinAddr: 0x24E180, symSize: 0x8 }
  - { offsetInCU: 0xC9B53, offset: 0x13887F, size: 0x8, addend: 0x0, symName: __ZNK22JoltGeneric6DOFJoint3D38get_angular_spring_z_equilibrium_pointEv, symObjAddr: 0x1D4C0, symBinAddr: 0x24E180, symSize: 0x8 }
  - { offsetInCU: 0xC9B86, offset: 0x1388B2, size: 0x8, addend: 0x0, symName: __ZN22JoltGeneric6DOFJoint3D38set_angular_spring_z_equilibrium_pointEd, symObjAddr: 0x1D4C8, symBinAddr: 0x2B6DDC, symSize: 0xA0 }
  - { offsetInCU: 0xC9D33, offset: 0x138A5F, size: 0x8, addend: 0x0, symName: __ZNK22JoltGeneric6DOFJoint3D27get_angular_limit_x_enabledEv, symObjAddr: 0x1D568, symBinAddr: 0x2FF4A8, symSize: 0x8 }
  - { offsetInCU: 0xC9D5C, offset: 0x138A88, size: 0x8, addend: 0x0, symName: __ZNK22JoltGeneric6DOFJoint3D27get_angular_limit_x_enabledEv, symObjAddr: 0x1D568, symBinAddr: 0x2FF4A8, symSize: 0x8 }
  - { offsetInCU: 0xC9D7F, offset: 0x138AAB, size: 0x8, addend: 0x0, symName: __ZNK22JoltGeneric6DOFJoint3D27get_angular_limit_x_enabledEv, symObjAddr: 0x1D568, symBinAddr: 0x2FF4A8, symSize: 0x8 }
  - { offsetInCU: 0xC9DB2, offset: 0x138ADE, size: 0x8, addend: 0x0, symName: __ZN22JoltGeneric6DOFJoint3D27set_angular_limit_x_enabledEb, symObjAddr: 0x1D570, symBinAddr: 0x1DD8F0, symSize: 0x90 }
  - { offsetInCU: 0xC9F5F, offset: 0x138C8B, size: 0x8, addend: 0x0, symName: __ZNK22JoltGeneric6DOFJoint3D27get_angular_limit_y_enabledEv, symObjAddr: 0x1D600, symBinAddr: 0x204064, symSize: 0x8 }
  - { offsetInCU: 0xC9F88, offset: 0x138CB4, size: 0x8, addend: 0x0, symName: __ZNK22JoltGeneric6DOFJoint3D27get_angular_limit_y_enabledEv, symObjAddr: 0x1D600, symBinAddr: 0x204064, symSize: 0x8 }
  - { offsetInCU: 0xC9FAB, offset: 0x138CD7, size: 0x8, addend: 0x0, symName: __ZNK22JoltGeneric6DOFJoint3D27get_angular_limit_y_enabledEv, symObjAddr: 0x1D600, symBinAddr: 0x204064, symSize: 0x8 }
  - { offsetInCU: 0xC9FDE, offset: 0x138D0A, size: 0x8, addend: 0x0, symName: __ZN22JoltGeneric6DOFJoint3D27set_angular_limit_y_enabledEb, symObjAddr: 0x1D608, symBinAddr: 0x2292C0, symSize: 0x90 }
  - { offsetInCU: 0xCA18B, offset: 0x138EB7, size: 0x8, addend: 0x0, symName: __ZNK22JoltGeneric6DOFJoint3D27get_angular_limit_z_enabledEv, symObjAddr: 0x1D698, symBinAddr: 0x12D1A8, symSize: 0x8 }
  - { offsetInCU: 0xCA1B4, offset: 0x138EE0, size: 0x8, addend: 0x0, symName: __ZNK22JoltGeneric6DOFJoint3D27get_angular_limit_z_enabledEv, symObjAddr: 0x1D698, symBinAddr: 0x12D1A8, symSize: 0x8 }
  - { offsetInCU: 0xCA1D7, offset: 0x138F03, size: 0x8, addend: 0x0, symName: __ZNK22JoltGeneric6DOFJoint3D27get_angular_limit_z_enabledEv, symObjAddr: 0x1D698, symBinAddr: 0x12D1A8, symSize: 0x8 }
  - { offsetInCU: 0xCA20A, offset: 0x138F36, size: 0x8, addend: 0x0, symName: __ZN22JoltGeneric6DOFJoint3D27set_angular_limit_z_enabledEb, symObjAddr: 0x1D6A0, symBinAddr: 0x27F594, symSize: 0x90 }
  - { offsetInCU: 0xCA3B7, offset: 0x1390E3, size: 0x8, addend: 0x0, symName: __ZNK22JoltGeneric6DOFJoint3D27get_angular_motor_x_enabledEv, symObjAddr: 0x1D730, symBinAddr: 0x16DCF8, symSize: 0x8 }
  - { offsetInCU: 0xCA3E0, offset: 0x13910C, size: 0x8, addend: 0x0, symName: __ZNK22JoltGeneric6DOFJoint3D27get_angular_motor_x_enabledEv, symObjAddr: 0x1D730, symBinAddr: 0x16DCF8, symSize: 0x8 }
  - { offsetInCU: 0xCA403, offset: 0x13912F, size: 0x8, addend: 0x0, symName: __ZNK22JoltGeneric6DOFJoint3D27get_angular_motor_x_enabledEv, symObjAddr: 0x1D730, symBinAddr: 0x16DCF8, symSize: 0x8 }
  - { offsetInCU: 0xCA436, offset: 0x139162, size: 0x8, addend: 0x0, symName: __ZN22JoltGeneric6DOFJoint3D27set_angular_motor_x_enabledEb, symObjAddr: 0x1D738, symBinAddr: 0x195CD0, symSize: 0x90 }
  - { offsetInCU: 0xCA5E3, offset: 0x13930F, size: 0x8, addend: 0x0, symName: __ZNK22JoltGeneric6DOFJoint3D27get_angular_motor_y_enabledEv, symObjAddr: 0x1D7C8, symBinAddr: 0xD9268, symSize: 0x8 }
  - { offsetInCU: 0xCA60C, offset: 0x139338, size: 0x8, addend: 0x0, symName: __ZNK22JoltGeneric6DOFJoint3D27get_angular_motor_y_enabledEv, symObjAddr: 0x1D7C8, symBinAddr: 0xD9268, symSize: 0x8 }
  - { offsetInCU: 0xCA62F, offset: 0x13935B, size: 0x8, addend: 0x0, symName: __ZNK22JoltGeneric6DOFJoint3D27get_angular_motor_y_enabledEv, symObjAddr: 0x1D7C8, symBinAddr: 0xD9268, symSize: 0x8 }
  - { offsetInCU: 0xCA662, offset: 0x13938E, size: 0x8, addend: 0x0, symName: __ZN22JoltGeneric6DOFJoint3D27set_angular_motor_y_enabledEb, symObjAddr: 0x1D7D0, symBinAddr: 0xD9270, symSize: 0x90 }
  - { offsetInCU: 0xCA80F, offset: 0x13953B, size: 0x8, addend: 0x0, symName: __ZNK22JoltGeneric6DOFJoint3D27get_angular_motor_z_enabledEv, symObjAddr: 0x1D860, symBinAddr: 0x1DD9CC, symSize: 0x8 }
  - { offsetInCU: 0xCA838, offset: 0x139564, size: 0x8, addend: 0x0, symName: __ZNK22JoltGeneric6DOFJoint3D27get_angular_motor_z_enabledEv, symObjAddr: 0x1D860, symBinAddr: 0x1DD9CC, symSize: 0x8 }
  - { offsetInCU: 0xCA85B, offset: 0x139587, size: 0x8, addend: 0x0, symName: __ZNK22JoltGeneric6DOFJoint3D27get_angular_motor_z_enabledEv, symObjAddr: 0x1D860, symBinAddr: 0x1DD9CC, symSize: 0x8 }
  - { offsetInCU: 0xCA88E, offset: 0x1395BA, size: 0x8, addend: 0x0, symName: __ZN22JoltGeneric6DOFJoint3D27set_angular_motor_z_enabledEb, symObjAddr: 0x1D868, symBinAddr: 0x1F90E0, symSize: 0x90 }
  - { offsetInCU: 0xCAA3B, offset: 0x139767, size: 0x8, addend: 0x0, symName: __ZNK22JoltGeneric6DOFJoint3D28get_angular_spring_x_enabledEv, symObjAddr: 0x1D8F8, symBinAddr: 0x204250, symSize: 0x8 }
  - { offsetInCU: 0xCAA64, offset: 0x139790, size: 0x8, addend: 0x0, symName: __ZNK22JoltGeneric6DOFJoint3D28get_angular_spring_x_enabledEv, symObjAddr: 0x1D8F8, symBinAddr: 0x204250, symSize: 0x8 }
  - { offsetInCU: 0xCAA87, offset: 0x1397B3, size: 0x8, addend: 0x0, symName: __ZNK22JoltGeneric6DOFJoint3D28get_angular_spring_x_enabledEv, symObjAddr: 0x1D8F8, symBinAddr: 0x204250, symSize: 0x8 }
  - { offsetInCU: 0xCAABA, offset: 0x1397E6, size: 0x8, addend: 0x0, symName: __ZN22JoltGeneric6DOFJoint3D28set_angular_spring_x_enabledEb, symObjAddr: 0x1D900, symBinAddr: 0x220EB8, symSize: 0x90 }
  - { offsetInCU: 0xCAC67, offset: 0x139993, size: 0x8, addend: 0x0, symName: __ZNK22JoltGeneric6DOFJoint3D28get_angular_spring_y_enabledEv, symObjAddr: 0x1D990, symBinAddr: 0x2294DC, symSize: 0x8 }
  - { offsetInCU: 0xCAC90, offset: 0x1399BC, size: 0x8, addend: 0x0, symName: __ZNK22JoltGeneric6DOFJoint3D28get_angular_spring_y_enabledEv, symObjAddr: 0x1D990, symBinAddr: 0x2294DC, symSize: 0x8 }
  - { offsetInCU: 0xCACB3, offset: 0x1399DF, size: 0x8, addend: 0x0, symName: __ZNK22JoltGeneric6DOFJoint3D28get_angular_spring_y_enabledEv, symObjAddr: 0x1D990, symBinAddr: 0x2294DC, symSize: 0x8 }
  - { offsetInCU: 0xCACE6, offset: 0x139A12, size: 0x8, addend: 0x0, symName: __ZN22JoltGeneric6DOFJoint3D28set_angular_spring_y_enabledEb, symObjAddr: 0x1D998, symBinAddr: 0x23C5F4, symSize: 0x90 }
  - { offsetInCU: 0xCAE93, offset: 0x139BBF, size: 0x8, addend: 0x0, symName: __ZNK22JoltGeneric6DOFJoint3D28get_angular_spring_z_enabledEv, symObjAddr: 0x1DA28, symBinAddr: 0x8A748, symSize: 0x8 }
  - { offsetInCU: 0xCAEBC, offset: 0x139BE8, size: 0x8, addend: 0x0, symName: __ZNK22JoltGeneric6DOFJoint3D28get_angular_spring_z_enabledEv, symObjAddr: 0x1DA28, symBinAddr: 0x8A748, symSize: 0x8 }
  - { offsetInCU: 0xCAEDF, offset: 0x139C0B, size: 0x8, addend: 0x0, symName: __ZNK22JoltGeneric6DOFJoint3D28get_angular_spring_z_enabledEv, symObjAddr: 0x1DA28, symBinAddr: 0x8A748, symSize: 0x8 }
  - { offsetInCU: 0xCAF12, offset: 0x139C3E, size: 0x8, addend: 0x0, symName: __ZN22JoltGeneric6DOFJoint3D28set_angular_spring_z_enabledEb, symObjAddr: 0x1DA30, symBinAddr: 0x26033C, symSize: 0x90 }
  - { offsetInCU: 0xCB0BF, offset: 0x139DEB, size: 0x8, addend: 0x0, symName: __ZNK22JoltGeneric6DOFJoint3D17get_applied_forceEv, symObjAddr: 0x1DAC0, symBinAddr: 0x147DD0, symSize: 0x288 }
  - { offsetInCU: 0xCB321, offset: 0x13A04D, size: 0x8, addend: 0x0, symName: __ZNK22JoltGeneric6DOFJoint3D18get_applied_torqueEv, symObjAddr: 0x1DD48, symBinAddr: 0x295D68, symSize: 0x288 }
  - { offsetInCU: 0xCB583, offset: 0x13A2AF, size: 0x8, addend: 0x0, symName: __ZN22JoltGeneric6DOFJoint3D10_configureEPN5godot13PhysicsBody3DES2_, symObjAddr: 0x1ECEC, symBinAddr: 0x1B4D88, symSize: 0xD84 }
  - { offsetInCU: 0xCCAEC, offset: 0x13B818, size: 0x8, addend: 0x0, symName: __ZNK22JoltGeneric6DOFJoint3D23_get_bindings_callbacksEv, symObjAddr: 0x1FE74, symBinAddr: 0x1EC784, symSize: 0xC }
  - { offsetInCU: 0xCCB4E, offset: 0x13B87A, size: 0x8, addend: 0x0, symName: __ZN22JoltGeneric6DOFJoint3D14_notificationvEib, symObjAddr: 0x1FE80, symBinAddr: 0x101704, symSize: 0xC }
  - { offsetInCU: 0xCCB96, offset: 0x13B8C2, size: 0x8, addend: 0x0, symName: __ZN22JoltGeneric6DOFJoint3D14_notificationvEib, symObjAddr: 0x1FE80, symBinAddr: 0x101704, symSize: 0xC }
  - { offsetInCU: 0xCCBDF, offset: 0x13B90B, size: 0x8, addend: 0x0, symName: __ZN22JoltGeneric6DOFJoint3DD1Ev, symObjAddr: 0x1FE8C, symBinAddr: 0x202CC8, symSize: 0x4 }
  - { offsetInCU: 0xCCC01, offset: 0x13B92D, size: 0x8, addend: 0x0, symName: __ZN22JoltGeneric6DOFJoint3DD1Ev, symObjAddr: 0x1FE8C, symBinAddr: 0x202CC8, symSize: 0x4 }
  - { offsetInCU: 0xCCC37, offset: 0x13B963, size: 0x8, addend: 0x0, symName: __ZN22JoltGeneric6DOFJoint3DD0Ev, symObjAddr: 0x1FE90, symBinAddr: 0x79778, symSize: 0x14 }
  - { offsetInCU: 0xCCC9A, offset: 0x13B9C6, size: 0x8, addend: 0x0, symName: __ZN22JoltGeneric6DOFJoint3D28_gde_binding_create_callbackEPvS0_, symObjAddr: 0x1FEA4, symBinAddr: 0x212C38, symSize: 0x8 }
  - { offsetInCU: 0xCCCCD, offset: 0x13B9F9, size: 0x8, addend: 0x0, symName: __ZN22JoltGeneric6DOFJoint3D26_gde_binding_free_callbackEPvS0_S0_, symObjAddr: 0x1FEAC, symBinAddr: 0x21F644, symSize: 0x4 }
  - { offsetInCU: 0xCCD0C, offset: 0x13BA38, size: 0x8, addend: 0x0, symName: __ZN22JoltGeneric6DOFJoint3D31_gde_binding_reference_callbackEPvS0_h, symObjAddr: 0x1FEB0, symBinAddr: 0x117F40, symSize: 0x8 }
  - { offsetInCU: 0xCCE26, offset: 0x13BB52, size: 0x8, addend: 0x0, symName: __ZNK5godot13MethodBindTRCIdJN22JoltGeneric6DOFJoint3D5ParamEEE17gen_argument_typeEi, symObjAddr: 0x20150, symBinAddr: 0x232764, symSize: 0x10 }
  - { offsetInCU: 0xCCE6B, offset: 0x13BB97, size: 0x8, addend: 0x0, symName: __ZNK5godot13MethodBindTRCIdJN22JoltGeneric6DOFJoint3D5ParamEEE22gen_argument_type_infoEi, symObjAddr: 0x20160, symBinAddr: 0x23C814, symSize: 0x250 }
  - { offsetInCU: 0xCD5D0, offset: 0x13C2FC, size: 0x8, addend: 0x0, symName: __ZNK5godot13MethodBindTRCIdJN22JoltGeneric6DOFJoint3D5ParamEEE21get_argument_metadataEi, symObjAddr: 0x203B0, symBinAddr: 0x244760, symSize: 0xC }
  - { offsetInCU: 0xCD6E8, offset: 0x13C414, size: 0x8, addend: 0x0, symName: __ZNK5godot13MethodBindTRCIdJN22JoltGeneric6DOFJoint3D5ParamEEE4callEPvPKPKvxR20GDExtensionCallError, symObjAddr: 0x203BC, symBinAddr: 0x24E344, symSize: 0x2A8 }
  - { offsetInCU: 0xCDCD3, offset: 0x13C9FF, size: 0x8, addend: 0x0, symName: __ZNK5godot13MethodBindTRCIdJN22JoltGeneric6DOFJoint3D5ParamEEE7ptrcallEPvPKPKvS4_, symObjAddr: 0x20664, symBinAddr: 0x25B75C, symSize: 0x40 }
  - { offsetInCU: 0xCDDE2, offset: 0x13CB0E, size: 0x8, addend: 0x0, symName: __ZN5godot13MethodBindTRCIdJN22JoltGeneric6DOFJoint3D5ParamEEED1Ev, symObjAddr: 0x206A4, symBinAddr: 0x136E44, symSize: 0xE0 }
  - { offsetInCU: 0xCE2C3, offset: 0x13CFEF, size: 0x8, addend: 0x0, symName: __ZN5godot13MethodBindTRCIdJN22JoltGeneric6DOFJoint3D5ParamEEED0Ev, symObjAddr: 0x20784, symBinAddr: 0x27AD60, symSize: 0xE0 }
  - { offsetInCU: 0xCE834, offset: 0x13D560, size: 0x8, addend: 0x0, symName: __ZNK5godot11MethodBindTIJN22JoltGeneric6DOFJoint3D5ParamEdEE17gen_argument_typeEi, symObjAddr: 0x21010, symBinAddr: 0x2ACDC4, symSize: 0x24 }
  - { offsetInCU: 0xCE872, offset: 0x13D59E, size: 0x8, addend: 0x0, symName: __ZNK5godot11MethodBindTIJN22JoltGeneric6DOFJoint3D5ParamEdEE22gen_argument_type_infoEi, symObjAddr: 0x21034, symBinAddr: 0x5A708, symSize: 0x1B8 }
  - { offsetInCU: 0xCEE2C, offset: 0x13DB58, size: 0x8, addend: 0x0, symName: __ZNK5godot11MethodBindTIJN22JoltGeneric6DOFJoint3D5ParamEdEE21get_argument_metadataEi, symObjAddr: 0x211EC, symBinAddr: 0x2C799C, symSize: 0x10 }
  - { offsetInCU: 0xCEE60, offset: 0x13DB8C, size: 0x8, addend: 0x0, symName: __ZNK5godot11MethodBindTIJN22JoltGeneric6DOFJoint3D5ParamEdEE21get_argument_metadataEi, symObjAddr: 0x211EC, symBinAddr: 0x2C799C, symSize: 0x10 }
  - { offsetInCU: 0xCEE95, offset: 0x13DBC1, size: 0x8, addend: 0x0, symName: __ZNK5godot11MethodBindTIJN22JoltGeneric6DOFJoint3D5ParamEdEE21get_argument_metadataEi, symObjAddr: 0x211EC, symBinAddr: 0x2C799C, symSize: 0x10 }
  - { offsetInCU: 0xCEF5E, offset: 0x13DC8A, size: 0x8, addend: 0x0, symName: __ZNK5godot11MethodBindTIJN22JoltGeneric6DOFJoint3D5ParamEdEE4callEPvPKPKvxR20GDExtensionCallError, symObjAddr: 0x211FC, symBinAddr: 0x185CA4, symSize: 0x3F4 }
  - { offsetInCU: 0xCF793, offset: 0x13E4BF, size: 0x8, addend: 0x0, symName: __ZNK5godot11MethodBindTIJN22JoltGeneric6DOFJoint3D5ParamEdEE7ptrcallEPvPKPKvS4_, symObjAddr: 0x215F0, symBinAddr: 0x2FF7EC, symSize: 0x24 }
  - { offsetInCU: 0xCF894, offset: 0x13E5C0, size: 0x8, addend: 0x0, symName: __ZN5godot11MethodBindTIJN22JoltGeneric6DOFJoint3D5ParamEdEED1Ev, symObjAddr: 0x21614, symBinAddr: 0x194B90, symSize: 0xE0 }
  - { offsetInCU: 0xCFD75, offset: 0x13EAA1, size: 0x8, addend: 0x0, symName: __ZN5godot11MethodBindTIJN22JoltGeneric6DOFJoint3D5ParamEdEED0Ev, symObjAddr: 0x216F4, symBinAddr: 0x638B8, symSize: 0xE0 }
  - { offsetInCU: 0xD02C4, offset: 0x13EFF0, size: 0x8, addend: 0x0, symName: __ZNK5godot13MethodBindTRCIbJN22JoltGeneric6DOFJoint3D4FlagEEE17gen_argument_typeEi, symObjAddr: 0x21A6C, symBinAddr: 0xD9AE4, symSize: 0x10 }
  - { offsetInCU: 0xD02FD, offset: 0x13F029, size: 0x8, addend: 0x0, symName: __ZNK5godot13MethodBindTRCIbJN22JoltGeneric6DOFJoint3D4FlagEEE22gen_argument_type_infoEi, symObjAddr: 0x21A7C, symBinAddr: 0x2FF810, symSize: 0x250 }
  - { offsetInCU: 0xD0A62, offset: 0x13F78E, size: 0x8, addend: 0x0, symName: __ZNK5godot13MethodBindTRCIbJN22JoltGeneric6DOFJoint3D4FlagEEE21get_argument_metadataEi, symObjAddr: 0x21CCC, symBinAddr: 0xDB664, symSize: 0x8 }
  - { offsetInCU: 0xD0ADF, offset: 0x13F80B, size: 0x8, addend: 0x0, symName: __ZNK5godot13MethodBindTRCIbJN22JoltGeneric6DOFJoint3D4FlagEEE4callEPvPKPKvxR20GDExtensionCallError, symObjAddr: 0x21CD4, symBinAddr: 0xDB66C, symSize: 0x2A8 }
  - { offsetInCU: 0xD10B2, offset: 0x13FDDE, size: 0x8, addend: 0x0, symName: __ZNK5godot13MethodBindTRCIbJN22JoltGeneric6DOFJoint3D4FlagEEE7ptrcallEPvPKPKvS4_, symObjAddr: 0x21F7C, symBinAddr: 0x1B5C18, symSize: 0x40 }
  - { offsetInCU: 0xD11AF, offset: 0x13FEDB, size: 0x8, addend: 0x0, symName: __ZN5godot13MethodBindTRCIbJN22JoltGeneric6DOFJoint3D4FlagEEED1Ev, symObjAddr: 0x21FBC, symBinAddr: 0xE2C20, symSize: 0xE0 }
  - { offsetInCU: 0xD1690, offset: 0x1403BC, size: 0x8, addend: 0x0, symName: __ZN5godot13MethodBindTRCIbJN22JoltGeneric6DOFJoint3D4FlagEEED0Ev, symObjAddr: 0x2209C, symBinAddr: 0x2022C, symSize: 0xE0 }
  - { offsetInCU: 0xD1BDF, offset: 0x14090B, size: 0x8, addend: 0x0, symName: __ZNK5godot11MethodBindTIJN22JoltGeneric6DOFJoint3D4FlagEbEE17gen_argument_typeEi, symObjAddr: 0x226BC, symBinAddr: 0xF1A38, symSize: 0x20 }
  - { offsetInCU: 0xD1C11, offset: 0x14093D, size: 0x8, addend: 0x0, symName: __ZNK5godot11MethodBindTIJN22JoltGeneric6DOFJoint3D4FlagEbEE22gen_argument_type_infoEi, symObjAddr: 0x226DC, symBinAddr: 0x71204, symSize: 0x1B8 }
  - { offsetInCU: 0xD21C1, offset: 0x140EED, size: 0x8, addend: 0x0, symName: __ZNK5godot11MethodBindTIJN22JoltGeneric6DOFJoint3D4FlagEbEE21get_argument_metadataEi, symObjAddr: 0x22894, symBinAddr: 0x1E9A34, symSize: 0x8 }
  - { offsetInCU: 0xD223D, offset: 0x140F69, size: 0x8, addend: 0x0, symName: __ZNK5godot11MethodBindTIJN22JoltGeneric6DOFJoint3D4FlagEbEE4callEPvPKPKvxR20GDExtensionCallError, symObjAddr: 0x2289C, symBinAddr: 0xFA2FC, symSize: 0x3F8 }
  - { offsetInCU: 0xD2A72, offset: 0x14179E, size: 0x8, addend: 0x0, symName: __ZNK5godot11MethodBindTIJN22JoltGeneric6DOFJoint3D4FlagEbEE7ptrcallEPvPKPKvS4_, symObjAddr: 0x22C94, symBinAddr: 0x1F2C40, symSize: 0x2C }
  - { offsetInCU: 0xD2B74, offset: 0x1418A0, size: 0x8, addend: 0x0, symName: __ZN5godot11MethodBindTIJN22JoltGeneric6DOFJoint3D4FlagEbEED1Ev, symObjAddr: 0x22CC0, symBinAddr: 0x1F91FC, symSize: 0xE0 }
  - { offsetInCU: 0xD3055, offset: 0x141D81, size: 0x8, addend: 0x0, symName: __ZN5godot11MethodBindTIJN22JoltGeneric6DOFJoint3D4FlagEbEED0Ev, symObjAddr: 0x22DA0, symBinAddr: 0x1FE30C, symSize: 0xE0 }
  - { offsetInCU: 0x446A, offset: 0x149F93, size: 0x8, addend: 0x0, symName: __ZN5godot7vformatIJNS_15PhysicsServer3D19G6DOFJointAxisParamEEEENS_6StringERKS3_DpKT_, symObjAddr: 0x107C, symBinAddr: 0x20E68, symSize: 0x1A8 }
  - { offsetInCU: 0x4A06, offset: 0x14A52F, size: 0x8, addend: 0x0, symName: __ZN5godot7vformatIJNS_15PhysicsServer3D18G6DOFJointAxisFlagEEEENS_6StringERKS3_DpKT_, symObjAddr: 0x2048, symBinAddr: 0x1E9CFC, symSize: 0x1A8 }
  - { offsetInCU: 0x4EFA, offset: 0x14AA23, size: 0x8, addend: 0x0, symName: __ZN5godot7vformatIJN19JoltPhysicsServer3D23G6DOFJointAxisParamJoltEEEENS_6StringERKS3_DpKT_, symObjAddr: 0x2794, symBinAddr: 0x1EFEA4, symSize: 0x1A8 }
  - { offsetInCU: 0x53EE, offset: 0x14AF17, size: 0x8, addend: 0x0, symName: __ZN5godot7vformatIJN19JoltPhysicsServer3D22G6DOFJointAxisFlagJoltEEEENS_6StringERKS3_DpKT_, symObjAddr: 0x2E18, symBinAddr: 0x1017B0, symSize: 0x1A8 }
  - { offsetInCU: 0x1C09F, offset: 0x161BC8, size: 0x8, addend: 0x0, symName: __ZN26JoltGeneric6DOFJointImpl3D7rebuildEv, symObjAddr: 0x0, symBinAddr: 0x6EA14, symSize: 0xDA0 }
  - { offsetInCU: 0x1F8F9, offset: 0x165422, size: 0x8, addend: 0x0, symName: __ZN26JoltGeneric6DOFJointImpl3DC1ERK15JoltJointImpl3DP14JoltBodyImpl3DS4_RKN5godot11Transform3DES8_, symObjAddr: 0xDA0, symBinAddr: 0x1DAC40, symSize: 0x90 }
  - { offsetInCU: 0x1F9CD, offset: 0x1654F6, size: 0x8, addend: 0x0, symName: __ZNK26JoltGeneric6DOFJointImpl3D9get_paramEN5godot7Vector34AxisENS0_15PhysicsServer3D19G6DOFJointAxisParamE, symObjAddr: 0xE30, symBinAddr: 0x35EC4, symSize: 0x24C }
  - { offsetInCU: 0x1FF17, offset: 0x165A40, size: 0x8, addend: 0x0, symName: __ZN26JoltGeneric6DOFJointImpl3D9set_paramEN5godot7Vector34AxisENS0_15PhysicsServer3D19G6DOFJointAxisParamEd, symObjAddr: 0x1224, symBinAddr: 0x1E1938, symSize: 0xC38 }
  - { offsetInCU: 0x214BE, offset: 0x166FE7, size: 0x8, addend: 0x0, symName: __ZNK26JoltGeneric6DOFJointImpl3D8get_flagEN5godot7Vector34AxisENS0_15PhysicsServer3D18G6DOFJointAxisFlagE, symObjAddr: 0x1E5C, symBinAddr: 0x1E45F4, symSize: 0x1EC }
  - { offsetInCU: 0x21951, offset: 0x16747A, size: 0x8, addend: 0x0, symName: __ZN26JoltGeneric6DOFJointImpl3D8set_flagEN5godot7Vector34AxisENS0_15PhysicsServer3D18G6DOFJointAxisFlagEb, symObjAddr: 0x21F0, symBinAddr: 0x1EB9D4, symSize: 0x3EC }
  - { offsetInCU: 0x22081, offset: 0x167BAA, size: 0x8, addend: 0x0, symName: __ZNK26JoltGeneric6DOFJointImpl3D14get_jolt_paramEN5godot7Vector34AxisEN19JoltPhysicsServer3D23G6DOFJointAxisParamJoltE, symObjAddr: 0x25DC, symBinAddr: 0x7471C, symSize: 0x1B8 }
  - { offsetInCU: 0x2251B, offset: 0x168044, size: 0x8, addend: 0x0, symName: __ZN26JoltGeneric6DOFJointImpl3D14set_jolt_paramEN5godot7Vector34AxisEN19JoltPhysicsServer3D23G6DOFJointAxisParamJoltEd, symObjAddr: 0x293C, symBinAddr: 0x1F2CB8, symSize: 0x320 }
  - { offsetInCU: 0x22C2F, offset: 0x168758, size: 0x8, addend: 0x0, symName: __ZNK26JoltGeneric6DOFJointImpl3D13get_jolt_flagEN5godot7Vector34AxisEN19JoltPhysicsServer3D22G6DOFJointAxisFlagJoltE, symObjAddr: 0x2C5C, symBinAddr: 0x1F6F6C, symSize: 0x1BC }
  - { offsetInCU: 0x2307F, offset: 0x168BA8, size: 0x8, addend: 0x0, symName: __ZN26JoltGeneric6DOFJointImpl3D13set_jolt_flagEN5godot7Vector34AxisEN19JoltPhysicsServer3D22G6DOFJointAxisFlagJoltEb, symObjAddr: 0x2FC0, symBinAddr: 0x1FC478, symSize: 0x2FC }
  - { offsetInCU: 0x236E7, offset: 0x169210, size: 0x8, addend: 0x0, symName: __ZN26JoltGeneric6DOFJointImpl3DD1Ev, symObjAddr: 0x3494, symBinAddr: 0x1FE3F4, symSize: 0x4 }
  - { offsetInCU: 0x2370A, offset: 0x169233, size: 0x8, addend: 0x0, symName: __ZN26JoltGeneric6DOFJointImpl3DD1Ev, symObjAddr: 0x3494, symBinAddr: 0x1FE3F4, symSize: 0x4 }
  - { offsetInCU: 0x23741, offset: 0x16926A, size: 0x8, addend: 0x0, symName: __ZN26JoltGeneric6DOFJointImpl3DD0Ev, symObjAddr: 0x3498, symBinAddr: 0x22568, symSize: 0x14 }
  - { offsetInCU: 0x237A7, offset: 0x1692D0, size: 0x8, addend: 0x0, symName: __ZNK26JoltGeneric6DOFJointImpl3D8get_typeEv, symObjAddr: 0x34AC, symBinAddr: 0x1080E8, symSize: 0x8 }
  - { offsetInCU: 0x8682, offset: 0x173FE3, size: 0x8, addend: 0x0, symName: __ZN5godot18create_method_bindI16JoltHingeJoint3DbJEEEPNS_10MethodBindEMT_KFT0_DpT1_E, symObjAddr: 0x459C, symBinAddr: 0x19BAB8, symSize: 0x27C }
  - { offsetInCU: 0x8C76, offset: 0x1745D7, size: 0x8, addend: 0x0, symName: __ZN5godot18create_method_bindI16JoltHingeJoint3DJbEEEPNS_10MethodBindEMT_FvDpT0_E, symObjAddr: 0x4818, symBinAddr: 0xD2818, symSize: 0x290 }
  - { offsetInCU: 0x924D, offset: 0x174BAE, size: 0x8, addend: 0x0, symName: __ZN5godot18create_method_bindI16JoltHingeJoint3DdJEEEPNS_10MethodBindEMT_KFT0_DpT1_E, symObjAddr: 0x4AA8, symBinAddr: 0x19E2F8, symSize: 0x27C }
  - { offsetInCU: 0x9841, offset: 0x1751A2, size: 0x8, addend: 0x0, symName: __ZN5godot18create_method_bindI16JoltHingeJoint3DJdEEEPNS_10MethodBindEMT_FvDpT0_E, symObjAddr: 0x4D24, symBinAddr: 0xD3DC8, symSize: 0x290 }
  - { offsetInCU: 0x9E18, offset: 0x175779, size: 0x8, addend: 0x0, symName: __ZN5godot18create_method_bindI16JoltHingeJoint3DfJEEEPNS_10MethodBindEMT_KFT0_DpT1_E, symObjAddr: 0x4FB4, symBinAddr: 0x1A1758, symSize: 0x27C }
  - { offsetInCU: 0x26E1B, offset: 0x19277C, size: 0x8, addend: 0x0, symName: __ZN16JoltHingeJoint3D16get_class_staticEv, symObjAddr: 0x3DCC, symBinAddr: 0x192670, symSize: 0x8C }
  - { offsetInCU: 0x26E3B, offset: 0x19279C, size: 0x8, addend: 0x0, symName: __ZZN16JoltHingeJoint3D16get_class_staticEvE11string_name, symObjAddr: 0x6878, symBinAddr: 0x362478, symSize: 0x0 }
  - { offsetInCU: 0x26EB1, offset: 0x192812, size: 0x8, addend: 0x0, symName: __ZNK16JoltHingeJoint3D25_get_extension_class_nameEv, symObjAddr: 0x44A4, symBinAddr: 0x194108, symSize: 0xB4 }
  - { offsetInCU: 0x26ED5, offset: 0x192836, size: 0x8, addend: 0x0, symName: __ZZNK16JoltHingeJoint3D25_get_extension_class_nameEvE11string_name, symObjAddr: 0x6868, symBinAddr: 0x362498, symSize: 0x0 }
  - { offsetInCU: 0x26F8D, offset: 0x1928EE, size: 0x8, addend: 0x0, symName: __ZN16JoltHingeJoint3D22_gde_binding_callbacksE, symObjAddr: 0x6838, symBinAddr: 0x35F590, symSize: 0x0 }
  - { offsetInCU: 0x28193, offset: 0x193AF4, size: 0x8, addend: 0x0, symName: __ZN16JoltHingeJoint3D13_bind_methodsEv, symObjAddr: 0x0, symBinAddr: 0x2A6B24, symSize: 0x2AEC }
  - { offsetInCU: 0x35C02, offset: 0x1A1563, size: 0x8, addend: 0x0, symName: __ZNK16JoltHingeJoint3D17get_limit_enabledEv, symObjAddr: 0x2AEC, symBinAddr: 0x166B60, symSize: 0x8 }
  - { offsetInCU: 0x35CA6, offset: 0x1A1607, size: 0x8, addend: 0x0, symName: __ZN16JoltHingeJoint3D17set_limit_enabledEb, symObjAddr: 0x2AF4, symBinAddr: 0x2AFF00, symSize: 0x88 }
  - { offsetInCU: 0x35DAA, offset: 0x1A170B, size: 0x8, addend: 0x0, symName: __ZNK16JoltHingeJoint3D15get_limit_upperEv, symObjAddr: 0x2B7C, symBinAddr: 0x16A4CC, symSize: 0x8 }
  - { offsetInCU: 0x35E31, offset: 0x1A1792, size: 0x8, addend: 0x0, symName: __ZN16JoltHingeJoint3D15set_limit_upperEd, symObjAddr: 0x2B84, symBinAddr: 0x2B4C3C, symSize: 0x88 }
  - { offsetInCU: 0x35F35, offset: 0x1A1896, size: 0x8, addend: 0x0, symName: __ZNK16JoltHingeJoint3D15get_limit_lowerEv, symObjAddr: 0x2C0C, symBinAddr: 0x2B71D0, symSize: 0x8 }
  - { offsetInCU: 0x35F5A, offset: 0x1A18BB, size: 0x8, addend: 0x0, symName: __ZN16JoltHingeJoint3D15set_limit_lowerEd, symObjAddr: 0x2C14, symBinAddr: 0x2BE00C, symSize: 0x88 }
  - { offsetInCU: 0x3605E, offset: 0x1A19BF, size: 0x8, addend: 0x0, symName: __ZNK16JoltHingeJoint3D24get_limit_spring_enabledEv, symObjAddr: 0x2C9C, symBinAddr: 0x1738F4, symSize: 0x8 }
  - { offsetInCU: 0x360C3, offset: 0x1A1A24, size: 0x8, addend: 0x0, symName: __ZN16JoltHingeJoint3D24set_limit_spring_enabledEb, symObjAddr: 0x2CA4, symBinAddr: 0x2C4AD8, symSize: 0x2B8 }
  - { offsetInCU: 0x36386, offset: 0x1A1CE7, size: 0x8, addend: 0x0, symName: __ZNK16JoltHingeJoint3D26get_limit_spring_frequencyEv, symObjAddr: 0x2F5C, symBinAddr: 0x177DB4, symSize: 0x8 }
  - { offsetInCU: 0x363E7, offset: 0x1A1D48, size: 0x8, addend: 0x0, symName: __ZN16JoltHingeJoint3D26set_limit_spring_frequencyEd, symObjAddr: 0x2F64, symBinAddr: 0x2CC0F8, symSize: 0x2B8 }
  - { offsetInCU: 0x366A9, offset: 0x1A200A, size: 0x8, addend: 0x0, symName: __ZNK16JoltHingeJoint3D24get_limit_spring_dampingEv, symObjAddr: 0x321C, symBinAddr: 0x17DC98, symSize: 0x8 }
  - { offsetInCU: 0x366CE, offset: 0x1A202F, size: 0x8, addend: 0x0, symName: __ZN16JoltHingeJoint3D24set_limit_spring_dampingEd, symObjAddr: 0x3224, symBinAddr: 0x2F03B4, symSize: 0x2B8 }
  - { offsetInCU: 0x36990, offset: 0x1A22F1, size: 0x8, addend: 0x0, symName: __ZNK16JoltHingeJoint3D17get_motor_enabledEv, symObjAddr: 0x34DC, symBinAddr: 0x2F1E88, symSize: 0x8 }
  - { offsetInCU: 0x369B7, offset: 0x1A2318, size: 0x8, addend: 0x0, symName: __ZN16JoltHingeJoint3D17set_motor_enabledEb, symObjAddr: 0x34E4, symBinAddr: 0x2F6848, symSize: 0x88 }
  - { offsetInCU: 0x36ABB, offset: 0x1A241C, size: 0x8, addend: 0x0, symName: __ZNK16JoltHingeJoint3D25get_motor_target_velocityEv, symObjAddr: 0x356C, symBinAddr: 0x5FD40, symSize: 0x8 }
  - { offsetInCU: 0x36AE0, offset: 0x1A2441, size: 0x8, addend: 0x0, symName: __ZN16JoltHingeJoint3D25set_motor_target_velocityEd, symObjAddr: 0x3574, symBinAddr: 0x2F97B4, symSize: 0x88 }
  - { offsetInCU: 0x36BE4, offset: 0x1A2545, size: 0x8, addend: 0x0, symName: __ZNK16JoltHingeJoint3D20get_motor_max_torqueEv, symObjAddr: 0x35FC, symBinAddr: 0x18D3F8, symSize: 0x8 }
  - { offsetInCU: 0x36C09, offset: 0x1A256A, size: 0x8, addend: 0x0, symName: __ZN16JoltHingeJoint3D20set_motor_max_torqueEd, symObjAddr: 0x3604, symBinAddr: 0x18FC04, symSize: 0x2B8 }
  - { offsetInCU: 0x36ECB, offset: 0x1A282C, size: 0x8, addend: 0x0, symName: __ZNK16JoltHingeJoint3D17get_applied_forceEv, symObjAddr: 0x38BC, symBinAddr: 0x190B00, symSize: 0x288 }
  - { offsetInCU: 0x3712C, offset: 0x1A2A8D, size: 0x8, addend: 0x0, symName: __ZNK16JoltHingeJoint3D18get_applied_torqueEv, symObjAddr: 0x3B44, symBinAddr: 0xCBAE4, symSize: 0x288 }
  - { offsetInCU: 0x3738D, offset: 0x1A2CEE, size: 0x8, addend: 0x0, symName: __ZN16JoltHingeJoint3D10_configureEPN5godot13PhysicsBody3DES2_, symObjAddr: 0x3E58, symBinAddr: 0xCCDF8, symSize: 0x64C }
  - { offsetInCU: 0x37BCC, offset: 0x1A352D, size: 0x8, addend: 0x0, symName: __ZNK16JoltHingeJoint3D23_get_bindings_callbacksEv, symObjAddr: 0x4558, symBinAddr: 0xCE3A0, symSize: 0xC }
  - { offsetInCU: 0x37C2E, offset: 0x1A358F, size: 0x8, addend: 0x0, symName: __ZN16JoltHingeJoint3D14_notificationvEib, symObjAddr: 0x4564, symBinAddr: 0x195700, symSize: 0xC }
  - { offsetInCU: 0x37C77, offset: 0x1A35D8, size: 0x8, addend: 0x0, symName: __ZN16JoltHingeJoint3D14_notificationvEib, symObjAddr: 0x4564, symBinAddr: 0x195700, symSize: 0xC }
  - { offsetInCU: 0x37CBF, offset: 0x1A3620, size: 0x8, addend: 0x0, symName: __ZN16JoltHingeJoint3DD1Ev, symObjAddr: 0x4570, symBinAddr: 0x196218, symSize: 0x4 }
  - { offsetInCU: 0x37CE2, offset: 0x1A3643, size: 0x8, addend: 0x0, symName: __ZN16JoltHingeJoint3DD1Ev, symObjAddr: 0x4570, symBinAddr: 0x196218, symSize: 0x4 }
  - { offsetInCU: 0x37D17, offset: 0x1A3678, size: 0x8, addend: 0x0, symName: __ZN16JoltHingeJoint3DD0Ev, symObjAddr: 0x4574, symBinAddr: 0x196CE4, symSize: 0x14 }
  - { offsetInCU: 0x37D7A, offset: 0x1A36DB, size: 0x8, addend: 0x0, symName: __ZN16JoltHingeJoint3D28_gde_binding_create_callbackEPvS0_, symObjAddr: 0x4588, symBinAddr: 0xD05DC, symSize: 0x8 }
  - { offsetInCU: 0x37DAD, offset: 0x1A370E, size: 0x8, addend: 0x0, symName: __ZN16JoltHingeJoint3D26_gde_binding_free_callbackEPvS0_S0_, symObjAddr: 0x4590, symBinAddr: 0x1997E8, symSize: 0x4 }
  - { offsetInCU: 0x37DEC, offset: 0x1A374D, size: 0x8, addend: 0x0, symName: __ZN16JoltHingeJoint3D31_gde_binding_reference_callbackEPvS0_h, symObjAddr: 0x4594, symBinAddr: 0xD198C, symSize: 0x8 }
  - { offsetInCU: 0x4D03, offset: 0x1AA325, size: 0x8, addend: 0x0, symName: __ZN5godot7vformatIJNS_15PhysicsServer3D15HingeJointParamEEEENS_6StringERKS3_DpKT_, symObjAddr: 0xD50, symBinAddr: 0x10673C, symSize: 0x1A8 }
  - { offsetInCU: 0x529F, offset: 0x1AA8C1, size: 0x8, addend: 0x0, symName: __ZN5godot7vformatIJN19JoltPhysicsServer3D19HingeJointParamJoltEEEENS_6StringERKS3_DpKT_, symObjAddr: 0x1814, symBinAddr: 0x795D0, symSize: 0x1A8 }
  - { offsetInCU: 0x5793, offset: 0x1AADB5, size: 0x8, addend: 0x0, symName: __ZN5godot7vformatIJNS_15PhysicsServer3D14HingeJointFlagEEEENS_6StringERKS3_DpKT_, symObjAddr: 0x1D48, symBinAddr: 0x10AC9C, symSize: 0x1A8 }
  - { offsetInCU: 0x5C87, offset: 0x1AB2A9, size: 0x8, addend: 0x0, symName: __ZN5godot7vformatIJN19JoltPhysicsServer3D18HingeJointFlagJoltEEEENS_6StringERKS3_DpKT_, symObjAddr: 0x2240, symBinAddr: 0x20C510, symSize: 0x1A8 }
  - { offsetInCU: 0x1C38F, offset: 0x1C19B1, size: 0x8, addend: 0x0, symName: __ZN20JoltHingeJointImpl3D7rebuildEv, symObjAddr: 0x0, symBinAddr: 0x1FD0B4, symSize: 0xA5C }
  - { offsetInCU: 0x1F65A, offset: 0x1C4C7C, size: 0x8, addend: 0x0, symName: __ZN20JoltHingeJointImpl3DC1ERK15JoltJointImpl3DP14JoltBodyImpl3DS4_RKN5godot11Transform3DES8_, symObjAddr: 0xA5C, symBinAddr: 0x104A98, symSize: 0x48 }
  - { offsetInCU: 0x1F768, offset: 0x1C4D8A, size: 0x8, addend: 0x0, symName: __ZNK20JoltHingeJointImpl3D9get_paramEN5godot15PhysicsServer3D15HingeJointParamE, symObjAddr: 0xAA4, symBinAddr: 0x1FEDE0, symSize: 0x2AC }
  - { offsetInCU: 0x1FD01, offset: 0x1C5323, size: 0x8, addend: 0x0, symName: __ZN20JoltHingeJointImpl3D9set_paramEN5godot15PhysicsServer3D15HingeJointParamEd, symObjAddr: 0xEF8, symBinAddr: 0x201CFC, symSize: 0x788 }
  - { offsetInCU: 0x21501, offset: 0x1C6B23, size: 0x8, addend: 0x0, symName: __ZNK20JoltHingeJointImpl3D14get_jolt_paramEN19JoltPhysicsServer3D19HingeJointParamJoltE, symObjAddr: 0x1680, symBinAddr: 0x107AB8, symSize: 0x194 }
  - { offsetInCU: 0x21920, offset: 0x1C6F42, size: 0x8, addend: 0x0, symName: __ZN20JoltHingeJointImpl3D14set_jolt_paramEN19JoltPhysicsServer3D19HingeJointParamJoltEd, symObjAddr: 0x19BC, symBinAddr: 0x17FEC, symSize: 0x1F0 }
  - { offsetInCU: 0x21E16, offset: 0x1C7438, size: 0x8, addend: 0x0, symName: __ZNK20JoltHingeJointImpl3D8get_flagEN5godot15PhysicsServer3D14HingeJointFlagE, symObjAddr: 0x1BAC, symBinAddr: 0x206F18, symSize: 0x19C }
  - { offsetInCU: 0x22267, offset: 0x1C7889, size: 0x8, addend: 0x0, symName: __ZN20JoltHingeJointImpl3D8set_flagEN5godot15PhysicsServer3D14HingeJointFlagEb, symObjAddr: 0x1EF0, symBinAddr: 0x2090C0, symSize: 0x1D4 }
  - { offsetInCU: 0x22781, offset: 0x1C7DA3, size: 0x8, addend: 0x0, symName: __ZNK20JoltHingeJointImpl3D13get_jolt_flagEN19JoltPhysicsServer3D18HingeJointFlagJoltE, symObjAddr: 0x20C4, symBinAddr: 0x10C7B4, symSize: 0x17C }
  - { offsetInCU: 0x22BB9, offset: 0x1C81DB, size: 0x8, addend: 0x0, symName: __ZN20JoltHingeJointImpl3D13set_jolt_flagEN19JoltPhysicsServer3D18HingeJointFlagJoltEb, symObjAddr: 0x23E8, symBinAddr: 0x10DCE0, symSize: 0x194 }
  - { offsetInCU: 0x2302F, offset: 0x1C8651, size: 0x8, addend: 0x0, symName: __ZN20JoltHingeJointImpl3DD1Ev, symObjAddr: 0x2784, symBinAddr: 0x20ECD0, symSize: 0x4 }
  - { offsetInCU: 0x23052, offset: 0x1C8674, size: 0x8, addend: 0x0, symName: __ZN20JoltHingeJointImpl3DD1Ev, symObjAddr: 0x2784, symBinAddr: 0x20ECD0, symSize: 0x4 }
  - { offsetInCU: 0x23089, offset: 0x1C86AB, size: 0x8, addend: 0x0, symName: __ZN20JoltHingeJointImpl3DD0Ev, symObjAddr: 0x2788, symBinAddr: 0x10F99C, symSize: 0x14 }
  - { offsetInCU: 0x230EF, offset: 0x1C8711, size: 0x8, addend: 0x0, symName: __ZNK20JoltHingeJointImpl3D8get_typeEv, symObjAddr: 0x279C, symBinAddr: 0x21173C, symSize: 0x8 }
  - { offsetInCU: 0xB420, offset: 0x1D5F31, size: 0x8, addend: 0x0, symName: __ZN5godot18create_method_bindI11JoltJoint3DbJEEEPNS_10MethodBindEMT_KFT0_DpT1_E, symObjAddr: 0x3F18, symBinAddr: 0x4DCD8, symSize: 0x27C }
  - { offsetInCU: 0xBA14, offset: 0x1D6525, size: 0x8, addend: 0x0, symName: __ZN5godot18create_method_bindI11JoltJoint3DJbEEEPNS_10MethodBindEMT_FvDpT0_E, symObjAddr: 0x4194, symBinAddr: 0x28B9BC, symSize: 0x290 }
  - { offsetInCU: 0xBFEB, offset: 0x1D6AFC, size: 0x8, addend: 0x0, symName: __ZN5godot18create_method_bindI11JoltJoint3DNS_8NodePathEJEEEPNS_10MethodBindEMT_KFT0_DpT1_E, symObjAddr: 0x4424, symBinAddr: 0x150418, symSize: 0x27C }
  - { offsetInCU: 0xC5DF, offset: 0x1D70F0, size: 0x8, addend: 0x0, symName: __ZN5godot18create_method_bindI11JoltJoint3DJRKNS_8NodePathEEEEPNS_10MethodBindEMT_FvDpT0_E, symObjAddr: 0x4C30, symBinAddr: 0x2994DC, symSize: 0x290 }
  - { offsetInCU: 0xCBB6, offset: 0x1D76C7, size: 0x8, addend: 0x0, symName: __ZN5godot18create_method_bindI11JoltJoint3DiJEEEPNS_10MethodBindEMT_KFT0_DpT1_E, symObjAddr: 0x56EC, symBinAddr: 0x167C50, symSize: 0x27C }
  - { offsetInCU: 0xD1AA, offset: 0x1D7CBB, size: 0x8, addend: 0x0, symName: __ZN5godot18create_method_bindI11JoltJoint3DJiEEEPNS_10MethodBindEMT_FvDpT0_E, symObjAddr: 0x5E80, symBinAddr: 0x171A94, symSize: 0x290 }
  - { offsetInCU: 0xE87F, offset: 0x1D9390, size: 0x8, addend: 0x0, symName: __ZN5godot34call_get_argument_type_info_helperIiEEviRiRNS_12PropertyInfoE, symObjAddr: 0x673C, symBinAddr: 0x2CC52C, symSize: 0x248 }
  - { offsetInCU: 0x2B3FE, offset: 0x1F5F0F, size: 0x8, addend: 0x0, symName: __ZN11JoltJoint3D15_connect_bodiesEv, symObjAddr: 0x356C, symBinAddr: 0x279A10, symSize: 0x304 }
  - { offsetInCU: 0x2B424, offset: 0x1F5F35, size: 0x8, addend: 0x0, symName: __ZZN11JoltJoint3D15_connect_bodiesEvE11exit_signal.llvm.6150553524444676479, symObjAddr: 0x2108C8, symBinAddr: 0x36DB40, symSize: 0x0 }
  - { offsetInCU: 0x2B7CA, offset: 0x1F62DB, size: 0x8, addend: 0x0, symName: __ZN11JoltJoint3D18_disconnect_bodiesEv, symObjAddr: 0x3870, symBinAddr: 0x145BBC, symSize: 0x32C }
  - { offsetInCU: 0x2B7F0, offset: 0x1F6301, size: 0x8, addend: 0x0, symName: __ZZN11JoltJoint3D18_disconnect_bodiesEvE11exit_signal.llvm.6150553524444676479, symObjAddr: 0x2108D8, symBinAddr: 0x36DAC0, symSize: 0x0 }
  - { offsetInCU: 0x2BB96, offset: 0x1F66A7, size: 0x8, addend: 0x0, symName: __ZN11JoltJoint3D16get_class_staticEv, symObjAddr: 0x2288, symBinAddr: 0x13A540, symSize: 0x8C }
  - { offsetInCU: 0x2BBB6, offset: 0x1F66C7, size: 0x8, addend: 0x0, symName: __ZZN11JoltJoint3D16get_class_staticEvE11string_name, symObjAddr: 0x85C0, symBinAddr: 0x362438, symSize: 0x0 }
  - { offsetInCU: 0x2BC2C, offset: 0x1F673D, size: 0x8, addend: 0x0, symName: __ZNK11JoltJoint3D25_get_extension_class_nameEv, symObjAddr: 0x3E34, symBinAddr: 0x147578, symSize: 0xB4 }
  - { offsetInCU: 0x2BC50, offset: 0x1F6761, size: 0x8, addend: 0x0, symName: __ZZNK11JoltJoint3D25_get_extension_class_nameEvE11string_name, symObjAddr: 0x85B0, symBinAddr: 0x362458, symSize: 0x0 }
  - { offsetInCU: 0x2BD08, offset: 0x1F6819, size: 0x8, addend: 0x0, symName: __ZN11JoltJoint3D22_gde_binding_callbacksE, symObjAddr: 0x8398, symBinAddr: 0x35F310, symSize: 0x0 }
  - { offsetInCU: 0x2CFD9, offset: 0x1F7AEA, size: 0x8, addend: 0x0, symName: __ZN11JoltJoint3D13_bind_methodsEv, symObjAddr: 0x0, symBinAddr: 0x254C3C, symSize: 0x1A70 }
  - { offsetInCU: 0x35699, offset: 0x2001AA, size: 0x8, addend: 0x0, symName: __ZNK11JoltJoint3D11get_enabledEv, symObjAddr: 0x1A70, symBinAddr: 0x130158, symSize: 0x8 }
  - { offsetInCU: 0x35714, offset: 0x200225, size: 0x8, addend: 0x0, symName: __ZN11JoltJoint3D11set_enabledEb, symObjAddr: 0x1A78, symBinAddr: 0x25A858, symSize: 0x120 }
  - { offsetInCU: 0x357F9, offset: 0x20030A, size: 0x8, addend: 0x0, symName: __ZNK11JoltJoint3D10get_node_aEv, symObjAddr: 0x1B98, symBinAddr: 0x130EC8, symSize: 0x38 }
  - { offsetInCU: 0x35903, offset: 0x200414, size: 0x8, addend: 0x0, symName: __ZN11JoltJoint3D10set_node_aERKN5godot8NodePathE, symObjAddr: 0x1BD0, symBinAddr: 0x25B598, symSize: 0x16C }
  - { offsetInCU: 0x35B2E, offset: 0x20063F, size: 0x8, addend: 0x0, symName: __ZN11JoltJoint3D6_buildEv, symObjAddr: 0x30A4, symBinAddr: 0x276214, symSize: 0x390 }
  - { offsetInCU: 0x35F0B, offset: 0x200A1C, size: 0x8, addend: 0x0, symName: __ZNK11JoltJoint3D10get_node_bEv, symObjAddr: 0x1D3C, symBinAddr: 0x44F4C, symSize: 0x38 }
  - { offsetInCU: 0x35FB5, offset: 0x200AC6, size: 0x8, addend: 0x0, symName: __ZN11JoltJoint3D10set_node_bERKN5godot8NodePathE, symObjAddr: 0x1D74, symBinAddr: 0x25EA84, symSize: 0x16C }
  - { offsetInCU: 0x361E0, offset: 0x200CF1, size: 0x8, addend: 0x0, symName: __ZNK11JoltJoint3D32get_exclude_nodes_from_collisionEv, symObjAddr: 0x1EE0, symBinAddr: 0x135E8C, symSize: 0x8 }
  - { offsetInCU: 0x36245, offset: 0x200D56, size: 0x8, addend: 0x0, symName: __ZN11JoltJoint3D32set_exclude_nodes_from_collisionEb, symObjAddr: 0x1EE8, symBinAddr: 0x25F9BC, symSize: 0x150 }
  - { offsetInCU: 0x363ED, offset: 0x200EFE, size: 0x8, addend: 0x0, symName: __ZNK11JoltJoint3D30get_solver_velocity_iterationsEv, symObjAddr: 0x2038, symBinAddr: 0x136B90, symSize: 0x8 }
  - { offsetInCU: 0x36452, offset: 0x200F63, size: 0x8, addend: 0x0, symName: __ZN11JoltJoint3D30set_solver_velocity_iterationsEi, symObjAddr: 0x2040, symBinAddr: 0x136F70, symSize: 0x120 }
  - { offsetInCU: 0x36537, offset: 0x201048, size: 0x8, addend: 0x0, symName: __ZNK11JoltJoint3D30get_solver_position_iterationsEv, symObjAddr: 0x2160, symBinAddr: 0x261F40, symSize: 0x8 }
  - { offsetInCU: 0x3659C, offset: 0x2010AD, size: 0x8, addend: 0x0, symName: __ZN11JoltJoint3D30set_solver_position_iterationsEi, symObjAddr: 0x2168, symBinAddr: 0x262800, symSize: 0x120 }
  - { offsetInCU: 0x3670D, offset: 0x20121E, size: 0x8, addend: 0x0, symName: __ZN11JoltJoint3DC2Ev, symObjAddr: 0x2314, symBinAddr: 0x988AC, symSize: 0x238 }
  - { offsetInCU: 0x36C21, offset: 0x201732, size: 0x8, addend: 0x0, symName: __ZN11JoltJoint3D19_get_physics_serverEv, symObjAddr: 0x254C, symBinAddr: 0x267758, symSize: 0x1D4 }
  - { offsetInCU: 0x36F54, offset: 0x201A65, size: 0x8, addend: 0x0, symName: __ZN11JoltJoint3DD2Ev, symObjAddr: 0x2724, symBinAddr: 0x267FD8, symSize: 0x2A8 }
  - { offsetInCU: 0x375D0, offset: 0x2020E1, size: 0x8, addend: 0x0, symName: __ZN11JoltJoint3DD1Ev, symObjAddr: 0x29CC, symBinAddr: 0x13EB54, symSize: 0x4 }
  - { offsetInCU: 0x375F3, offset: 0x202104, size: 0x8, addend: 0x0, symName: __ZN11JoltJoint3DD1Ev, symObjAddr: 0x29CC, symBinAddr: 0x13EB54, symSize: 0x4 }
  - { offsetInCU: 0x3761A, offset: 0x20212B, size: 0x8, addend: 0x0, symName: __ZN11JoltJoint3DD0Ev, symObjAddr: 0x29D0, symBinAddr: 0x270F64, symSize: 0x14 }
  - { offsetInCU: 0x37676, offset: 0x202187, size: 0x8, addend: 0x0, symName: __ZN5godot6Object7cast_toINS_13PhysicsBody3DEEEPT_PS0_, symObjAddr: 0x29E4, symBinAddr: 0x14002C, symSize: 0x210 }
  - { offsetInCU: 0x3793C, offset: 0x20244D, size: 0x8, addend: 0x0, symName: __ZNK11JoltJoint3D27_get_configuration_warningsEv, symObjAddr: 0x2BF4, symBinAddr: 0x273BB4, symSize: 0x98 }
  - { offsetInCU: 0x37ABC, offset: 0x2025CD, size: 0x8, addend: 0x0, symName: __ZN11JoltJoint3D13_notificationEi, symObjAddr: 0x2F48, symBinAddr: 0x143BD4, symSize: 0x15C }
  - { offsetInCU: 0x37CBF, offset: 0x2027D0, size: 0x8, addend: 0x0, symName: __ZN11JoltJoint3D9_validateEv, symObjAddr: 0x3B9C, symBinAddr: 0x27C798, symSize: 0x200 }
  - { offsetInCU: 0x381B5, offset: 0x202CC6, size: 0x8, addend: 0x0, symName: __ZN11JoltJoint3D18_body_exiting_treeEv, symObjAddr: 0x3434, symBinAddr: 0x144AD0, symSize: 0x138 }
  - { offsetInCU: 0x383F0, offset: 0x202F01, size: 0x8, addend: 0x0, symName: __ZNK11JoltJoint3D23_get_bindings_callbacksEv, symObjAddr: 0x3EE8, symBinAddr: 0x27F0D8, symSize: 0xC }
  - { offsetInCU: 0x38452, offset: 0x202F63, size: 0x8, addend: 0x0, symName: __ZN11JoltJoint3D14_notificationvEib, symObjAddr: 0x3EF4, symBinAddr: 0x4C1C0, symSize: 0xC }
  - { offsetInCU: 0x3849A, offset: 0x202FAB, size: 0x8, addend: 0x0, symName: __ZN11JoltJoint3D14_notificationvEib, symObjAddr: 0x3EF4, symBinAddr: 0x4C1C0, symSize: 0xC }
  - { offsetInCU: 0x384EA, offset: 0x202FFB, size: 0x8, addend: 0x0, symName: __ZN11JoltJoint3D10_configureEPN5godot13PhysicsBody3DES2_, symObjAddr: 0x3F00, symBinAddr: 0xA0484, symSize: 0x4 }
  - { offsetInCU: 0x3852B, offset: 0x20303C, size: 0x8, addend: 0x0, symName: __ZN11JoltJoint3D28_gde_binding_create_callbackEPvS0_, symObjAddr: 0x3F04, symBinAddr: 0x282C64, symSize: 0x8 }
  - { offsetInCU: 0x3855E, offset: 0x20306F, size: 0x8, addend: 0x0, symName: __ZN11JoltJoint3D26_gde_binding_free_callbackEPvS0_S0_, symObjAddr: 0x3F0C, symBinAddr: 0x14B7B0, symSize: 0x4 }
  - { offsetInCU: 0x3859D, offset: 0x2030AE, size: 0x8, addend: 0x0, symName: __ZN11JoltJoint3D31_gde_binding_reference_callbackEPvS0_h, symObjAddr: 0x3F10, symBinAddr: 0x288EA4, symSize: 0x8 }
  - { offsetInCU: 0x3877B, offset: 0x20328C, size: 0x8, addend: 0x0, symName: __ZNK5godot13MethodBindTRCINS_8NodePathEJEE17gen_argument_typeEi, symObjAddr: 0x46A0, symBinAddr: 0x28D308, symSize: 0x8 }
  - { offsetInCU: 0x387E6, offset: 0x2032F7, size: 0x8, addend: 0x0, symName: __ZNK5godot13MethodBindTRCINS_8NodePathEJEE22gen_argument_type_infoEi, symObjAddr: 0x46A8, symBinAddr: 0xA5EE4, symSize: 0x1CC }
  - { offsetInCU: 0x38D58, offset: 0x203869, size: 0x8, addend: 0x0, symName: __ZNK5godot13MethodBindTRCINS_8NodePathEJEE21get_argument_metadataEi, symObjAddr: 0x4874, symBinAddr: 0x2915BC, symSize: 0x8 }
  - { offsetInCU: 0x38DF8, offset: 0x203909, size: 0x8, addend: 0x0, symName: __ZNK5godot13MethodBindTRCINS_8NodePathEJEE4callEPvPKPKvxR20GDExtensionCallError, symObjAddr: 0x487C, symBinAddr: 0x155504, symSize: 0x148 }
  - { offsetInCU: 0x390D1, offset: 0x203BE2, size: 0x8, addend: 0x0, symName: __ZNK5godot13MethodBindTRCINS_8NodePathEJEE7ptrcallEPvPKPKvS3_, symObjAddr: 0x49C4, symBinAddr: 0x294940, symSize: 0xAC }
  - { offsetInCU: 0x39277, offset: 0x203D88, size: 0x8, addend: 0x0, symName: __ZN5godot13MethodBindTRCINS_8NodePathEJEED1Ev, symObjAddr: 0x4A70, symBinAddr: 0x157398, symSize: 0xE0 }
  - { offsetInCU: 0x39758, offset: 0x204269, size: 0x8, addend: 0x0, symName: __ZN5godot13MethodBindTRCINS_8NodePathEJEED0Ev, symObjAddr: 0x4B50, symBinAddr: 0x296938, symSize: 0xE0 }
  - { offsetInCU: 0x39CA7, offset: 0x2047B8, size: 0x8, addend: 0x0, symName: __ZNK5godot11MethodBindTIJRKNS_8NodePathEEE17gen_argument_typeEi, symObjAddr: 0x4EC0, symBinAddr: 0x15D9D4, symSize: 0x10 }
  - { offsetInCU: 0x39D13, offset: 0x204824, size: 0x8, addend: 0x0, symName: __ZNK5godot11MethodBindTIJRKNS_8NodePathEEE22gen_argument_type_infoEi, symObjAddr: 0x4ED0, symBinAddr: 0x2A3FF8, symSize: 0x32C }
  - { offsetInCU: 0x3A86C, offset: 0x20537D, size: 0x8, addend: 0x0, symName: __ZNK5godot11MethodBindTIJRKNS_8NodePathEEE21get_argument_metadataEi, symObjAddr: 0x51FC, symBinAddr: 0xAFE50, symSize: 0x8 }
  - { offsetInCU: 0x3A945, offset: 0x205456, size: 0x8, addend: 0x0, symName: __ZNK5godot11MethodBindTIJRKNS_8NodePathEEE4callEPvPKPKvxR20GDExtensionCallError, symObjAddr: 0x5204, symBinAddr: 0x2A9648, symSize: 0x288 }
  - { offsetInCU: 0x3AE82, offset: 0x205993, size: 0x8, addend: 0x0, symName: __ZNK5godot11MethodBindTIJRKNS_8NodePathEEE7ptrcallEPvPKPKvS5_, symObjAddr: 0x548C, symBinAddr: 0x2AAFA4, symSize: 0xA0 }
  - { offsetInCU: 0x3B037, offset: 0x205B48, size: 0x8, addend: 0x0, symName: __ZN5godot11MethodBindTIJRKNS_8NodePathEEED1Ev, symObjAddr: 0x552C, symBinAddr: 0xB2068, symSize: 0xE0 }
  - { offsetInCU: 0x3B518, offset: 0x206029, size: 0x8, addend: 0x0, symName: __ZN5godot11MethodBindTIJRKNS_8NodePathEEED0Ev, symObjAddr: 0x560C, symBinAddr: 0x2AE7E8, symSize: 0xE0 }
  - { offsetInCU: 0x3BA67, offset: 0x206578, size: 0x8, addend: 0x0, symName: __ZNK5godot13MethodBindTRCIiJEE17gen_argument_typeEi, symObjAddr: 0x5968, symBinAddr: 0x2B1164, symSize: 0x8 }
  - { offsetInCU: 0x3BA9E, offset: 0x2065AF, size: 0x8, addend: 0x0, symName: __ZNK5godot13MethodBindTRCIiJEE22gen_argument_type_infoEi, symObjAddr: 0x5970, symBinAddr: 0x2B24BC, symSize: 0x1CC }
  - { offsetInCU: 0x3C010, offset: 0x206B21, size: 0x8, addend: 0x0, symName: __ZNK5godot13MethodBindTRCIiJEE21get_argument_metadataEi, symObjAddr: 0x5B3C, symBinAddr: 0x2B33EC, symSize: 0xC }
  - { offsetInCU: 0x3C068, offset: 0x206B79, size: 0x8, addend: 0x0, symName: __ZNK5godot13MethodBindTRCIiJEE4callEPvPKPKvxR20GDExtensionCallError, symObjAddr: 0x5B48, symBinAddr: 0x2B4880, symSize: 0x13C }
  - { offsetInCU: 0x3C361, offset: 0x206E72, size: 0x8, addend: 0x0, symName: __ZNK5godot13MethodBindTRCIiJEE7ptrcallEPvPKPKvS2_, symObjAddr: 0x5C84, symBinAddr: 0x16C0DC, symSize: 0x3C }
  - { offsetInCU: 0x3C446, offset: 0x206F57, size: 0x8, addend: 0x0, symName: __ZN5godot13MethodBindTRCIiJEED1Ev, symObjAddr: 0x5CC0, symBinAddr: 0x16E5B4, symSize: 0xE0 }
  - { offsetInCU: 0x3C927, offset: 0x207438, size: 0x8, addend: 0x0, symName: __ZN5godot13MethodBindTRCIiJEED0Ev, symObjAddr: 0x5DA0, symBinAddr: 0x2BC518, symSize: 0xE0 }
  - { offsetInCU: 0x3CE76, offset: 0x207987, size: 0x8, addend: 0x0, symName: __ZNK5godot11MethodBindTIJiEE17gen_argument_typeEi, symObjAddr: 0x6110, symBinAddr: 0x2BF59C, symSize: 0x10 }
  - { offsetInCU: 0x3CEA8, offset: 0x2079B9, size: 0x8, addend: 0x0, symName: __ZNK5godot11MethodBindTIJiEE22gen_argument_type_infoEi, symObjAddr: 0x6120, symBinAddr: 0xBE260, symSize: 0x1B8 }
  - { offsetInCU: 0x3D45C, offset: 0x207F6D, size: 0x8, addend: 0x0, symName: __ZNK5godot11MethodBindTIJiEE21get_argument_metadataEi, symObjAddr: 0x62D8, symBinAddr: 0x2C26FC, symSize: 0x10 }
  - { offsetInCU: 0x3D490, offset: 0x207FA1, size: 0x8, addend: 0x0, symName: __ZNK5godot11MethodBindTIJiEE21get_argument_metadataEi, symObjAddr: 0x62D8, symBinAddr: 0x2C26FC, symSize: 0x10 }
  - { offsetInCU: 0x3D4C6, offset: 0x207FD7, size: 0x8, addend: 0x0, symName: __ZNK5godot11MethodBindTIJiEE21get_argument_metadataEi, symObjAddr: 0x62D8, symBinAddr: 0x2C26FC, symSize: 0x10 }
  - { offsetInCU: 0x3D52E, offset: 0x20803F, size: 0x8, addend: 0x0, symName: __ZNK5godot11MethodBindTIJiEE4callEPvPKPKvxR20GDExtensionCallError, symObjAddr: 0x62E8, symBinAddr: 0x175994, symSize: 0x274 }
  - { offsetInCU: 0x3DA1C, offset: 0x20852D, size: 0x8, addend: 0x0, symName: __ZNK5godot11MethodBindTIJiEE7ptrcallEPvPKPKvS2_, symObjAddr: 0x655C, symBinAddr: 0x2C6C78, symSize: 0x20 }
  - { offsetInCU: 0x3DB01, offset: 0x208612, size: 0x8, addend: 0x0, symName: __ZN5godot11MethodBindTIJiEED1Ev, symObjAddr: 0x657C, symBinAddr: 0xC1490, symSize: 0xE0 }
  - { offsetInCU: 0x3DFE2, offset: 0x208AF3, size: 0x8, addend: 0x0, symName: __ZN5godot11MethodBindTIJiEED0Ev, symObjAddr: 0x665C, symBinAddr: 0x2C8BF0, symSize: 0xE0 }
  - { offsetInCU: 0x3E4CF, offset: 0x208FE0, size: 0x8, addend: 0x0, symName: __ZNK5godot27CallableCustomMethodPointerI11JoltJoint3DJEE10get_objectEv, symObjAddr: 0x6984, symBinAddr: 0x2CE6F0, symSize: 0x8 }
  - { offsetInCU: 0x3E4F6, offset: 0x209007, size: 0x8, addend: 0x0, symName: __ZNK5godot27CallableCustomMethodPointerI11JoltJoint3DJEE18get_argument_countERb, symObjAddr: 0x698C, symBinAddr: 0xC4388, symSize: 0x10 }
  - { offsetInCU: 0x3E52B, offset: 0x20903C, size: 0x8, addend: 0x0, symName: __ZNK5godot27CallableCustomMethodPointerI11JoltJoint3DJEE4callEPPKNS_7VariantEiRS3_R20GDExtensionCallError, symObjAddr: 0x699C, symBinAddr: 0x2D63D0, symSize: 0x34 }
  - { offsetInCU: 0x3E5DC, offset: 0x2090ED, size: 0x8, addend: 0x0, symName: __ZN5godot27CallableCustomMethodPointerI11JoltJoint3DJEED1Ev, symObjAddr: 0x69D0, symBinAddr: 0x2EF864, symSize: 0x4 }
  - { offsetInCU: 0x3E607, offset: 0x209118, size: 0x8, addend: 0x0, symName: __ZN5godot27CallableCustomMethodPointerI11JoltJoint3DJEED0Ev, symObjAddr: 0x69D4, symBinAddr: 0x182574, symSize: 0x4 }
  - { offsetInCU: 0x1033E, offset: 0x21BE38, size: 0x8, addend: 0x0, symName: __ZSt28__throw_bad_array_new_lengthB7v160006v, symObjAddr: 0x2DD0, symBinAddr: 0x1B6050, symSize: 0xC }
  - { offsetInCU: 0x109B9, offset: 0x21C4B3, size: 0x8, addend: 0x0, symName: __ZN12_GLOBAL__N_113MATERIAL_NAMEE, symObjAddr: 0x4180, symBinAddr: 0x30A690, symSize: 0x0 }
  - { offsetInCU: 0x109D3, offset: 0x21C4CD, size: 0x8, addend: 0x0, symName: __ZN12_GLOBAL__N_118SETTING_NAME_COLORE, symObjAddr: 0x4186, symBinAddr: 0x304E52, symSize: 0x0 }
  - { offsetInCU: 0x10A9D, offset: 0x21C597, size: 0x8, addend: 0x0, symName: __ZN12_GLOBAL__N_119draw_angular_limitsEN5godot7Vector34AxisEbffRNS0_18PackedVector3ArrayE, symObjAddr: 0x24C0, symBinAddr: 0xDF2BC, symSize: 0x1B4 }
  - { offsetInCU: 0x10F52, offset: 0x21CA4C, size: 0x8, addend: 0x0, symName: __ZN12_GLOBAL__N_118draw_linear_limitsEN5godot7Vector34AxisEbffRNS0_18PackedVector3ArrayE, symObjAddr: 0x2674, symBinAddr: 0x6A5A4, symSize: 0x1C0 }
  - { offsetInCU: 0x1132A, offset: 0x21CE24, size: 0x8, addend: 0x0, symName: __ZN12_GLOBAL__N_116draw_g6dof_jointERK22JoltGeneric6DOFJoint3DRN5godot18PackedVector3ArrayE, symObjAddr: 0x20A0, symBinAddr: 0x69C84, symSize: 0x160 }
  - { offsetInCU: 0x1281D, offset: 0x21E317, size: 0x8, addend: 0x0, symName: __ZNK22JoltJointGizmoPlugin3D25_get_extension_class_nameEv, symObjAddr: 0x23E4, symBinAddr: 0x69F6C, symSize: 0xB4 }
  - { offsetInCU: 0x12841, offset: 0x21E33B, size: 0x8, addend: 0x0, symName: __ZZNK22JoltJointGizmoPlugin3D25_get_extension_class_nameEvE11string_name, symObjAddr: 0x4520, symBinAddr: 0x364030, symSize: 0x0 }
  - { offsetInCU: 0x128F3, offset: 0x21E3ED, size: 0x8, addend: 0x0, symName: __ZN22JoltJointGizmoPlugin3D16get_class_staticEv, symObjAddr: 0x2B4C, symBinAddr: 0x6A934, symSize: 0x8C }
  - { offsetInCU: 0x12913, offset: 0x21E40D, size: 0x8, addend: 0x0, symName: __ZZN22JoltJointGizmoPlugin3D16get_class_staticEvE11string_name, symObjAddr: 0x4530, symBinAddr: 0x3623F8, symSize: 0x0 }
  - { offsetInCU: 0x1298E, offset: 0x21E488, size: 0x8, addend: 0x0, symName: __ZN22JoltJointGizmoPlugin3D22_gde_binding_callbacksE, symObjAddr: 0x40E8, symBinAddr: 0x35F820, symSize: 0x0 }
  - { offsetInCU: 0x1514C, offset: 0x220C46, size: 0x8, addend: 0x0, symName: __ZNK22JoltJointGizmoPlugin3D10_has_gizmoEPN5godot6Node3DE, symObjAddr: 0xD4, symBinAddr: 0x6840C, symSize: 0x20 }
  - { offsetInCU: 0x15182, offset: 0x220C7C, size: 0x8, addend: 0x0, symName: __ZN5godot6Object7cast_toI11JoltJoint3DEEPT_PS0_, symObjAddr: 0xF4, symBinAddr: 0x68488, symSize: 0x210 }
  - { offsetInCU: 0x15C12, offset: 0x22170C, size: 0x8, addend: 0x0, symName: __ZNK22JoltJointGizmoPlugin3D13_create_gizmoEPN5godot6Node3DE, symObjAddr: 0x304, symBinAddr: 0x68698, symSize: 0x69C }
  - { offsetInCU: 0x169E9, offset: 0x2224E3, size: 0x8, addend: 0x0, symName: __ZNK22JoltJointGizmoPlugin3D15_get_gizmo_nameEv, symObjAddr: 0x9A0, symBinAddr: 0x69B60, symSize: 0x1C }
  - { offsetInCU: 0x169F4, offset: 0x2224EE, size: 0x8, addend: 0x0, symName: __ZNK22JoltJointGizmoPlugin3D15_get_gizmo_nameEv, symObjAddr: 0x9A0, symBinAddr: 0x69B60, symSize: 0x1C }
  - { offsetInCU: 0x16EB8, offset: 0x2229B2, size: 0x8, addend: 0x0, symName: __ZN22JoltJointGizmoPlugin3D7_redrawERKN5godot3RefINS0_17EditorNode3DGizmoEEE, symObjAddr: 0x9BC, symBinAddr: 0xDA7A8, symSize: 0xD7C }
  - { offsetInCU: 0x18A9E, offset: 0x224598, size: 0x8, addend: 0x0, symName: __ZN5godot6Object7cast_toI22JoltGeneric6DOFJoint3DEEPT_PS0_, symObjAddr: 0x1E94, symBinAddr: 0x1B16D0, symSize: 0x20C }
  - { offsetInCU: 0x18D64, offset: 0x22485E, size: 0x8, addend: 0x0, symName: __ZN22JoltJointGizmoPlugin3D17_create_materialsEv, symObjAddr: 0x1738, symBinAddr: 0xFB8C, symSize: 0x13C }
  - { offsetInCU: 0x1903B, offset: 0x224B35, size: 0x8, addend: 0x0, symName: __ZN22JoltJointGizmoPlugin3D20_create_redraw_timerERKN5godot3RefINS0_17EditorNode3DGizmoEEE, symObjAddr: 0x1874, symBinAddr: 0x694F4, symSize: 0x620 }
  - { offsetInCU: 0x1A1B0, offset: 0x225CAA, size: 0x8, addend: 0x0, symName: __ZN22JoltJointGizmoPlugin3D14_redraw_gizmosEv, symObjAddr: 0x2200, symBinAddr: 0xDE6B4, symSize: 0x1E4 }
  - { offsetInCU: 0x1A9AF, offset: 0x2264A9, size: 0x8, addend: 0x0, symName: __ZNK22JoltJointGizmoPlugin3D23_get_bindings_callbacksEv, symObjAddr: 0x2498, symBinAddr: 0xDB524, symSize: 0xC }
  - { offsetInCU: 0x1A9D6, offset: 0x2264D0, size: 0x8, addend: 0x0, symName: __ZN22JoltJointGizmoPlugin3D14_notificationvEib, symObjAddr: 0x24A4, symBinAddr: 0x6A1A4, symSize: 0x4 }
  - { offsetInCU: 0x1AA1C, offset: 0x226516, size: 0x8, addend: 0x0, symName: __ZN22JoltJointGizmoPlugin3DD1Ev, symObjAddr: 0x24A8, symBinAddr: 0x312A4, symSize: 0x4 }
  - { offsetInCU: 0x1AA3F, offset: 0x226539, size: 0x8, addend: 0x0, symName: __ZN22JoltJointGizmoPlugin3DD1Ev, symObjAddr: 0x24A8, symBinAddr: 0x312A4, symSize: 0x4 }
  - { offsetInCU: 0x1AA4A, offset: 0x226544, size: 0x8, addend: 0x0, symName: __ZN22JoltJointGizmoPlugin3DD2Ev, symObjAddr: 0x2BEC, symBinAddr: 0x6AFA4, symSize: 0x1E4 }
  - { offsetInCU: 0x1B2B4, offset: 0x226DAE, size: 0x8, addend: 0x0, symName: __ZN22JoltJointGizmoPlugin3DD0Ev, symObjAddr: 0x24AC, symBinAddr: 0x6A37C, symSize: 0x14 }
  - { offsetInCU: 0x1B388, offset: 0x226E82, size: 0x8, addend: 0x0, symName: '__ZZN12_GLOBAL__N_118draw_linear_limitsEN5godot7Vector34AxisEbffRNS0_18PackedVector3ArrayEENK3$_3clEf', symObjAddr: 0x2834, symBinAddr: 0x1B18DC, symSize: 0x318 }
  - { offsetInCU: 0x1B8D3, offset: 0x2273CD, size: 0x8, addend: 0x0, symName: __ZN22JoltJointGizmoPlugin3D28_gde_binding_create_callbackEPvS0_, symObjAddr: 0x2BD8, symBinAddr: 0xE058C, symSize: 0x8 }
  - { offsetInCU: 0x1B906, offset: 0x227400, size: 0x8, addend: 0x0, symName: __ZN22JoltJointGizmoPlugin3D26_gde_binding_free_callbackEPvS0_S0_, symObjAddr: 0x2BE0, symBinAddr: 0x6AAF0, symSize: 0x4 }
  - { offsetInCU: 0x1B945, offset: 0x22743F, size: 0x8, addend: 0x0, symName: __ZN22JoltJointGizmoPlugin3D31_gde_binding_reference_callbackEPvS0_h, symObjAddr: 0x2BE4, symBinAddr: 0xE0FB4, symSize: 0x8 }
  - { offsetInCU: 0x1BC95, offset: 0x22778F, size: 0x8, addend: 0x0, symName: __ZNK5godot27CallableCustomMethodPointerI22JoltJointGizmoPlugin3DJEE10get_objectEv, symObjAddr: 0x2DDC, symBinAddr: 0x6B314, symSize: 0x8 }
  - { offsetInCU: 0x1BCBC, offset: 0x2277B6, size: 0x8, addend: 0x0, symName: __ZNK5godot27CallableCustomMethodPointerI22JoltJointGizmoPlugin3DJEE18get_argument_countERb, symObjAddr: 0x2DE4, symBinAddr: 0x1B6C20, symSize: 0x10 }
  - { offsetInCU: 0x1BCED, offset: 0x2277E7, size: 0x8, addend: 0x0, symName: __ZNK5godot27CallableCustomMethodPointerI22JoltJointGizmoPlugin3DJEE4callEPPKNS_7VariantEiRS3_R20GDExtensionCallError, symObjAddr: 0x2DF4, symBinAddr: 0x6B4EC, symSize: 0x34 }
  - { offsetInCU: 0x1BD98, offset: 0x227892, size: 0x8, addend: 0x0, symName: __ZN5godot27CallableCustomMethodPointerI22JoltJointGizmoPlugin3DJEED1Ev, symObjAddr: 0x2E28, symBinAddr: 0x6BA20, symSize: 0x4 }
  - { offsetInCU: 0x1BDC3, offset: 0x2278BD, size: 0x8, addend: 0x0, symName: __ZN5godot27CallableCustomMethodPointerI22JoltJointGizmoPlugin3DJEED0Ev, symObjAddr: 0x2E2C, symBinAddr: 0x6B874, symSize: 0x4 }
  - { offsetInCU: 0x6404, offset: 0x22E736, size: 0x8, addend: 0x0, symName: __ZN5godot7vformatIJNS_6StringES1_EEES1_RKS1_DpKT_, symObjAddr: 0xE44, symBinAddr: 0x1F7CB0, symSize: 0x230 }
  - { offsetInCU: 0x16EFB, offset: 0x23F22D, size: 0x8, addend: 0x0, symName: __ZN15JoltJointImpl3DC2ERKS_P14JoltBodyImpl3DS3_RKN5godot11Transform3DES7_, symObjAddr: 0x0, symBinAddr: 0x752DC, symSize: 0x160 }
  - { offsetInCU: 0x17161, offset: 0x23F493, size: 0x8, addend: 0x0, symName: __ZN15JoltJointImpl3DD2Ev, symObjAddr: 0x160, symBinAddr: 0x1F0970, symSize: 0x2A0 }
  - { offsetInCU: 0x17E5B, offset: 0x24018D, size: 0x8, addend: 0x0, symName: __ZNK15JoltJointImpl3D9get_spaceEv, symObjAddr: 0x56C, symBinAddr: 0x75CB8, symSize: 0x114 }
  - { offsetInCU: 0x1801B, offset: 0x24034D, size: 0x8, addend: 0x0, symName: __ZN15JoltJointImpl3DD1Ev, symObjAddr: 0x554, symBinAddr: 0xFE11C, symSize: 0x4 }
  - { offsetInCU: 0x1803E, offset: 0x240370, size: 0x8, addend: 0x0, symName: __ZN15JoltJointImpl3DD1Ev, symObjAddr: 0x554, symBinAddr: 0xFE11C, symSize: 0x4 }
  - { offsetInCU: 0x18065, offset: 0x240397, size: 0x8, addend: 0x0, symName: __ZN15JoltJointImpl3DD0Ev, symObjAddr: 0x558, symBinAddr: 0x1F2664, symSize: 0x14 }
  - { offsetInCU: 0x180D5, offset: 0x240407, size: 0x8, addend: 0x0, symName: __ZNK15JoltJointImpl3D17_bodies_to_stringEv, symObjAddr: 0x680, symBinAddr: 0x1F3C7C, symSize: 0x110 }
  - { offsetInCU: 0x182ED, offset: 0x24061F, size: 0x8, addend: 0x0, symName: __ZN15JoltJointImpl3D19set_solver_priorityEi, symObjAddr: 0x7B8, symBinAddr: 0x100490, symSize: 0x178 }
  - { offsetInCU: 0x18754, offset: 0x240A86, size: 0x8, addend: 0x0, symName: __ZN15JoltJointImpl3D22set_collision_disabledEb, symObjAddr: 0x980, symBinAddr: 0x1F61F8, symSize: 0x278 }
  - { offsetInCU: 0x19069, offset: 0x24139B, size: 0x8, addend: 0x0, symName: __ZN15JoltJointImpl3D23_shift_reference_framesERKN5godot7Vector3ES3_RNS0_11Transform3DES5_, symObjAddr: 0xBF8, symBinAddr: 0x76794, symSize: 0x220 }
  - { offsetInCU: 0x195E3, offset: 0x241915, size: 0x8, addend: 0x0, symName: __ZNK15JoltJointImpl3D8get_typeEv, symObjAddr: 0x1074, symBinAddr: 0x101568, symSize: 0x8 }
  - { offsetInCU: 0x1960A, offset: 0x24193C, size: 0x8, addend: 0x0, symName: __ZN15JoltJointImpl3D7rebuildEv, symObjAddr: 0x107C, symBinAddr: 0x76CF8, symSize: 0x4 }
  - { offsetInCU: 0x6014, offset: 0x248CF7, size: 0x8, addend: 0x0, symName: __ZN5godot18create_method_bindI14JoltPinJoint3DfJEEEPNS_10MethodBindEMT_KFT0_DpT1_E, symObjAddr: 0x6F8, symBinAddr: 0x222FA4, symSize: 0x27C }
  - { offsetInCU: 0x2289A, offset: 0x26557D, size: 0x8, addend: 0x0, symName: __ZNK14JoltPinJoint3D25_get_extension_class_nameEv, symObjAddr: 0x574, symBinAddr: 0x1173C8, symSize: 0xB4 }
  - { offsetInCU: 0x228BE, offset: 0x2655A1, size: 0x8, addend: 0x0, symName: __ZZNK14JoltPinJoint3D25_get_extension_class_nameEvE11string_name, symObjAddr: 0x1C50, symBinAddr: 0x362398, symSize: 0x0 }
  - { offsetInCU: 0x22970, offset: 0x265653, size: 0x8, addend: 0x0, symName: __ZN14JoltPinJoint3D16get_class_staticEv, symObjAddr: 0x658, symBinAddr: 0x117F94, symSize: 0x8C }
  - { offsetInCU: 0x22A0C, offset: 0x2656EF, size: 0x8, addend: 0x0, symName: __ZN14JoltPinJoint3D22_gde_binding_callbacksE, symObjAddr: 0x1C08, symBinAddr: 0x35F930, symSize: 0x0 }
  - { offsetInCU: 0x23908, offset: 0x2665EB, size: 0x8, addend: 0x0, symName: __ZN14JoltPinJoint3D13_bind_methodsEv, symObjAddr: 0x0, symBinAddr: 0x21BE40, symSize: 0x18C }
  - { offsetInCU: 0x23FFC, offset: 0x266CDF, size: 0x8, addend: 0x0, symName: __ZNK14JoltPinJoint3D17get_applied_forceEv, symObjAddr: 0x18C, symBinAddr: 0x7E2EC, symSize: 0x288 }
  - { offsetInCU: 0x2425D, offset: 0x266F40, size: 0x8, addend: 0x0, symName: __ZN14JoltPinJoint3D10_configureEPN5godot13PhysicsBody3DES2_, symObjAddr: 0x414, symBinAddr: 0x21DA88, symSize: 0x160 }
  - { offsetInCU: 0x24388, offset: 0x26706B, size: 0x8, addend: 0x0, symName: __ZNK14JoltPinJoint3D23_get_bindings_callbacksEv, symObjAddr: 0x628, symBinAddr: 0x21F050, symSize: 0xC }
  - { offsetInCU: 0x243EA, offset: 0x2670CD, size: 0x8, addend: 0x0, symName: __ZN14JoltPinJoint3D14_notificationvEib, symObjAddr: 0x634, symBinAddr: 0x7EC28, symSize: 0xC }
  - { offsetInCU: 0x24433, offset: 0x267116, size: 0x8, addend: 0x0, symName: __ZN14JoltPinJoint3D14_notificationvEib, symObjAddr: 0x634, symBinAddr: 0x7EC28, symSize: 0xC }
  - { offsetInCU: 0x2447B, offset: 0x26715E, size: 0x8, addend: 0x0, symName: __ZN14JoltPinJoint3DD1Ev, symObjAddr: 0x640, symBinAddr: 0x21FF34, symSize: 0x4 }
  - { offsetInCU: 0x2449E, offset: 0x267181, size: 0x8, addend: 0x0, symName: __ZN14JoltPinJoint3DD1Ev, symObjAddr: 0x640, symBinAddr: 0x21FF34, symSize: 0x4 }
  - { offsetInCU: 0x244D3, offset: 0x2671B6, size: 0x8, addend: 0x0, symName: __ZN14JoltPinJoint3DD0Ev, symObjAddr: 0x644, symBinAddr: 0x117DB0, symSize: 0x14 }
  - { offsetInCU: 0x24536, offset: 0x267219, size: 0x8, addend: 0x0, symName: __ZN14JoltPinJoint3D28_gde_binding_create_callbackEPvS0_, symObjAddr: 0x6E4, symBinAddr: 0x221740, symSize: 0x8 }
  - { offsetInCU: 0x24569, offset: 0x26724C, size: 0x8, addend: 0x0, symName: __ZN14JoltPinJoint3D26_gde_binding_free_callbackEPvS0_S0_, symObjAddr: 0x6EC, symBinAddr: 0x221E40, symSize: 0x4 }
  - { offsetInCU: 0x245A8, offset: 0x26728B, size: 0x8, addend: 0x0, symName: __ZN14JoltPinJoint3D31_gde_binding_reference_callbackEPvS0_h, symObjAddr: 0x6F0, symBinAddr: 0x1186D4, symSize: 0x8 }
  - { offsetInCU: 0x4532, offset: 0x26D11D, size: 0x8, addend: 0x0, symName: __ZN5godot7vformatIJNS_15PhysicsServer3D13PinJointParamEEEENS_6StringERKS3_DpKT_, symObjAddr: 0x914, symBinAddr: 0x128C4C, symSize: 0x1A8 }
  - { offsetInCU: 0x1834B, offset: 0x280F36, size: 0x8, addend: 0x0, symName: __ZN18JoltPinJointImpl3D7rebuildEv, symObjAddr: 0x0, symBinAddr: 0x879A0, symSize: 0x698 }
  - { offsetInCU: 0x1AB33, offset: 0x28371E, size: 0x8, addend: 0x0, symName: __ZN18JoltPinJointImpl3DC1ERK15JoltJointImpl3DP14JoltBodyImpl3DS4_RKN5godot7Vector3ES8_, symObjAddr: 0x698, symBinAddr: 0x24505C, symSize: 0x90 }
  - { offsetInCU: 0x1AE4F, offset: 0x283A3A, size: 0x8, addend: 0x0, symName: __ZNK18JoltPinJointImpl3D9get_paramEN5godot15PhysicsServer3D13PinJointParamE, symObjAddr: 0x798, symBinAddr: 0x245604, symSize: 0x17C }
  - { offsetInCU: 0x1B2B7, offset: 0x283EA2, size: 0x8, addend: 0x0, symName: __ZN18JoltPinJointImpl3D9set_paramEN5godot15PhysicsServer3D13PinJointParamEd, symObjAddr: 0xABC, symBinAddr: 0x246D40, symSize: 0x490 }
  - { offsetInCU: 0x1C3AD, offset: 0x284F98, size: 0x8, addend: 0x0, symName: __ZN18JoltPinJointImpl3DD1Ev, symObjAddr: 0x1004, symBinAddr: 0x88C00, symSize: 0x4 }
  - { offsetInCU: 0x1C3D0, offset: 0x284FBB, size: 0x8, addend: 0x0, symName: __ZN18JoltPinJointImpl3DD1Ev, symObjAddr: 0x1004, symBinAddr: 0x88C00, symSize: 0x4 }
  - { offsetInCU: 0x1C407, offset: 0x284FF2, size: 0x8, addend: 0x0, symName: __ZN18JoltPinJointImpl3DD0Ev, symObjAddr: 0x1008, symBinAddr: 0x247CB8, symSize: 0x14 }
  - { offsetInCU: 0x1C46D, offset: 0x285058, size: 0x8, addend: 0x0, symName: __ZNK18JoltPinJointImpl3D8get_typeEv, symObjAddr: 0x101C, symBinAddr: 0x129F8C, symSize: 0x8 }
  - { offsetInCU: 0x8682, offset: 0x28F479, size: 0x8, addend: 0x0, symName: __ZN5godot18create_method_bindI17JoltSliderJoint3DbJEEEPNS_10MethodBindEMT_KFT0_DpT1_E, symObjAddr: 0x4D34, symBinAddr: 0xA5314, symSize: 0x27C }
  - { offsetInCU: 0x8C76, offset: 0x28FA6D, size: 0x8, addend: 0x0, symName: __ZN5godot18create_method_bindI17JoltSliderJoint3DJbEEEPNS_10MethodBindEMT_FvDpT0_E, symObjAddr: 0x4FB0, symBinAddr: 0x28D050, symSize: 0x290 }
  - { offsetInCU: 0x924D, offset: 0x290044, size: 0x8, addend: 0x0, symName: __ZN5godot18create_method_bindI17JoltSliderJoint3DdJEEEPNS_10MethodBindEMT_KFT0_DpT1_E, symObjAddr: 0x5240, symBinAddr: 0x28D318, symSize: 0x27C }
  - { offsetInCU: 0x9841, offset: 0x290638, size: 0x8, addend: 0x0, symName: __ZN5godot18create_method_bindI17JoltSliderJoint3DJdEEEPNS_10MethodBindEMT_FvDpT0_E, symObjAddr: 0x54BC, symBinAddr: 0x28ED58, symSize: 0x290 }
  - { offsetInCU: 0x9E18, offset: 0x290C0F, size: 0x8, addend: 0x0, symName: __ZN5godot18create_method_bindI17JoltSliderJoint3DfJEEEPNS_10MethodBindEMT_KFT0_DpT1_E, symObjAddr: 0x574C, symBinAddr: 0x28F418, symSize: 0x27C }
  - { offsetInCU: 0x26E05, offset: 0x2ADBFC, size: 0x8, addend: 0x0, symName: __ZN17JoltSliderJoint3D16get_class_staticEv, symObjAddr: 0x445C, symBinAddr: 0x282DF8, symSize: 0x8C }
  - { offsetInCU: 0x26E9B, offset: 0x2ADC92, size: 0x8, addend: 0x0, symName: __ZNK17JoltSliderJoint3D25_get_extension_class_nameEv, symObjAddr: 0x4C3C, symBinAddr: 0x285354, symSize: 0xB4 }
  - { offsetInCU: 0x26EBF, offset: 0x2ADCB6, size: 0x8, addend: 0x0, symName: __ZZNK17JoltSliderJoint3D25_get_extension_class_nameEvE11string_name, symObjAddr: 0x6FA0, symBinAddr: 0x362378, symSize: 0x0 }
  - { offsetInCU: 0x26F77, offset: 0x2ADD6E, size: 0x8, addend: 0x0, symName: __ZN17JoltSliderJoint3D22_gde_binding_callbacksE, symObjAddr: 0x6F70, symBinAddr: 0x339EF8, symSize: 0x0 }
  - { offsetInCU: 0x2817D, offset: 0x2AEF74, size: 0x8, addend: 0x0, symName: __ZN17JoltSliderJoint3D13_bind_methodsEv, symObjAddr: 0x0, symBinAddr: 0x140AFC, symSize: 0x2AEC }
  - { offsetInCU: 0x35BEC, offset: 0x2BC9E3, size: 0x8, addend: 0x0, symName: __ZNK17JoltSliderJoint3D17get_limit_enabledEv, symObjAddr: 0x2AEC, symBinAddr: 0x274228, symSize: 0x8 }
  - { offsetInCU: 0x35C90, offset: 0x2BCA87, size: 0x8, addend: 0x0, symName: __ZN17JoltSliderJoint3D17set_limit_enabledEb, symObjAddr: 0x2AF4, symBinAddr: 0x9CEC0, symSize: 0x2B8 }
  - { offsetInCU: 0x35F52, offset: 0x2BCD49, size: 0x8, addend: 0x0, symName: __ZNK17JoltSliderJoint3D15get_limit_upperEv, symObjAddr: 0x2DAC, symBinAddr: 0x27551C, symSize: 0x8 }
  - { offsetInCU: 0x35FD9, offset: 0x2BCDD0, size: 0x8, addend: 0x0, symName: __ZN17JoltSliderJoint3D15set_limit_upperEd, symObjAddr: 0x2DB4, symBinAddr: 0x144654, symSize: 0x88 }
  - { offsetInCU: 0x360DD, offset: 0x2BCED4, size: 0x8, addend: 0x0, symName: __ZNK17JoltSliderJoint3D15get_limit_lowerEv, symObjAddr: 0x2E3C, symBinAddr: 0x2771D8, symSize: 0x8 }
  - { offsetInCU: 0x36102, offset: 0x2BCEF9, size: 0x8, addend: 0x0, symName: __ZN17JoltSliderJoint3D15set_limit_lowerEd, symObjAddr: 0x2E44, symBinAddr: 0x9DCB4, symSize: 0x88 }
  - { offsetInCU: 0x36206, offset: 0x2BCFFD, size: 0x8, addend: 0x0, symName: __ZNK17JoltSliderJoint3D24get_limit_spring_enabledEv, symObjAddr: 0x2ECC, symBinAddr: 0x278B9C, symSize: 0x8 }
  - { offsetInCU: 0x3622D, offset: 0x2BD024, size: 0x8, addend: 0x0, symName: __ZN17JoltSliderJoint3D24set_limit_spring_enabledEb, symObjAddr: 0x2ED4, symBinAddr: 0x145220, symSize: 0x2B8 }
  - { offsetInCU: 0x364EF, offset: 0x2BD2E6, size: 0x8, addend: 0x0, symName: __ZNK17JoltSliderJoint3D26get_limit_spring_frequencyEv, symObjAddr: 0x318C, symBinAddr: 0x27A8D4, symSize: 0x8 }
  - { offsetInCU: 0x36550, offset: 0x2BD347, size: 0x8, addend: 0x0, symName: __ZN17JoltSliderJoint3D26set_limit_spring_frequencyEd, symObjAddr: 0x3194, symBinAddr: 0x9E6FC, symSize: 0x2B8 }
  - { offsetInCU: 0x36812, offset: 0x2BD609, size: 0x8, addend: 0x0, symName: __ZNK17JoltSliderJoint3D24get_limit_spring_dampingEv, symObjAddr: 0x344C, symBinAddr: 0x27BC0C, symSize: 0x8 }
  - { offsetInCU: 0x36837, offset: 0x2BD62E, size: 0x8, addend: 0x0, symName: __ZN17JoltSliderJoint3D24set_limit_spring_dampingEd, symObjAddr: 0x3454, symBinAddr: 0x146700, symSize: 0x2B8 }
  - { offsetInCU: 0x36AF9, offset: 0x2BD8F0, size: 0x8, addend: 0x0, symName: __ZNK17JoltSliderJoint3D17get_motor_enabledEv, symObjAddr: 0x370C, symBinAddr: 0x27D4E0, symSize: 0x8 }
  - { offsetInCU: 0x36B20, offset: 0x2BD917, size: 0x8, addend: 0x0, symName: __ZN17JoltSliderJoint3D17set_motor_enabledEb, symObjAddr: 0x3714, symBinAddr: 0x9F2F0, symSize: 0x2B8 }
  - { offsetInCU: 0x36DE2, offset: 0x2BDBD9, size: 0x8, addend: 0x0, symName: __ZNK17JoltSliderJoint3D25get_motor_target_velocityEv, symObjAddr: 0x39CC, symBinAddr: 0x27E5B0, symSize: 0x8 }
  - { offsetInCU: 0x36E07, offset: 0x2BDBFE, size: 0x8, addend: 0x0, symName: __ZN17JoltSliderJoint3D25set_motor_target_velocityEd, symObjAddr: 0x39D4, symBinAddr: 0x147A60, symSize: 0x2B8 }
  - { offsetInCU: 0x370C9, offset: 0x2BDEC0, size: 0x8, addend: 0x0, symName: __ZNK17JoltSliderJoint3D19get_motor_max_forceEv, symObjAddr: 0x3C8C, symBinAddr: 0x27F9A8, symSize: 0x8 }
  - { offsetInCU: 0x370EE, offset: 0x2BDEE5, size: 0x8, addend: 0x0, symName: __ZN17JoltSliderJoint3D19set_motor_max_forceEd, symObjAddr: 0x3C94, symBinAddr: 0x280484, symSize: 0x2B8 }
  - { offsetInCU: 0x373B0, offset: 0x2BE1A7, size: 0x8, addend: 0x0, symName: __ZNK17JoltSliderJoint3D17get_applied_forceEv, symObjAddr: 0x3F4C, symBinAddr: 0x4C5B0, symSize: 0x288 }
  - { offsetInCU: 0x37611, offset: 0x2BE408, size: 0x8, addend: 0x0, symName: __ZNK17JoltSliderJoint3D18get_applied_torqueEv, symObjAddr: 0x41D4, symBinAddr: 0x2824EC, symSize: 0x288 }
  - { offsetInCU: 0x37872, offset: 0x2BE669, size: 0x8, addend: 0x0, symName: __ZN17JoltSliderJoint3D10_configureEPN5godot13PhysicsBody3DES2_, symObjAddr: 0x44E8, symBinAddr: 0x284544, symSize: 0x754 }
  - { offsetInCU: 0x38134, offset: 0x2BEF2B, size: 0x8, addend: 0x0, symName: __ZNK17JoltSliderJoint3D23_get_bindings_callbacksEv, symObjAddr: 0x4CF0, symBinAddr: 0x2866C4, symSize: 0xC }
  - { offsetInCU: 0x38196, offset: 0x2BEF8D, size: 0x8, addend: 0x0, symName: __ZN17JoltSliderJoint3D14_notificationvEib, symObjAddr: 0x4CFC, symBinAddr: 0x14DE1C, symSize: 0xC }
  - { offsetInCU: 0x381DF, offset: 0x2BEFD6, size: 0x8, addend: 0x0, symName: __ZN17JoltSliderJoint3D14_notificationvEib, symObjAddr: 0x4CFC, symBinAddr: 0x14DE1C, symSize: 0xC }
  - { offsetInCU: 0x38227, offset: 0x2BF01E, size: 0x8, addend: 0x0, symName: __ZN17JoltSliderJoint3DD1Ev, symObjAddr: 0x4D08, symBinAddr: 0x289930, symSize: 0x4 }
  - { offsetInCU: 0x3824A, offset: 0x2BF041, size: 0x8, addend: 0x0, symName: __ZN17JoltSliderJoint3DD1Ev, symObjAddr: 0x4D08, symBinAddr: 0x289930, symSize: 0x4 }
  - { offsetInCU: 0x3827F, offset: 0x2BF076, size: 0x8, addend: 0x0, symName: __ZN17JoltSliderJoint3DD0Ev, symObjAddr: 0x4D0C, symBinAddr: 0x2A454, symSize: 0x14 }
  - { offsetInCU: 0x382E2, offset: 0x2BF0D9, size: 0x8, addend: 0x0, symName: __ZN17JoltSliderJoint3D28_gde_binding_create_callbackEPvS0_, symObjAddr: 0x4D20, symBinAddr: 0x28ADA0, symSize: 0x8 }
  - { offsetInCU: 0x38315, offset: 0x2BF10C, size: 0x8, addend: 0x0, symName: __ZN17JoltSliderJoint3D26_gde_binding_free_callbackEPvS0_S0_, symObjAddr: 0x4D28, symBinAddr: 0x14FEEC, symSize: 0x4 }
  - { offsetInCU: 0x38354, offset: 0x2BF14B, size: 0x8, addend: 0x0, symName: __ZN17JoltSliderJoint3D31_gde_binding_reference_callbackEPvS0_h, symObjAddr: 0x4D2C, symBinAddr: 0x28BFF8, symSize: 0x8 }
  - { offsetInCU: 0x3F92, offset: 0x2C4FB2, size: 0x8, addend: 0x0, symName: __ZN5godot7vformatIJNS_15PhysicsServer3D16SliderJointParamEEEENS_6StringERKS3_DpKT_, symObjAddr: 0xC50, symBinAddr: 0x2CF964, symSize: 0x1A8 }
  - { offsetInCU: 0x452E, offset: 0x2C554E, size: 0x8, addend: 0x0, symName: __ZN5godot7vformatIJN19JoltPhysicsServer3D20SliderJointParamJoltEEEENS_6StringERKS3_DpKT_, symObjAddr: 0x1EFC, symBinAddr: 0x2D5880, symSize: 0x1A8 }
  - { offsetInCU: 0x4A22, offset: 0x2C5A42, size: 0x8, addend: 0x0, symName: __ZN5godot7vformatIJN19JoltPhysicsServer3D19SliderJointFlagJoltEEEENS_6StringERKS3_DpKT_, symObjAddr: 0x2490, symBinAddr: 0x182120, symSize: 0x1A8 }
  - { offsetInCU: 0x1AA49, offset: 0x2DBA69, size: 0x8, addend: 0x0, symName: __ZN21JoltSliderJointImpl3D7rebuildEv, symObjAddr: 0x0, symBinAddr: 0x2CC840, symSize: 0xA54 }
  - { offsetInCU: 0x1DCBD, offset: 0x2DECDD, size: 0x8, addend: 0x0, symName: __ZN21JoltSliderJointImpl3DC1ERK15JoltJointImpl3DP14JoltBodyImpl3DS4_RKN5godot11Transform3DES8_, symObjAddr: 0xA54, symBinAddr: 0x2CE41C, symSize: 0x50 }
  - { offsetInCU: 0x1DD91, offset: 0x2DEDB1, size: 0x8, addend: 0x0, symName: __ZNK21JoltSliderJointImpl3D9get_paramEN5godot15PhysicsServer3D16SliderJointParamE, symObjAddr: 0xAA4, symBinAddr: 0x17C0A4, symSize: 0x1AC }
  - { offsetInCU: 0x1E1F8, offset: 0x2DF218, size: 0x8, addend: 0x0, symName: __ZN21JoltSliderJointImpl3D9set_paramEN5godot15PhysicsServer3D16SliderJointParamEd, symObjAddr: 0xDF8, symBinAddr: 0x5E098, symSize: 0xF5C }
  - { offsetInCU: 0x204E0, offset: 0x2E1500, size: 0x8, addend: 0x0, symName: __ZNK21JoltSliderJointImpl3D14get_jolt_paramEN19JoltPhysicsServer3D20SliderJointParamJoltE, symObjAddr: 0x1D54, symBinAddr: 0x2D12F4, symSize: 0x1A8 }
  - { offsetInCU: 0x20948, offset: 0x2E1968, size: 0x8, addend: 0x0, symName: __ZN21JoltSliderJointImpl3D14set_jolt_paramEN19JoltPhysicsServer3D20SliderJointParamJoltEd, symObjAddr: 0x20A4, symBinAddr: 0x181B2C, symSize: 0x23C }
  - { offsetInCU: 0x20F07, offset: 0x2E1F27, size: 0x8, addend: 0x0, symName: __ZNK21JoltSliderJointImpl3D13get_jolt_flagEN19JoltPhysicsServer3D19SliderJointFlagJoltE, symObjAddr: 0x22E0, symBinAddr: 0x2D68A0, symSize: 0x1B0 }
  - { offsetInCU: 0x21344, offset: 0x2E2364, size: 0x8, addend: 0x0, symName: __ZN21JoltSliderJointImpl3D13set_jolt_flagEN19JoltPhysicsServer3D19SliderJointFlagJoltEb, symObjAddr: 0x2638, symBinAddr: 0x2EFC98, symSize: 0x1E8 }
  - { offsetInCU: 0x21866, offset: 0x2E2886, size: 0x8, addend: 0x0, symName: __ZN21JoltSliderJointImpl3DD1Ev, symObjAddr: 0x2A28, symBinAddr: 0xC5498, symSize: 0x4 }
  - { offsetInCU: 0x21889, offset: 0x2E28A9, size: 0x8, addend: 0x0, symName: __ZN21JoltSliderJointImpl3DD1Ev, symObjAddr: 0x2A28, symBinAddr: 0xC5498, symSize: 0x4 }
  - { offsetInCU: 0x218C0, offset: 0x2E28E0, size: 0x8, addend: 0x0, symName: __ZN21JoltSliderJointImpl3DD0Ev, symObjAddr: 0x2A2C, symBinAddr: 0x2F0BE0, symSize: 0x14 }
  - { offsetInCU: 0x21926, offset: 0x2E2946, size: 0x8, addend: 0x0, symName: __ZNK21JoltSliderJointImpl3D8get_typeEv, symObjAddr: 0x2A40, symBinAddr: 0x1829A0, symSize: 0x8 }
  - { offsetInCU: 0x86E8, offset: 0x2ED0FD, size: 0x8, addend: 0x0, symName: __ZN5godot7vformatIJNS_15PhysicsServer3D13AreaParameterEEEENS_6StringERKS3_DpKT_, symObjAddr: 0x854, symBinAddr: 0x198378, symSize: 0x1A8 }
  - { offsetInCU: 0x1DD6C, offset: 0x302781, size: 0x8, addend: 0x0, symName: __ZNSt3__1L19piecewise_constructE.llvm.8336171290736756400, symObjAddr: 0x5E6B, symBinAddr: 0x3024BB, symSize: 0x0 }
  - { offsetInCU: 0x26161, offset: 0x30AB76, size: 0x8, addend: 0x0, symName: __ZN18JoltSoftBodyImpl3D14mesh_to_sharedE, symObjAddr: 0x64A8, symBinAddr: 0x362338, symSize: 0x0 }
  - { offsetInCU: 0x2E872, offset: 0x313287, size: 0x8, addend: 0x0, symName: __ZN12_GLOBAL__N_119DEFAULT_WIND_SOURCEE.llvm.8336171290736756400, symObjAddr: 0x212940, symBinAddr: 0x36DA38, symSize: 0x0 }
  - { offsetInCU: 0x2E88D, offset: 0x3132A2, size: 0x8, addend: 0x0, symName: __ZN12_GLOBAL__N_122DEFAULT_WIND_DIRECTIONE.llvm.8336171290736756400, symObjAddr: 0x21294C, symBinAddr: 0x36DA20, symSize: 0x0 }
  - { offsetInCU: 0x2E8B8, offset: 0x3132CD, size: 0x8, addend: 0x0, symName: __ZNK14JoltAreaImpl3D13_report_eventERKN5godot8CallableENS0_15PhysicsServer3D14AreaBodyStatusERKNS0_3RIDENS0_8ObjectIDEii, symObjAddr: 0x2EB0, symBinAddr: 0x19DD40, symSize: 0x350 }
  - { offsetInCU: 0x2F25B, offset: 0x313C70, size: 0x8, addend: 0x0, symName: __ZN15JoltGroupFilter8instanceE, symObjAddr: 0x64D8, symBinAddr: 0x362318, symSize: 0x0 }
  - { offsetInCU: 0x2F92E, offset: 0x314343, size: 0x8, addend: 0x0, symName: __ZN7HashMapIN5godot3RIDEN18JoltSoftBodyImpl3D6SharedENS0_20HashMapHasherDefaultENS0_24HashMapComparatorDefaultIS1_EEED1Ev, symObjAddr: 0x0, symBinAddr: 0x197510, symSize: 0xA0 }
  - { offsetInCU: 0x2FFAD, offset: 0x3149C2, size: 0x8, addend: 0x0, symName: __ZN3JPH22SoftBodySharedSettingsD2Ev, symObjAddr: 0x3AE4, symBinAddr: 0x1A1F6C, symSize: 0x1B0 }
  - { offsetInCU: 0x30F04, offset: 0x315919, size: 0x8, addend: 0x0, symName: __ZN14JoltAreaImpl3D13set_transformERKN5godot11Transform3DE, symObjAddr: 0x274, symBinAddr: 0x1977AC, symSize: 0x2DC }
  - { offsetInCU: 0x3183C, offset: 0x316251, size: 0x8, addend: 0x0, symName: __ZNK14JoltAreaImpl3D9get_paramEN5godot15PhysicsServer3D13AreaParameterE, symObjAddr: 0x550, symBinAddr: 0x197DA8, symSize: 0x304 }
  - { offsetInCU: 0x32105, offset: 0x316B1A, size: 0x8, addend: 0x0, symName: __ZN14JoltAreaImpl3D9set_paramEN5godot15PhysicsServer3D13AreaParameterERKNS0_7VariantE, symObjAddr: 0x9FC, symBinAddr: 0x1987F4, symSize: 0x860 }
  - { offsetInCU: 0x34205, offset: 0x318C1A, size: 0x8, addend: 0x0, symName: __ZN14JoltAreaImpl3D25set_body_monitor_callbackERKN5godot8CallableE, symObjAddr: 0x125C, symBinAddr: 0x199340, symSize: 0x3B0 }
  - { offsetInCU: 0x35022, offset: 0x319A37, size: 0x8, addend: 0x0, symName: __ZN14JoltAreaImpl3D25set_area_monitor_callbackERKN5godot8CallableE, symObjAddr: 0x160C, symBinAddr: 0x199838, symSize: 0x3B0 }
  - { offsetInCU: 0x35D0F, offset: 0x31A724, size: 0x8, addend: 0x0, symName: __ZNK14JoltAreaImpl3D17can_interact_withERK14JoltBodyImpl3D, symObjAddr: 0x1A54, symBinAddr: 0x199EF8, symSize: 0x14 }
  - { offsetInCU: 0x35D4B, offset: 0x31A760, size: 0x8, addend: 0x0, symName: __ZNK14JoltAreaImpl3D17can_interact_withERK14JoltBodyImpl3D, symObjAddr: 0x1A54, symBinAddr: 0x199EF8, symSize: 0x14 }
  - { offsetInCU: 0x35D89, offset: 0x31A79E, size: 0x8, addend: 0x0, symName: __ZNK14JoltAreaImpl3D17can_interact_withERK18JoltSoftBodyImpl3D, symObjAddr: 0x1A68, symBinAddr: 0x19A21C, symSize: 0x8 }
  - { offsetInCU: 0x35DE2, offset: 0x31A7F7, size: 0x8, addend: 0x0, symName: __ZNK14JoltAreaImpl3D17can_interact_withERKS_, symObjAddr: 0x1A70, symBinAddr: 0x19A520, symSize: 0x44 }
  - { offsetInCU: 0x35E1E, offset: 0x31A833, size: 0x8, addend: 0x0, symName: __ZNK14JoltAreaImpl3D17can_interact_withERKS_, symObjAddr: 0x1A70, symBinAddr: 0x19A520, symSize: 0x44 }
  - { offsetInCU: 0x35E41, offset: 0x31A856, size: 0x8, addend: 0x0, symName: __ZNK14JoltAreaImpl3D17can_interact_withERKS_, symObjAddr: 0x1A70, symBinAddr: 0x19A520, symSize: 0x44 }
  - { offsetInCU: 0x35ED7, offset: 0x31A8EC, size: 0x8, addend: 0x0, symName: __ZNK14JoltAreaImpl3D24get_velocity_at_positionERKN5godot7Vector3E, symObjAddr: 0x1AB4, symBinAddr: 0x19A9A8, symSize: 0x10 }
  - { offsetInCU: 0x35F8E, offset: 0x31A9A3, size: 0x8, addend: 0x0, symName: __ZNK14JoltAreaImpl3D15compute_gravityERKN5godot7Vector3E, symObjAddr: 0x1AC4, symBinAddr: 0x19AF28, symSize: 0x19C }
  - { offsetInCU: 0x3656F, offset: 0x31AF84, size: 0x8, addend: 0x0, symName: __ZN14JoltAreaImpl3D18body_shape_enteredERKN3JPH6BodyIDERKNS0_10SubShapeIDES6_, symObjAddr: 0x1C60, symBinAddr: 0x19B2EC, symSize: 0x1F8 }
  - { offsetInCU: 0x3710C, offset: 0x31BB21, size: 0x8, addend: 0x0, symName: __ZNSt3__112__hash_tableINS_17__hash_value_typeIN3JPH6BodyIDEN14JoltAreaImpl3D7OverlapEEENS_22__unordered_map_hasherIS3_S6_N7HashMapIS3_S5_NS4_12BodyIDHasherEN5godot24HashMapComparatorDefaultIS3_EEE6HasherENSD_10ComparatorELb1EEENS_21__unordered_map_equalIS3_S6_SF_SE_Lb1EEENS_9allocatorIS6_EEE25__emplace_unique_key_argsIS3_JRKNS_21piecewise_construct_tENS_5tupleIJRKS3_EEENSQ_IJEEEEEENS_4pairINS_15__hash_iteratorIPNS_11__hash_nodeIS6_PvEEEEbEERKT_DpOT0_, symObjAddr: 0x3D40, symBinAddr: 0x1A3FD4, symSize: 0x52C }
  - { offsetInCU: 0x381FC, offset: 0x31CC11, size: 0x8, addend: 0x0, symName: __ZN14JoltAreaImpl3D15_add_shape_pairERNS_7OverlapERKN3JPH6BodyIDERKNS2_10SubShapeIDES8_, symObjAddr: 0x1E58, symBinAddr: 0x19B630, symSize: 0x39C }
  - { offsetInCU: 0x391A1, offset: 0x31DBB6, size: 0x8, addend: 0x0, symName: __ZNSt3__112__hash_tableINS_17__hash_value_typeIN14JoltAreaImpl3D11ShapeIDPairENS2_14ShapeIndexPairEEENS_22__unordered_map_hasherIS3_S5_N7HashMapIS3_S4_S3_N5godot24HashMapComparatorDefaultIS3_EEE6HasherENSB_10ComparatorELb1EEENS_21__unordered_map_equalIS3_S5_SD_SC_Lb1EEENS_9allocatorIS5_EEE25__emplace_unique_key_argsIS3_JRKNS_21piecewise_construct_tENS_5tupleIJOS3_EEENSO_IJEEEEEENS_4pairINS_15__hash_iteratorIPNS_11__hash_nodeIS5_PvEEEEbEERKT_DpOT0_, symObjAddr: 0x426C, symBinAddr: 0xD02C, symSize: 0x53C }
  - { offsetInCU: 0x39C65, offset: 0x31E67A, size: 0x8, addend: 0x0, symName: __ZNSt3__16vectorIN14JoltAreaImpl3D14ShapeIndexPairE15InlineAllocatorIS2_Lm1ES2_EE12emplace_backIJRKS2_EEERS2_DpOT_, symObjAddr: 0x47A8, symBinAddr: 0x308F0, symSize: 0x1A0 }
  - { offsetInCU: 0x3A543, offset: 0x31EF58, size: 0x8, addend: 0x0, symName: __ZN14JoltAreaImpl3D17body_shape_exitedERKN3JPH6BodyIDERKNS0_10SubShapeIDES6_, symObjAddr: 0x21F4, symBinAddr: 0x19BD3C, symSize: 0x23C }
  - { offsetInCU: 0x3AE64, offset: 0x31F879, size: 0x8, addend: 0x0, symName: __ZNSt3__112__hash_tableINS_17__hash_value_typeIN14JoltAreaImpl3D11ShapeIDPairENS2_14ShapeIndexPairEEENS_22__unordered_map_hasherIS3_S5_N7HashMapIS3_S4_S3_N5godot24HashMapComparatorDefaultIS3_EEE6HasherENSB_10ComparatorELb1EEENS_21__unordered_map_equalIS3_S5_SD_SC_Lb1EEENS_9allocatorIS5_EEE4findIS3_EENS_15__hash_iteratorIPNS_11__hash_nodeIS5_PvEEEERKT_, symObjAddr: 0x4948, symBinAddr: 0xD5878, symSize: 0x170 }
  - { offsetInCU: 0x3AEC4, offset: 0x31F8D9, size: 0x8, addend: 0x0, symName: __ZNSt3__112__hash_tableINS_17__hash_value_typeIN14JoltAreaImpl3D11ShapeIDPairENS2_14ShapeIndexPairEEENS_22__unordered_map_hasherIS3_S5_N7HashMapIS3_S4_S3_N5godot24HashMapComparatorDefaultIS3_EEE6HasherENSB_10ComparatorELb1EEENS_21__unordered_map_equalIS3_S5_SD_SC_Lb1EEENS_9allocatorIS5_EEE4findIS3_EENS_15__hash_iteratorIPNS_11__hash_nodeIS5_PvEEEERKT_, symObjAddr: 0x4948, symBinAddr: 0xD5878, symSize: 0x170 }
  - { offsetInCU: 0x3AEE1, offset: 0x31F8F6, size: 0x8, addend: 0x0, symName: __ZNSt3__112__hash_tableINS_17__hash_value_typeIN14JoltAreaImpl3D11ShapeIDPairENS2_14ShapeIndexPairEEENS_22__unordered_map_hasherIS3_S5_N7HashMapIS3_S4_S3_N5godot24HashMapComparatorDefaultIS3_EEE6HasherENSB_10ComparatorELb1EEENS_21__unordered_map_equalIS3_S5_SD_SC_Lb1EEENS_9allocatorIS5_EEE4findIS3_EENS_15__hash_iteratorIPNS_11__hash_nodeIS5_PvEEEERKT_, symObjAddr: 0x4948, symBinAddr: 0xD5878, symSize: 0x170 }
  - { offsetInCU: 0x3B059, offset: 0x31FA6E, size: 0x8, addend: 0x0, symName: __ZNSt3__112__hash_tableINS_17__hash_value_typeIN14JoltAreaImpl3D11ShapeIDPairENS2_14ShapeIndexPairEEENS_22__unordered_map_hasherIS3_S5_N7HashMapIS3_S4_S3_N5godot24HashMapComparatorDefaultIS3_EEE6HasherENSB_10ComparatorELb1EEENS_21__unordered_map_equalIS3_S5_SD_SC_Lb1EEENS_9allocatorIS5_EEE6removeENS_21__hash_const_iteratorIPNS_11__hash_nodeIS5_PvEEEE, symObjAddr: 0x4AB8, symBinAddr: 0xD8CE4, symSize: 0x134 }
  - { offsetInCU: 0x3B0D9, offset: 0x31FAEE, size: 0x8, addend: 0x0, symName: __ZNSt3__112__hash_tableINS_17__hash_value_typeIN14JoltAreaImpl3D11ShapeIDPairENS2_14ShapeIndexPairEEENS_22__unordered_map_hasherIS3_S5_N7HashMapIS3_S4_S3_N5godot24HashMapComparatorDefaultIS3_EEE6HasherENSB_10ComparatorELb1EEENS_21__unordered_map_equalIS3_S5_SD_SC_Lb1EEENS_9allocatorIS5_EEE6removeENS_21__hash_const_iteratorIPNS_11__hash_nodeIS5_PvEEEE, symObjAddr: 0x4AB8, symBinAddr: 0xD8CE4, symSize: 0x134 }
  - { offsetInCU: 0x3B0F6, offset: 0x31FB0B, size: 0x8, addend: 0x0, symName: __ZNSt3__112__hash_tableINS_17__hash_value_typeIN14JoltAreaImpl3D11ShapeIDPairENS2_14ShapeIndexPairEEENS_22__unordered_map_hasherIS3_S5_N7HashMapIS3_S4_S3_N5godot24HashMapComparatorDefaultIS3_EEE6HasherENSB_10ComparatorELb1EEENS_21__unordered_map_equalIS3_S5_SD_SC_Lb1EEENS_9allocatorIS5_EEE6removeENS_21__hash_const_iteratorIPNS_11__hash_nodeIS5_PvEEEE, symObjAddr: 0x4AB8, symBinAddr: 0xD8CE4, symSize: 0x134 }
  - { offsetInCU: 0x3B34C, offset: 0x31FD61, size: 0x8, addend: 0x0, symName: __ZN14JoltAreaImpl3D17area_shape_exitedERKN3JPH6BodyIDERKNS0_10SubShapeIDES6_, symObjAddr: 0x249C, symBinAddr: 0x19C280, symSize: 0x18C }
  - { offsetInCU: 0x3B8E4, offset: 0x3202F9, size: 0x8, addend: 0x0, symName: __ZN14JoltAreaImpl3D13_flush_eventsER7HashMapIN3JPH6BodyIDENS_7OverlapENS_12BodyIDHasherEN5godot24HashMapComparatorDefaultIS2_EEERKNS5_8CallableE, symObjAddr: 0x26B4, symBinAddr: 0x19C608, symSize: 0x290 }
  - { offsetInCU: 0x3CFCA, offset: 0x3219DF, size: 0x8, addend: 0x0, symName: __ZNK14JoltAreaImpl3D22_get_broad_phase_layerEv, symObjAddr: 0x2944, symBinAddr: 0x19CCD0, symSize: 0x14 }
  - { offsetInCU: 0x3D006, offset: 0x321A1B, size: 0x8, addend: 0x0, symName: __ZNK14JoltAreaImpl3D17_get_object_layerEv, symObjAddr: 0x2958, symBinAddr: 0x19D130, symSize: 0x68 }
  - { offsetInCU: 0x3D385, offset: 0x321D9A, size: 0x8, addend: 0x0, symName: __ZN14JoltAreaImpl3D13_add_to_spaceEv, symObjAddr: 0x29C0, symBinAddr: 0x19D3C4, symSize: 0x4E8 }
  - { offsetInCU: 0x3EA31, offset: 0x323446, size: 0x8, addend: 0x0, symName: __ZNK14JoltAreaImpl3D16_get_motion_typeEv, symObjAddr: 0x2EA8, symBinAddr: 0x19DA3C, symSize: 0x8 }
  - { offsetInCU: 0x3EB55, offset: 0x32356A, size: 0x8, addend: 0x0, symName: __ZN14JoltAreaImpl3D15_space_changingEv, symObjAddr: 0x3200, symBinAddr: 0x19E5C0, symSize: 0x58C }
  - { offsetInCU: 0x407C0, offset: 0x3251D5, size: 0x8, addend: 0x0, symName: __ZN14JoltAreaImpl3D14_space_changedEv, symObjAddr: 0x378C, symBinAddr: 0x19EE98, symSize: 0x1A8 }
  - { offsetInCU: 0x412A5, offset: 0x325CBA, size: 0x8, addend: 0x0, symName: __ZN14JoltAreaImpl3DD1Ev, symObjAddr: 0x3934, symBinAddr: 0x19F23C, symSize: 0x74 }
  - { offsetInCU: 0x41740, offset: 0x326155, size: 0x8, addend: 0x0, symName: __ZNSt3__112__hash_tableINS_17__hash_value_typeIN3JPH6BodyIDEN14JoltAreaImpl3D7OverlapEEENS_22__unordered_map_hasherIS3_S6_N7HashMapIS3_S5_NS4_12BodyIDHasherEN5godot24HashMapComparatorDefaultIS3_EEE6HasherENSD_10ComparatorELb1EEENS_21__unordered_map_equalIS3_S6_SF_SE_Lb1EEENS_9allocatorIS6_EEE17__deallocate_nodeEPNS_16__hash_node_baseIPNS_11__hash_nodeIS6_PvEEEE, symObjAddr: 0x3C94, symBinAddr: 0x1A3A60, symSize: 0xAC }
  - { offsetInCU: 0x42070, offset: 0x326A85, size: 0x8, addend: 0x0, symName: __ZN14JoltAreaImpl3DD0Ev, symObjAddr: 0x39A8, symBinAddr: 0x19F6E8, symSize: 0x78 }
  - { offsetInCU: 0x42532, offset: 0x326F47, size: 0x8, addend: 0x0, symName: __ZNK14JoltAreaImpl3D16reports_contactsEv, symObjAddr: 0x3A20, symBinAddr: 0x19F96C, symSize: 0x8 }
  - { offsetInCU: 0x42559, offset: 0x326F6E, size: 0x8, addend: 0x0, symName: __ZNK14JoltAreaImpl3D25has_custom_center_of_massEv, symObjAddr: 0x3A28, symBinAddr: 0x19FB50, symSize: 0x8 }
  - { offsetInCU: 0x42580, offset: 0x326F95, size: 0x8, addend: 0x0, symName: __ZNK14JoltAreaImpl3D25get_center_of_mass_customEv, symObjAddr: 0x3A30, symBinAddr: 0x19FF9C, symSize: 0x10 }
  - { offsetInCU: 0x425A5, offset: 0x326FBA, size: 0x8, addend: 0x0, symName: __ZN22JoltShapedObjectImpl3D13_shapes_builtEv, symObjAddr: 0x3A40, symBinAddr: 0x1A0300, symSize: 0x4 }
  - { offsetInCU: 0x9AFF, offset: 0x335264, size: 0x8, addend: 0x0, symName: __ZN5godot7vformatIJNS_15PhysicsServer3D9BodyStateEEEENS_6StringERKS3_DpKT_, symObjAddr: 0xC44, symBinAddr: 0x325A0, symSize: 0x1A8 }
  - { offsetInCU: 0xA032, offset: 0x335797, size: 0x8, addend: 0x0, symName: __ZN5godot7vformatIJNS_15PhysicsServer3D13BodyParameterEEEENS_6StringERKS3_DpKT_, symObjAddr: 0x19CC, symBinAddr: 0x1B8658, symSize: 0x1A8 }
  - { offsetInCU: 0xA5C9, offset: 0x335D2E, size: 0x8, addend: 0x0, symName: __ZN5godot7vformatIJNS_15PhysicsServer3D8BodyModeEEEENS_6StringERKS3_DpKT_, symObjAddr: 0x73F0, symBinAddr: 0x1CCCC0, symSize: 0x1A8 }
  - { offsetInCU: 0xAABD, offset: 0x336222, size: 0x8, addend: 0x0, symName: __ZN5godot7vformatIJNS_15PhysicsServer3D21AreaSpaceOverrideModeEEEENS_6StringERKS3_DpKT_, symObjAddr: 0x8DB4, symBinAddr: 0x1D5ED0, symSize: 0x1A8 }
  - { offsetInCU: 0x2FD0B, offset: 0x35B470, size: 0x8, addend: 0x0, symName: __ZN14JoltBodyImpl3D12call_queriesERN3JPH4BodyE, symObjAddr: 0x57A4, symBinAddr: 0xE53C4, symSize: 0x93C }
  - { offsetInCU: 0x318C8, offset: 0x35D02D, size: 0x8, addend: 0x0, symName: __ZN14JoltBodyImpl3DD2Ev, symObjAddr: 0x1D0, symBinAddr: 0x31FEC, symSize: 0xA8 }
  - { offsetInCU: 0x32015, offset: 0x35D77A, size: 0x8, addend: 0x0, symName: __ZN14JoltBodyImpl3DD1Ev, symObjAddr: 0x278, symBinAddr: 0xE0ECC, symSize: 0x4 }
  - { offsetInCU: 0x32038, offset: 0x35D79D, size: 0x8, addend: 0x0, symName: __ZN14JoltBodyImpl3DD1Ev, symObjAddr: 0x278, symBinAddr: 0xE0ECC, symSize: 0x4 }
  - { offsetInCU: 0x32060, offset: 0x35D7C5, size: 0x8, addend: 0x0, symName: __ZN14JoltBodyImpl3DD0Ev, symObjAddr: 0x27C, symBinAddr: 0xE1054, symSize: 0x14 }
  - { offsetInCU: 0x324D0, offset: 0x35DC35, size: 0x8, addend: 0x0, symName: __ZN14JoltBodyImpl3D13set_transformEN5godot11Transform3DE, symObjAddr: 0x290, symBinAddr: 0xE1164, symSize: 0x428 }
  - { offsetInCU: 0x33018, offset: 0x35E77D, size: 0x8, addend: 0x0, symName: __ZNK14JoltBodyImpl3D9get_stateEN5godot15PhysicsServer3D9BodyStateE, symObjAddr: 0x6B8, symBinAddr: 0x32134, symSize: 0x464 }
  - { offsetInCU: 0x33EE1, offset: 0x35F646, size: 0x8, addend: 0x0, symName: __ZNK14JoltBodyImpl3D11is_sleepingEv, symObjAddr: 0xB1C, symBinAddr: 0xE1698, symSize: 0x128 }
  - { offsetInCU: 0x34556, offset: 0x35FCBB, size: 0x8, addend: 0x0, symName: __ZN14JoltBodyImpl3D9set_stateEN5godot15PhysicsServer3D9BodyStateERKNS0_7VariantE, symObjAddr: 0xDEC, symBinAddr: 0x16374, symSize: 0x31C }
  - { offsetInCU: 0x34D59, offset: 0x3604BE, size: 0x8, addend: 0x0, symName: __ZN14JoltBodyImpl3D19set_linear_velocityERKN5godot7Vector3E, symObjAddr: 0x1108, symBinAddr: 0xE1B08, symSize: 0x1CC }
  - { offsetInCU: 0x35773, offset: 0x360ED8, size: 0x8, addend: 0x0, symName: __ZN14JoltBodyImpl3D20set_angular_velocityERKN5godot7Vector3E, symObjAddr: 0x12D4, symBinAddr: 0x6B658, symSize: 0x1D0 }
  - { offsetInCU: 0x36186, offset: 0x3618EB, size: 0x8, addend: 0x0, symName: __ZN14JoltBodyImpl3D13set_can_sleepEb, symObjAddr: 0x14D4, symBinAddr: 0x1B6C7C, symSize: 0x110 }
  - { offsetInCU: 0x36EDC, offset: 0x362641, size: 0x8, addend: 0x0, symName: __ZNK14JoltBodyImpl3D9get_paramEN5godot15PhysicsServer3D13BodyParameterE, symObjAddr: 0x15E4, symBinAddr: 0xFDB4, symSize: 0x3D8 }
  - { offsetInCU: 0x37BE5, offset: 0x36334A, size: 0x8, addend: 0x0, symName: __ZNK14JoltBodyImpl3D25get_center_of_mass_customEv, symObjAddr: 0x19BC, symBinAddr: 0x1B7130, symSize: 0x10 }
  - { offsetInCU: 0x37E30, offset: 0x363595, size: 0x8, addend: 0x0, symName: __ZN14JoltBodyImpl3D9set_paramEN5godot15PhysicsServer3D13BodyParameterERKNS0_7VariantE, symObjAddr: 0x1B74, symBinAddr: 0x32A54, symSize: 0x770 }
  - { offsetInCU: 0x398E0, offset: 0x365045, size: 0x8, addend: 0x0, symName: __ZN14JoltBodyImpl3D23_update_mass_propertiesEv, symObjAddr: 0x3594, symBinAddr: 0x1BB0B8, symSize: 0x224 }
  - { offsetInCU: 0x3A099, offset: 0x3657FE, size: 0x8, addend: 0x0, symName: __ZN14JoltBodyImpl3D12_update_dampEv, symObjAddr: 0x6BAC, symBinAddr: 0x6D174, symSize: 0x4B8 }
  - { offsetInCU: 0x3AD29, offset: 0x36648E, size: 0x8, addend: 0x0, symName: __ZN14JoltBodyImpl3D21set_custom_integratorEb, symObjAddr: 0x22E4, symBinAddr: 0xD738, symSize: 0x144 }
  - { offsetInCU: 0x3B832, offset: 0x366F97, size: 0x8, addend: 0x0, symName: __ZNK14JoltBodyImpl3D26get_principal_inertia_axesEv, symObjAddr: 0x2428, symBinAddr: 0xE2D00, symSize: 0x2F4 }
  - { offsetInCU: 0x3C534, offset: 0x367C99, size: 0x8, addend: 0x0, symName: __ZNK14JoltBodyImpl3D19get_inverse_inertiaEv, symObjAddr: 0x271C, symBinAddr: 0xE30E4, symSize: 0x2A8 }
  - { offsetInCU: 0x3D23C, offset: 0x3689A1, size: 0x8, addend: 0x0, symName: __ZNK14JoltBodyImpl3D26get_inverse_inertia_tensorEv, symObjAddr: 0x29C4, symBinAddr: 0x16CE8, symSize: 0x3E4 }
  - { offsetInCU: 0x3E2A7, offset: 0x369A0C, size: 0x8, addend: 0x0, symName: __ZN14JoltBodyImpl3D17set_axis_velocityERKN5godot7Vector3E, symObjAddr: 0x2DA8, symBinAddr: 0xBDF8, symSize: 0x204 }
  - { offsetInCU: 0x3EF36, offset: 0x36A69B, size: 0x8, addend: 0x0, symName: __ZNK14JoltBodyImpl3D24get_velocity_at_positionERKN5godot7Vector3E, symObjAddr: 0x2FAC, symBinAddr: 0x6BF2C, symSize: 0x290 }
  - { offsetInCU: 0x3F9A8, offset: 0x36B10D, size: 0x8, addend: 0x0, symName: __ZN14JoltBodyImpl3D25set_max_contacts_reportedEi, symObjAddr: 0x323C, symBinAddr: 0xE384C, symSize: 0x124 }
  - { offsetInCU: 0x3FE2B, offset: 0x36B590, size: 0x8, addend: 0x0, symName: __ZNSt3__16vectorIN14JoltBodyImpl3D7ContactENS_9allocatorIS2_EEE8__appendEm, symObjAddr: 0x8698, symBinAddr: 0x1D0668, symSize: 0x2BC }
  - { offsetInCU: 0x40688, offset: 0x36BDED, size: 0x8, addend: 0x0, symName: __ZN14JoltBodyImpl3D35_update_possible_kinematic_contactsEv, symObjAddr: 0x8144, symBinAddr: 0x1CEA44, symSize: 0x1B8 }
  - { offsetInCU: 0x40DEA, offset: 0x36C54F, size: 0x8, addend: 0x0, symName: __ZNK14JoltBodyImpl3D16reports_contactsEv, symObjAddr: 0x3360, symBinAddr: 0x10428, symSize: 0x10 }
  - { offsetInCU: 0x40E0F, offset: 0x36C574, size: 0x8, addend: 0x0, symName: __ZNK14JoltBodyImpl3D16reports_contactsEv, symObjAddr: 0x3360, symBinAddr: 0x10428, symSize: 0x10 }
  - { offsetInCU: 0x40E2E, offset: 0x36C593, size: 0x8, addend: 0x0, symName: __ZNK14JoltBodyImpl3D16reports_contactsEv, symObjAddr: 0x3360, symBinAddr: 0x10428, symSize: 0x10 }
  - { offsetInCU: 0x40EE9, offset: 0x36C64E, size: 0x8, addend: 0x0, symName: __ZNK14JoltBodyImpl3D23_calculate_allowed_dofsEv, symObjAddr: 0x7C94, symBinAddr: 0x1CD060, symSize: 0x168 }
  - { offsetInCU: 0x413C7, offset: 0x36CB2C, size: 0x8, addend: 0x0, symName: __ZN14JoltBodyImpl3D11apply_forceERKN5godot7Vector3ES3_, symObjAddr: 0x37B8, symBinAddr: 0x33300, symSize: 0x3AC }
  - { offsetInCU: 0x42293, offset: 0x36D9F8, size: 0x8, addend: 0x0, symName: __ZN14JoltBodyImpl3D19apply_central_forceERKN5godot7Vector3E, symObjAddr: 0x3B64, symBinAddr: 0xE3D98, symSize: 0x250 }
  - { offsetInCU: 0x42F51, offset: 0x36E6B6, size: 0x8, addend: 0x0, symName: __ZN14JoltBodyImpl3D13apply_impulseERKN5godot7Vector3ES3_, symObjAddr: 0x3DB4, symBinAddr: 0x6C468, symSize: 0x558 }
  - { offsetInCU: 0x443C1, offset: 0x36FB26, size: 0x8, addend: 0x0, symName: __ZN14JoltBodyImpl3D21apply_central_impulseERKN5godot7Vector3E, symObjAddr: 0x430C, symBinAddr: 0xE419C, symSize: 0x294 }
  - { offsetInCU: 0x44F41, offset: 0x3706A6, size: 0x8, addend: 0x0, symName: __ZN14JoltBodyImpl3D12apply_torqueERKN5godot7Vector3E, symObjAddr: 0x45A0, symBinAddr: 0xE4514, symSize: 0x250 }
  - { offsetInCU: 0x45926, offset: 0x37108B, size: 0x8, addend: 0x0, symName: __ZN14JoltBodyImpl3D20apply_torque_impulseERKN5godot7Vector3E, symObjAddr: 0x47F0, symBinAddr: 0x1BD1FC, symSize: 0x3BC }
  - { offsetInCU: 0x4676C, offset: 0x371ED1, size: 0x8, addend: 0x0, symName: __ZN14JoltBodyImpl3D18add_constant_forceERKN5godot7Vector3ES3_, symObjAddr: 0x4C1C, symBinAddr: 0x3370C, symSize: 0x268 }
  - { offsetInCU: 0x47068, offset: 0x3727CD, size: 0x8, addend: 0x0, symName: __ZNSt3__16vectorIN5godot3RIDENS_9allocatorIS2_EEE12emplace_backIJRKS2_EEERS2_DpOT_, symObjAddr: 0x8954, symBinAddr: 0x1D3014, symSize: 0x1A0 }
  - { offsetInCU: 0x47711, offset: 0x372E76, size: 0x8, addend: 0x0, symName: __ZN14JoltBodyImpl3D20_update_group_filterEv, symObjAddr: 0x82FC, symBinAddr: 0x1CF310, symSize: 0x1C4 }
  - { offsetInCU: 0x4828F, offset: 0x3739F4, size: 0x8, addend: 0x0, symName: __ZN14JoltBodyImpl3D26remove_collision_exceptionERKN5godot3RIDE, symObjAddr: 0x5004, symBinAddr: 0x1BEC60, symSize: 0x210 }
  - { offsetInCU: 0x48849, offset: 0x373FAE, size: 0x8, addend: 0x0, symName: __ZNK14JoltBodyImpl3D24get_collision_exceptionsEv, symObjAddr: 0x52CC, symBinAddr: 0xE5010, symSize: 0x1A0 }
  - { offsetInCU: 0x4904E, offset: 0x3747B3, size: 0x8, addend: 0x0, symName: __ZNSt3__16vectorIP14JoltAreaImpl3DNS_9allocatorIS2_EEE6insertENS_11__wrap_iterIPKS2_EERS7_, symObjAddr: 0x8AF4, symBinAddr: 0x1D3E04, symSize: 0x2C0 }
  - { offsetInCU: 0x49B93, offset: 0x3752F8, size: 0x8, addend: 0x0, symName: __ZN14JoltBodyImpl3D11remove_areaEP14JoltAreaImpl3D, symObjAddr: 0x5500, symBinAddr: 0x1682C, symSize: 0xC4 }
  - { offsetInCU: 0x4A32D, offset: 0x375A92, size: 0x8, addend: 0x0, symName: __ZN14JoltBodyImpl3D9add_jointEP15JoltJointImpl3D, symObjAddr: 0x55C4, symBinAddr: 0x1BEF54, symSize: 0x124 }
  - { offsetInCU: 0x4A98C, offset: 0x3760F1, size: 0x8, addend: 0x0, symName: __ZN14JoltBodyImpl3D16get_direct_stateEv, symObjAddr: 0x60E0, symBinAddr: 0xE5F40, symSize: 0x1CC }
  - { offsetInCU: 0x4AF90, offset: 0x3766F5, size: 0x8, addend: 0x0, symName: __ZN14JoltBodyImpl3D8pre_stepEfRN3JPH4BodyE, symObjAddr: 0x62AC, symBinAddr: 0x33974, symSize: 0x3A0 }
  - { offsetInCU: 0x4BE82, offset: 0x3775E7, size: 0x8, addend: 0x0, symName: __ZN14JoltBodyImpl3D15_update_gravityERN3JPH4BodyE, symObjAddr: 0x7DFC, symBinAddr: 0x1CE618, symSize: 0x348 }
  - { offsetInCU: 0x4C767, offset: 0x377ECC, size: 0x8, addend: 0x0, symName: __ZN14JoltBodyImpl3D8set_modeEN5godot15PhysicsServer3D8BodyModeE, symObjAddr: 0x664C, symBinAddr: 0x1BFF48, symSize: 0x2CC }
  - { offsetInCU: 0x4D4D8, offset: 0x378C3D, size: 0x8, addend: 0x0, symName: __ZNK14JoltBodyImpl3D16_get_motion_typeEv, symObjAddr: 0x6918, symBinAddr: 0x1C081C, symSize: 0x188 }
  - { offsetInCU: 0x4DACE, offset: 0x379233, size: 0x8, addend: 0x0, symName: __ZNK14JoltBodyImpl3D17can_interact_withERKS_, symObjAddr: 0x70D4, symBinAddr: 0x1CB798, symSize: 0x174 }
  - { offsetInCU: 0x4E042, offset: 0x3797A7, size: 0x8, addend: 0x0, symName: __ZNK14JoltBodyImpl3D17can_interact_withERK18JoltSoftBodyImpl3D, symObjAddr: 0x7248, symBinAddr: 0x1CC764, symSize: 0x10 }
  - { offsetInCU: 0x4E07F, offset: 0x3797E4, size: 0x8, addend: 0x0, symName: __ZNK14JoltBodyImpl3D17can_interact_withERK14JoltAreaImpl3D, symObjAddr: 0x7258, symBinAddr: 0xED06C, symSize: 0x14 }
  - { offsetInCU: 0x4E0BC, offset: 0x379821, size: 0x8, addend: 0x0, symName: __ZNK14JoltBodyImpl3D17can_interact_withERK14JoltAreaImpl3D, symObjAddr: 0x7258, symBinAddr: 0xED06C, symSize: 0x14 }
  - { offsetInCU: 0x4E0E0, offset: 0x379845, size: 0x8, addend: 0x0, symName: __ZNK14JoltBodyImpl3D17can_interact_withERK14JoltAreaImpl3D, symObjAddr: 0x7258, symBinAddr: 0xED06C, symSize: 0x14 }
  - { offsetInCU: 0x4E120, offset: 0x379885, size: 0x8, addend: 0x0, symName: __ZNK14JoltBodyImpl3D22_get_broad_phase_layerEv, symObjAddr: 0x726C, symBinAddr: 0x1CCA50, symSize: 0x184 }
  - { offsetInCU: 0x4E539, offset: 0x379C9E, size: 0x8, addend: 0x0, symName: __ZNK14JoltBodyImpl3D17_get_object_layerEv, symObjAddr: 0x7598, symBinAddr: 0x1CCFF0, symSize: 0x70 }
  - { offsetInCU: 0x4E90A, offset: 0x37A06F, size: 0x8, addend: 0x0, symName: __ZN14JoltBodyImpl3D13_add_to_spaceEv, symObjAddr: 0x7608, symBinAddr: 0x1CD8E4, symSize: 0x68C }
  - { offsetInCU: 0x4FEE0, offset: 0x37B645, size: 0x8, addend: 0x0, symName: __ZN14JoltBodyImpl3D13_shapes_builtEv, symObjAddr: 0x84C0, symBinAddr: 0x1CFA9C, symSize: 0x70 }
  - { offsetInCU: 0x5009C, offset: 0x37B801, size: 0x8, addend: 0x0, symName: __ZN14JoltBodyImpl3D15_space_changingEv, symObjAddr: 0x8530, symBinAddr: 0x1CF4D4, symSize: 0xB4 }
  - { offsetInCU: 0x5035B, offset: 0x37BAC0, size: 0x8, addend: 0x0, symName: __ZN14JoltBodyImpl3D14_space_changedEv, symObjAddr: 0x85E4, symBinAddr: 0x353B8, symSize: 0xAC }
  - { offsetInCU: 0x50530, offset: 0x37BC95, size: 0x8, addend: 0x0, symName: __ZNK14JoltBodyImpl3D25has_custom_center_of_massEv, symObjAddr: 0x8690, symBinAddr: 0x33D14, symSize: 0x8 }
  - { offsetInCU: 0xD01B, offset: 0x38C530, size: 0x8, addend: 0x0, symName: __ZNK15JoltGroupFilter10CanCollideERKN3JPH14CollisionGroupES3_, symObjAddr: 0x10, symBinAddr: 0x1EBE0C, symSize: 0x14 }
  - { offsetInCU: 0xD081, offset: 0x38C596, size: 0x8, addend: 0x0, symName: __ZNK15JoltGroupFilter10CanCollideERKN3JPH14CollisionGroupES3_, symObjAddr: 0x10, symBinAddr: 0x1EBE0C, symSize: 0x14 }
  - { offsetInCU: 0xD0F3, offset: 0x38C608, size: 0x8, addend: 0x0, symName: __ZN15JoltGroupFilterD1Ev, symObjAddr: 0x24, symBinAddr: 0x1EC170, symSize: 0x4 }
  - { offsetInCU: 0xD132, offset: 0x38C647, size: 0x8, addend: 0x0, symName: __ZN15JoltGroupFilterD0Ev, symObjAddr: 0x28, symBinAddr: 0x1EC4C4, symSize: 0xC }
  - { offsetInCU: 0xD160, offset: 0x38C675, size: 0x8, addend: 0x0, symName: __ZN15JoltGroupFilterD0Ev, symObjAddr: 0x28, symBinAddr: 0x1EC4C4, symSize: 0xC }
  - { offsetInCU: 0x5955, offset: 0x391FF3, size: 0x8, addend: 0x0, symName: __ZN5godot7vformatIJN16JoltObjectImpl3D10ObjectTypeEEEENS_6StringERKS3_DpKT_, symObjAddr: 0x56C, symBinAddr: 0x2009EC, symSize: 0x1A8 }
  - { offsetInCU: 0x15559, offset: 0x3A1BF7, size: 0x8, addend: 0x0, symName: __ZN16JoltObjectImpl3DD2Ev, symObjAddr: 0x6C, symBinAddr: 0xBB30, symSize: 0x10C }
  - { offsetInCU: 0x1597D, offset: 0x3A201B, size: 0x8, addend: 0x0, symName: __ZN16JoltObjectImpl3D18_remove_from_spaceEv, symObjAddr: 0x248, symBinAddr: 0x1FFB68, symSize: 0xB4 }
  - { offsetInCU: 0x15C48, offset: 0x3A22E6, size: 0x8, addend: 0x0, symName: __ZNK16JoltObjectImpl3D17can_interact_withERKS_, symObjAddr: 0x3A0, symBinAddr: 0x1FFE80, symSize: 0x1CC }
  - { offsetInCU: 0x16127, offset: 0x3A27C5, size: 0x8, addend: 0x0, symName: __ZN16JoltObjectImpl3D8pre_stepEfRN3JPH4BodyE, symObjAddr: 0x714, symBinAddr: 0x200ED8, symSize: 0x4 }
  - { offsetInCU: 0x16164, offset: 0x3A2802, size: 0x8, addend: 0x0, symName: __ZN16JoltObjectImpl3D9post_stepEfRN3JPH4BodyE, symObjAddr: 0x718, symBinAddr: 0x201690, symSize: 0x4 }
  - { offsetInCU: 0x161C3, offset: 0x3A2861, size: 0x8, addend: 0x0, symName: __ZNK16JoltObjectImpl3D9to_stringEv, symObjAddr: 0x71C, symBinAddr: 0x202600, symSize: 0x168 }
  - { offsetInCU: 0x163CC, offset: 0x3A2A6A, size: 0x8, addend: 0x0, symName: __ZN16JoltObjectImpl3D24_collision_layer_changedEv, symObjAddr: 0x8D4, symBinAddr: 0x200B94, symSize: 0x50 }
  - { offsetInCU: 0x1645A, offset: 0x3A2AF8, size: 0x8, addend: 0x0, symName: __ZN16JoltObjectImpl3D23_collision_mask_changedEv, symObjAddr: 0x924, symBinAddr: 0xBC3C, symSize: 0x50 }
  - { offsetInCU: 0x164E8, offset: 0x3A2B86, size: 0x8, addend: 0x0, symName: __ZN16JoltObjectImpl3D15_space_changingEv, symObjAddr: 0x974, symBinAddr: 0x200BE4, symSize: 0x4 }
  - { offsetInCU: 0x1650D, offset: 0x3A2BAB, size: 0x8, addend: 0x0, symName: __ZN16JoltObjectImpl3D14_space_changedEv, symObjAddr: 0x978, symBinAddr: 0x202FC0, symSize: 0x4 }
  - { offsetInCU: 0x168B8, offset: 0x3BA3F3, size: 0x8, addend: 0x0, symName: __ZNK28JoltPhysicsDirectBodyState3D25_get_extension_class_nameEv, symObjAddr: 0x15D8, symBinAddr: 0x221FD0, symSize: 0xB4 }
  - { offsetInCU: 0x168DC, offset: 0x3BA417, size: 0x8, addend: 0x0, symName: __ZZNK28JoltPhysicsDirectBodyState3D25_get_extension_class_nameEvE11string_name, symObjAddr: 0x3098, symBinAddr: 0x363E50, symSize: 0x0 }
  - { offsetInCU: 0x16990, offset: 0x3BA4CB, size: 0x8, addend: 0x0, symName: __ZN28JoltPhysicsDirectBodyState3D16get_class_staticEv, symObjAddr: 0x19A4, symBinAddr: 0x22373C, symSize: 0x8C }
  - { offsetInCU: 0x169B0, offset: 0x3BA4EB, size: 0x8, addend: 0x0, symName: __ZZN28JoltPhysicsDirectBodyState3D16get_class_staticEvE11string_name, symObjAddr: 0x30A8, symBinAddr: 0x363E10, symSize: 0x0 }
  - { offsetInCU: 0x16A2D, offset: 0x3BA568, size: 0x8, addend: 0x0, symName: __ZN28JoltPhysicsDirectBodyState3D22_gde_binding_callbacksE, symObjAddr: 0x2D90, symBinAddr: 0x33A440, symSize: 0x0 }
  - { offsetInCU: 0x16A56, offset: 0x3BA591, size: 0x8, addend: 0x0, symName: __ZNK28JoltPhysicsDirectBodyState3D18_get_total_gravityEv, symObjAddr: 0xBC, symBinAddr: 0x216CF0, symSize: 0x28 }
  - { offsetInCU: 0x16AA8, offset: 0x3BA5E3, size: 0x8, addend: 0x0, symName: __ZNK28JoltPhysicsDirectBodyState3D23_get_total_angular_dampEv, symObjAddr: 0xE4, symBinAddr: 0x216F58, symSize: 0x1C }
  - { offsetInCU: 0x16AFA, offset: 0x3BA635, size: 0x8, addend: 0x0, symName: __ZNK28JoltPhysicsDirectBodyState3D22_get_total_linear_dampEv, symObjAddr: 0x100, symBinAddr: 0x21730C, symSize: 0x1C }
  - { offsetInCU: 0x16B36, offset: 0x3BA671, size: 0x8, addend: 0x0, symName: __ZNK28JoltPhysicsDirectBodyState3D19_get_center_of_massEv, symObjAddr: 0x11C, symBinAddr: 0x2176B0, symSize: 0x30 }
  - { offsetInCU: 0x16B5F, offset: 0x3BA69A, size: 0x8, addend: 0x0, symName: __ZNK28JoltPhysicsDirectBodyState3D25_get_center_of_mass_localEv, symObjAddr: 0x14C, symBinAddr: 0x217B44, symSize: 0x30 }
  - { offsetInCU: 0x16C3D, offset: 0x3BA778, size: 0x8, addend: 0x0, symName: __ZNK28JoltPhysicsDirectBodyState3D27_get_principal_inertia_axesEv, symObjAddr: 0x17C, symBinAddr: 0x2182E8, symSize: 0x2C }
  - { offsetInCU: 0x16D8C, offset: 0x3BA8C7, size: 0x8, addend: 0x0, symName: __ZNK28JoltPhysicsDirectBodyState3D17_get_inverse_massEv, symObjAddr: 0x1A8, symBinAddr: 0x2186AC, symSize: 0x24 }
  - { offsetInCU: 0x16DCF, offset: 0x3BA90A, size: 0x8, addend: 0x0, symName: __ZNK28JoltPhysicsDirectBodyState3D20_get_inverse_inertiaEv, symObjAddr: 0x1CC, symBinAddr: 0x218C14, symSize: 0x30 }
  - { offsetInCU: 0x16DF8, offset: 0x3BA933, size: 0x8, addend: 0x0, symName: __ZNK28JoltPhysicsDirectBodyState3D27_get_inverse_inertia_tensorEv, symObjAddr: 0x1FC, symBinAddr: 0x218F88, symSize: 0x2C }
  - { offsetInCU: 0x16F31, offset: 0x3BAA6C, size: 0x8, addend: 0x0, symName: __ZNK28JoltPhysicsDirectBodyState3D20_get_linear_velocityEv, symObjAddr: 0x228, symBinAddr: 0x219438, symSize: 0x30 }
  - { offsetInCU: 0x16F53, offset: 0x3BAA8E, size: 0x8, addend: 0x0, symName: __ZN28JoltPhysicsDirectBodyState3D20_set_linear_velocityERKN5godot7Vector3E, symObjAddr: 0x258, symBinAddr: 0x21963C, symSize: 0x10 }
  - { offsetInCU: 0x16F7C, offset: 0x3BAAB7, size: 0x8, addend: 0x0, symName: __ZNK28JoltPhysicsDirectBodyState3D21_get_angular_velocityEv, symObjAddr: 0x268, symBinAddr: 0x2199BC, symSize: 0x30 }
  - { offsetInCU: 0x16F9E, offset: 0x3BAAD9, size: 0x8, addend: 0x0, symName: __ZN28JoltPhysicsDirectBodyState3D21_set_angular_velocityERKN5godot7Vector3E, symObjAddr: 0x298, symBinAddr: 0x219BEC, symSize: 0x10 }
  - { offsetInCU: 0x16FC7, offset: 0x3BAB02, size: 0x8, addend: 0x0, symName: __ZN28JoltPhysicsDirectBodyState3D14_set_transformERKN5godot11Transform3DE, symObjAddr: 0x2A8, symBinAddr: 0x219E28, symSize: 0x38 }
  - { offsetInCU: 0x17068, offset: 0x3BABA3, size: 0x8, addend: 0x0, symName: __ZNK28JoltPhysicsDirectBodyState3D14_get_transformEv, symObjAddr: 0x2E0, symBinAddr: 0x21A030, symSize: 0x128 }
  - { offsetInCU: 0x173E0, offset: 0x3BAF1B, size: 0x8, addend: 0x0, symName: __ZNK28JoltPhysicsDirectBodyState3D31_get_velocity_at_local_positionERKN5godot7Vector3E, symObjAddr: 0x408, symBinAddr: 0x21A314, symSize: 0x78 }
  - { offsetInCU: 0x17435, offset: 0x3BAF70, size: 0x8, addend: 0x0, symName: __ZN28JoltPhysicsDirectBodyState3D22_apply_central_impulseERKN5godot7Vector3E, symObjAddr: 0x480, symBinAddr: 0x21A5CC, symSize: 0x10 }
  - { offsetInCU: 0x1746C, offset: 0x3BAFA7, size: 0x8, addend: 0x0, symName: __ZN28JoltPhysicsDirectBodyState3D14_apply_impulseERKN5godot7Vector3ES3_, symObjAddr: 0x490, symBinAddr: 0x21A91C, symSize: 0x10 }
  - { offsetInCU: 0x174B1, offset: 0x3BAFEC, size: 0x8, addend: 0x0, symName: __ZN28JoltPhysicsDirectBodyState3D21_apply_torque_impulseERKN5godot7Vector3E, symObjAddr: 0x4A0, symBinAddr: 0x21AC70, symSize: 0x10 }
  - { offsetInCU: 0x174E8, offset: 0x3BB023, size: 0x8, addend: 0x0, symName: __ZN28JoltPhysicsDirectBodyState3D20_apply_central_forceERKN5godot7Vector3E, symObjAddr: 0x4B0, symBinAddr: 0x21AF00, symSize: 0x10 }
  - { offsetInCU: 0x1751F, offset: 0x3BB05A, size: 0x8, addend: 0x0, symName: __ZN28JoltPhysicsDirectBodyState3D12_apply_forceERKN5godot7Vector3ES3_, symObjAddr: 0x4C0, symBinAddr: 0x21B254, symSize: 0x10 }
  - { offsetInCU: 0x17564, offset: 0x3BB09F, size: 0x8, addend: 0x0, symName: __ZN28JoltPhysicsDirectBodyState3D13_apply_torqueERKN5godot7Vector3E, symObjAddr: 0x4D0, symBinAddr: 0x21B564, symSize: 0x10 }
  - { offsetInCU: 0x1759B, offset: 0x3BB0D6, size: 0x8, addend: 0x0, symName: __ZN28JoltPhysicsDirectBodyState3D27_add_constant_central_forceERKN5godot7Vector3E, symObjAddr: 0x4E0, symBinAddr: 0x21B808, symSize: 0x74 }
  - { offsetInCU: 0x176E7, offset: 0x3BB222, size: 0x8, addend: 0x0, symName: __ZN28JoltPhysicsDirectBodyState3D19_add_constant_forceERKN5godot7Vector3ES3_, symObjAddr: 0x554, symBinAddr: 0x21BAE4, symSize: 0x10 }
  - { offsetInCU: 0x1772C, offset: 0x3BB267, size: 0x8, addend: 0x0, symName: __ZN28JoltPhysicsDirectBodyState3D20_add_constant_torqueERKN5godot7Vector3E, symObjAddr: 0x564, symBinAddr: 0x21BBE0, symSize: 0x74 }
  - { offsetInCU: 0x17878, offset: 0x3BB3B3, size: 0x8, addend: 0x0, symName: __ZNK28JoltPhysicsDirectBodyState3D19_get_constant_forceEv, symObjAddr: 0x5D8, symBinAddr: 0x21BCC4, symSize: 0x28 }
  - { offsetInCU: 0x178BB, offset: 0x3BB3F6, size: 0x8, addend: 0x0, symName: __ZN28JoltPhysicsDirectBodyState3D19_set_constant_forceERKN5godot7Vector3E, symObjAddr: 0x600, symBinAddr: 0x21BFE4, symSize: 0x68 }
  - { offsetInCU: 0x179DF, offset: 0x3BB51A, size: 0x8, addend: 0x0, symName: __ZNK28JoltPhysicsDirectBodyState3D20_get_constant_torqueEv, symObjAddr: 0x668, symBinAddr: 0x21D174, symSize: 0x28 }
  - { offsetInCU: 0x17A22, offset: 0x3BB55D, size: 0x8, addend: 0x0, symName: __ZN28JoltPhysicsDirectBodyState3D20_set_constant_torqueERKN5godot7Vector3E, symObjAddr: 0x690, symBinAddr: 0x21D680, symSize: 0x68 }
  - { offsetInCU: 0x17B46, offset: 0x3BB681, size: 0x8, addend: 0x0, symName: __ZNK28JoltPhysicsDirectBodyState3D12_is_sleepingEv, symObjAddr: 0x6F8, symBinAddr: 0x21D908, symSize: 0x10 }
  - { offsetInCU: 0x17B6F, offset: 0x3BB6AA, size: 0x8, addend: 0x0, symName: __ZN28JoltPhysicsDirectBodyState3D16_set_sleep_stateEb, symObjAddr: 0x708, symBinAddr: 0x21DC00, symSize: 0x34 }
  - { offsetInCU: 0x17C25, offset: 0x3BB760, size: 0x8, addend: 0x0, symName: __ZNK28JoltPhysicsDirectBodyState3D18_get_contact_countEv, symObjAddr: 0x73C, symBinAddr: 0x21E0D4, symSize: 0x18 }
  - { offsetInCU: 0x17CB4, offset: 0x3BB7EF, size: 0x8, addend: 0x0, symName: __ZNK28JoltPhysicsDirectBodyState3D27_get_contact_local_positionEi, symObjAddr: 0x754, symBinAddr: 0x21E4F0, symSize: 0x118 }
  - { offsetInCU: 0x17D4A, offset: 0x3BB885, size: 0x8, addend: 0x0, symName: __ZNK28JoltPhysicsDirectBodyState3D25_get_contact_local_normalEi, symObjAddr: 0x86C, symBinAddr: 0x21EB8C, symSize: 0x118 }
  - { offsetInCU: 0x17DE0, offset: 0x3BB91B, size: 0x8, addend: 0x0, symName: __ZNK28JoltPhysicsDirectBodyState3D20_get_contact_impulseEi, symObjAddr: 0x984, symBinAddr: 0x21F1D8, symSize: 0x118 }
  - { offsetInCU: 0x17E76, offset: 0x3BB9B1, size: 0x8, addend: 0x0, symName: __ZNK28JoltPhysicsDirectBodyState3D24_get_contact_local_shapeEi, symObjAddr: 0xA9C, symBinAddr: 0x21F504, symSize: 0x108 }
  - { offsetInCU: 0x17F0C, offset: 0x3BBA47, size: 0x8, addend: 0x0, symName: __ZNK28JoltPhysicsDirectBodyState3D39_get_contact_local_velocity_at_positionEi, symObjAddr: 0xBA4, symBinAddr: 0x21F798, symSize: 0x118 }
  - { offsetInCU: 0x17FA2, offset: 0x3BBADD, size: 0x8, addend: 0x0, symName: __ZNK28JoltPhysicsDirectBodyState3D21_get_contact_colliderEi, symObjAddr: 0xCBC, symBinAddr: 0x21FCB0, symSize: 0x134 }
  - { offsetInCU: 0x180C9, offset: 0x3BBC04, size: 0x8, addend: 0x0, symName: __ZNK28JoltPhysicsDirectBodyState3D30_get_contact_collider_positionEi, symObjAddr: 0xDF0, symBinAddr: 0x220004, symSize: 0x118 }
  - { offsetInCU: 0x1817A, offset: 0x3BBCB5, size: 0x8, addend: 0x0, symName: __ZNK28JoltPhysicsDirectBodyState3D24_get_contact_collider_idEi, symObjAddr: 0xF08, symBinAddr: 0x220384, symSize: 0x108 }
  - { offsetInCU: 0x18250, offset: 0x3BBD8B, size: 0x8, addend: 0x0, symName: __ZNK28JoltPhysicsDirectBodyState3D28_get_contact_collider_objectEi, symObjAddr: 0x1010, symBinAddr: 0x220634, symSize: 0x214 }
  - { offsetInCU: 0x18451, offset: 0x3BBF8C, size: 0x8, addend: 0x0, symName: __ZNK28JoltPhysicsDirectBodyState3D27_get_contact_collider_shapeEi, symObjAddr: 0x1224, symBinAddr: 0x220D78, symSize: 0x108 }
  - { offsetInCU: 0x184E7, offset: 0x3BC022, size: 0x8, addend: 0x0, symName: __ZNK28JoltPhysicsDirectBodyState3D42_get_contact_collider_velocity_at_positionEi, symObjAddr: 0x132C, symBinAddr: 0x7EF78, symSize: 0x118 }
  - { offsetInCU: 0x185AE, offset: 0x3BC0E9, size: 0x8, addend: 0x0, symName: __ZNK28JoltPhysicsDirectBodyState3D9_get_stepEv, symObjAddr: 0x1444, symBinAddr: 0x221614, symSize: 0x20 }
  - { offsetInCU: 0x18752, offset: 0x3BC28D, size: 0x8, addend: 0x0, symName: __ZN28JoltPhysicsDirectBodyState3D17_integrate_forcesEv, symObjAddr: 0x1464, symBinAddr: 0x221754, symSize: 0x168 }
  - { offsetInCU: 0x189D5, offset: 0x3BC510, size: 0x8, addend: 0x0, symName: __ZN28JoltPhysicsDirectBodyState3D16_get_space_stateEv, symObjAddr: 0x15CC, symBinAddr: 0x221D84, symSize: 0xC }
  - { offsetInCU: 0x18A1C, offset: 0x3BC557, size: 0x8, addend: 0x0, symName: __ZNK28JoltPhysicsDirectBodyState3D23_get_bindings_callbacksEv, symObjAddr: 0x168C, symBinAddr: 0x22240C, symSize: 0xC }
  - { offsetInCU: 0x18A43, offset: 0x3BC57E, size: 0x8, addend: 0x0, symName: __ZN28JoltPhysicsDirectBodyState3D14_notificationvEib, symObjAddr: 0x1698, symBinAddr: 0x222804, symSize: 0x4 }
  - { offsetInCU: 0x18C49, offset: 0x3BC784, size: 0x8, addend: 0x0, symName: __ZN28JoltPhysicsDirectBodyState3DD1Ev, symObjAddr: 0x169C, symBinAddr: 0x222AAC, symSize: 0x18C }
  - { offsetInCU: 0x190EA, offset: 0x3BCC25, size: 0x8, addend: 0x0, symName: __ZN28JoltPhysicsDirectBodyState3DD0Ev, symObjAddr: 0x1828, symBinAddr: 0x2232EC, symSize: 0x17C }
  - { offsetInCU: 0x194B2, offset: 0x3BCFED, size: 0x8, addend: 0x0, symName: __ZN28JoltPhysicsDirectBodyState3D28_gde_binding_create_callbackEPvS0_, symObjAddr: 0x1A30, symBinAddr: 0x223E28, symSize: 0x8 }
  - { offsetInCU: 0x194E5, offset: 0x3BD020, size: 0x8, addend: 0x0, symName: __ZN28JoltPhysicsDirectBodyState3D26_gde_binding_free_callbackEPvS0_S0_, symObjAddr: 0x1A38, symBinAddr: 0x22412C, symSize: 0x4 }
  - { offsetInCU: 0x19524, offset: 0x3BD05F, size: 0x8, addend: 0x0, symName: __ZN28JoltPhysicsDirectBodyState3D31_gde_binding_reference_callbackEPvS0_h, symObjAddr: 0x1A3C, symBinAddr: 0x224538, symSize: 0x8 }
  - { offsetInCU: 0x550F, offset: 0x3C2D63, size: 0x8, addend: 0x0, symName: __ZN5godot7vformatIJiNS_6StringENS_7Vector3EEEES1_RKS1_DpKT_, symObjAddr: 0x3AF4, symBinAddr: 0x23B418, symSize: 0x2C8 }
  - { offsetInCU: 0x5CCF, offset: 0x3C3523, size: 0x8, addend: 0x0, symName: __ZN5godot7vformatIJNS_6StringENS_7Vector3EEEES1_RKS1_DpKT_, symObjAddr: 0x1B14, symBinAddr: 0x2371FC, symSize: 0x23C }
  - { offsetInCU: 0x62CA, offset: 0x3C3B1E, size: 0x8, addend: 0x0, symName: __ZN5godot7vformatIJiNS_6StringEEEES1_RKS1_DpKT_, symObjAddr: 0x2668, symBinAddr: 0x2388F8, symSize: 0x240 }
  - { offsetInCU: 0x1867D, offset: 0x3D5ED1, size: 0x8, addend: 0x0, symName: __ZN22JoltShapedObjectImpl3DD2Ev, symObjAddr: 0x118, symBinAddr: 0x233CA8, symSize: 0x14C }
  - { offsetInCU: 0x18CCC, offset: 0x3D6520, size: 0x8, addend: 0x0, symName: __ZN22JoltShapedObjectImpl3DD1Ev, symObjAddr: 0x264, symBinAddr: 0x234174, symSize: 0x4 }
  - { offsetInCU: 0x18CF5, offset: 0x3D6549, size: 0x8, addend: 0x0, symName: __ZN22JoltShapedObjectImpl3DD0Ev, symObjAddr: 0x268, symBinAddr: 0x234378, symSize: 0x4 }
  - { offsetInCU: 0x1933C, offset: 0x3D6B90, size: 0x8, addend: 0x0, symName: __ZNK22JoltShapedObjectImpl3D22get_transform_unscaledEv, symObjAddr: 0x26C, symBinAddr: 0x2345CC, symSize: 0x368 }
  - { offsetInCU: 0x1A13F, offset: 0x3D7993, size: 0x8, addend: 0x0, symName: __ZNK22JoltShapedObjectImpl3D12get_positionEv, symObjAddr: 0x6A8, symBinAddr: 0x234B08, symSize: 0x1F4 }
  - { offsetInCU: 0x1AA8F, offset: 0x3D82E3, size: 0x8, addend: 0x0, symName: __ZNK22JoltShapedObjectImpl3D18get_center_of_massEv, symObjAddr: 0x89C, symBinAddr: 0x23503C, symSize: 0x1FC }
  - { offsetInCU: 0x1B2CE, offset: 0x3D8B22, size: 0x8, addend: 0x0, symName: __ZNK22JoltShapedObjectImpl3D24get_center_of_mass_localEv, symObjAddr: 0xA98, symBinAddr: 0x23557C, symSize: 0x20C }
  - { offsetInCU: 0x1B671, offset: 0x3D8EC5, size: 0x8, addend: 0x0, symName: __ZNK22JoltShapedObjectImpl3D19get_linear_velocityEv, symObjAddr: 0xCA4, symBinAddr: 0x235A88, symSize: 0x144 }
  - { offsetInCU: 0x1BDBC, offset: 0x3D9610, size: 0x8, addend: 0x0, symName: __ZNK22JoltShapedObjectImpl3D20get_angular_velocityEv, symObjAddr: 0xDE8, symBinAddr: 0x235E60, symSize: 0x144 }
  - { offsetInCU: 0x1CF7F, offset: 0x3DA7D3, size: 0x8, addend: 0x0, symName: __ZN22JoltShapedObjectImpl3D15try_build_shapeEv, symObjAddr: 0xF2C, symBinAddr: 0x236254, symSize: 0xBE8 }
  - { offsetInCU: 0x1FA15, offset: 0x3DD269, size: 0x8, addend: 0x0, symName: __ZN22JoltShapedObjectImpl3D12update_shapeEv, symObjAddr: 0x1E34, symBinAddr: 0x237A18, symSize: 0x2F8 }
  - { offsetInCU: 0x21011, offset: 0x3DE865, size: 0x8, addend: 0x0, symName: __ZN22JoltShapedObjectImpl3D9add_shapeEP15JoltShapeImpl3DN5godot11Transform3DEb, symObjAddr: 0x212C, symBinAddr: 0x237FFC, symSize: 0x53C }
  - { offsetInCU: 0x21F23, offset: 0x3DF777, size: 0x8, addend: 0x0, symName: __ZN22JoltShapedObjectImpl3D12remove_shapeEPK15JoltShapeImpl3D, symObjAddr: 0x28A8, symBinAddr: 0x2391EC, symSize: 0x2E8 }
  - { offsetInCU: 0x22AA1, offset: 0x3E02F5, size: 0x8, addend: 0x0, symName: __ZN22JoltShapedObjectImpl3D12remove_shapeEi, symObjAddr: 0x2B90, symBinAddr: 0x239918, symSize: 0x254 }
  - { offsetInCU: 0x230EA, offset: 0x3E093E, size: 0x8, addend: 0x0, symName: __ZN22JoltShapedObjectImpl3D9set_shapeEiP15JoltShapeImpl3D, symObjAddr: 0x2E90, symBinAddr: 0x239EB4, symSize: 0x2FC }
  - { offsetInCU: 0x23858, offset: 0x3E10AC, size: 0x8, addend: 0x0, symName: __ZNK22JoltShapedObjectImpl3D26get_shape_transform_scaledEi, symObjAddr: 0x336C, symBinAddr: 0x23A6C8, symSize: 0x184 }
  - { offsetInCU: 0x23D1A, offset: 0x3E156E, size: 0x8, addend: 0x0, symName: __ZN22JoltShapedObjectImpl3D19set_shape_transformEiN5godot11Transform3DE, symObjAddr: 0x34F0, symBinAddr: 0x23AA60, symSize: 0x438 }
  - { offsetInCU: 0x2438E, offset: 0x3E1BE2, size: 0x8, addend: 0x0, symName: __ZN22JoltShapedObjectImpl3D9post_stepEfRN3JPH4BodyE, symObjAddr: 0x3AA0, symBinAddr: 0x23B14C, symSize: 0x54 }
  - { offsetInCU: 0x244CE, offset: 0x3E1D22, size: 0x8, addend: 0x0, symName: __ZN22JoltShapedObjectImpl3D15_shapes_changedEv, symObjAddr: 0x3DBC, symBinAddr: 0x23BA74, symSize: 0x4 }
  - { offsetInCU: 0x244F9, offset: 0x3E1D4D, size: 0x8, addend: 0x0, symName: __ZN22JoltShapedObjectImpl3D15_shapes_changedEv, symObjAddr: 0x3DBC, symBinAddr: 0x23BA74, symSize: 0x4 }
  - { offsetInCU: 0x2451F, offset: 0x3E1D73, size: 0x8, addend: 0x0, symName: __ZN22JoltShapedObjectImpl3D15_space_changingEv, symObjAddr: 0x3DC0, symBinAddr: 0x23BE78, symSize: 0x11C }
  - { offsetInCU: 0x10471, offset: 0x3F445F, size: 0x8, addend: 0x0, symName: __ZN5godot7vformatIJPKcEEENS_6StringERKS3_DpKT_, symObjAddr: 0x15BC, symBinAddr: 0x2507EC, symSize: 0x1C4 }
  - { offsetInCU: 0x10B23, offset: 0x3F4B11, size: 0x8, addend: 0x0, symName: __ZN5godot7vformatIJNS_6StringEiiiEEES1_RKS1_DpKT_, symObjAddr: 0x5668, symBinAddr: 0x258B24, symSize: 0x358 }
  - { offsetInCU: 0x2E1CE, offset: 0x4121BC, size: 0x8, addend: 0x0, symName: __ZN18JoltSoftBodyImpl3DD2Ev, symObjAddr: 0x10C, symBinAddr: 0x24AFA8, symSize: 0xF0 }
  - { offsetInCU: 0x2EB25, offset: 0x412B13, size: 0x8, addend: 0x0, symName: __ZN18JoltSoftBodyImpl3DD1Ev, symObjAddr: 0x1FC, symBinAddr: 0x8A44C, symSize: 0x4 }
  - { offsetInCU: 0x2EB48, offset: 0x412B36, size: 0x8, addend: 0x0, symName: __ZN18JoltSoftBodyImpl3DD1Ev, symObjAddr: 0x1FC, symBinAddr: 0x8A44C, symSize: 0x4 }
  - { offsetInCU: 0x2EB70, offset: 0x412B5E, size: 0x8, addend: 0x0, symName: __ZN18JoltSoftBodyImpl3DD0Ev, symObjAddr: 0x200, symBinAddr: 0x24BC08, symSize: 0x14 }
  - { offsetInCU: 0x2EBE1, offset: 0x412BCF, size: 0x8, addend: 0x0, symName: __ZN18JoltSoftBodyImpl3D20_update_group_filterEv, symObjAddr: 0x373C, symBinAddr: 0x2566F8, symSize: 0x1CC }
  - { offsetInCU: 0x2F768, offset: 0x413756, size: 0x8, addend: 0x0, symName: __ZN18JoltSoftBodyImpl3D26remove_collision_exceptionERKN5godot3RIDE, symObjAddr: 0x23C, symBinAddr: 0x24C05C, symSize: 0x210 }
  - { offsetInCU: 0x2FC66, offset: 0x413C54, size: 0x8, addend: 0x0, symName: __ZNK18JoltSoftBodyImpl3D24get_collision_exceptionsEv, symObjAddr: 0x44C, symBinAddr: 0x2699C, symSize: 0x1A0 }
  - { offsetInCU: 0x301AF, offset: 0x41419D, size: 0x8, addend: 0x0, symName: __ZNK18JoltSoftBodyImpl3D17can_interact_withERK14JoltBodyImpl3D, symObjAddr: 0x5EC, symBinAddr: 0x24D050, symSize: 0x174 }
  - { offsetInCU: 0x3071B, offset: 0x414709, size: 0x8, addend: 0x0, symName: __ZNK18JoltSoftBodyImpl3D17can_interact_withERKS_, symObjAddr: 0x760, symBinAddr: 0x12D034, symSize: 0x174 }
  - { offsetInCU: 0x30C86, offset: 0x414C74, size: 0x8, addend: 0x0, symName: __ZNK18JoltSoftBodyImpl3D17can_interact_withERK14JoltAreaImpl3D, symObjAddr: 0x8D4, symBinAddr: 0x24D364, symSize: 0x8 }
  - { offsetInCU: 0x30CB9, offset: 0x414CA7, size: 0x8, addend: 0x0, symName: __ZNK18JoltSoftBodyImpl3D24get_velocity_at_positionERKN5godot7Vector3E, symObjAddr: 0x8DC, symBinAddr: 0x24D944, symSize: 0x10 }
  - { offsetInCU: 0x31130, offset: 0x41511E, size: 0x8, addend: 0x0, symName: __ZN18JoltSoftBodyImpl3D8set_meshERKN5godot3RIDE, symObjAddr: 0x8EC, symBinAddr: 0x24E190, symSize: 0x1A8 }
  - { offsetInCU: 0x3189B, offset: 0x415889, size: 0x8, addend: 0x0, symName: __ZNSt3__112__hash_tableINS_17__hash_value_typeIN5godot3RIDEN18JoltSoftBodyImpl3D6SharedEEENS_22__unordered_map_hasherIS3_S6_N7HashMapIS3_S5_NS2_20HashMapHasherDefaultENS2_24HashMapComparatorDefaultIS3_EEE6HasherENSC_10ComparatorELb1EEENS_21__unordered_map_equalIS3_S6_SE_SD_Lb1EEENS_9allocatorIS6_EEE4findIS3_EENS_15__hash_iteratorIPNS_11__hash_nodeIS6_PvEEEERKT_, symObjAddr: 0x60A0, symBinAddr: 0x25A044, symSize: 0x180 }
  - { offsetInCU: 0x31B81, offset: 0x415B6F, size: 0x8, addend: 0x0, symName: __ZNSt3__112__hash_tableINS_17__hash_value_typeIN5godot3RIDEN18JoltSoftBodyImpl3D6SharedEEENS_22__unordered_map_hasherIS3_S6_N7HashMapIS3_S5_NS2_20HashMapHasherDefaultENS2_24HashMapComparatorDefaultIS3_EEE6HasherENSC_10ComparatorELb1EEENS_21__unordered_map_equalIS3_S6_SE_SD_Lb1EEENS_9allocatorIS6_EEE6removeENS_21__hash_const_iteratorIPNS_11__hash_nodeIS6_PvEEEE, symObjAddr: 0x645C, symBinAddr: 0x25A9C4, symSize: 0x134 }
  - { offsetInCU: 0x31C01, offset: 0x415BEF, size: 0x8, addend: 0x0, symName: __ZNSt3__112__hash_tableINS_17__hash_value_typeIN5godot3RIDEN18JoltSoftBodyImpl3D6SharedEEENS_22__unordered_map_hasherIS3_S6_N7HashMapIS3_S5_NS2_20HashMapHasherDefaultENS2_24HashMapComparatorDefaultIS3_EEE6HasherENSC_10ComparatorELb1EEENS_21__unordered_map_equalIS3_S6_SE_SD_Lb1EEENS_9allocatorIS6_EEE6removeENS_21__hash_const_iteratorIPNS_11__hash_nodeIS6_PvEEEE, symObjAddr: 0x645C, symBinAddr: 0x25A9C4, symSize: 0x134 }
  - { offsetInCU: 0x31C1E, offset: 0x415C0C, size: 0x8, addend: 0x0, symName: __ZNSt3__112__hash_tableINS_17__hash_value_typeIN5godot3RIDEN18JoltSoftBodyImpl3D6SharedEEENS_22__unordered_map_hasherIS3_S6_N7HashMapIS3_S5_NS2_20HashMapHasherDefaultENS2_24HashMapComparatorDefaultIS3_EEE6HasherENSC_10ComparatorELb1EEENS_21__unordered_map_equalIS3_S6_SE_SD_Lb1EEENS_9allocatorIS6_EEE6removeENS_21__hash_const_iteratorIPNS_11__hash_nodeIS6_PvEEEE, symObjAddr: 0x645C, symBinAddr: 0x25A9C4, symSize: 0x134 }
  - { offsetInCU: 0x31FA4, offset: 0x415F92, size: 0x8, addend: 0x0, symName: __ZN18JoltSoftBodyImpl3D24set_simulation_precisionEi, symObjAddr: 0xA94, symBinAddr: 0x24E940, symSize: 0x134 }
  - { offsetInCU: 0x3269A, offset: 0x416688, size: 0x8, addend: 0x0, symName: __ZN18JoltSoftBodyImpl3D12_update_massEv, symObjAddr: 0xBE8, symBinAddr: 0x24ECE0, symSize: 0x26C }
  - { offsetInCU: 0x32E74, offset: 0x416E62, size: 0x8, addend: 0x0, symName: __ZN18JoltSoftBodyImpl3D17_pressure_changedEv, symObjAddr: 0xE98, symBinAddr: 0x24F4C8, symSize: 0x148 }
  - { offsetInCU: 0x336A3, offset: 0x417691, size: 0x8, addend: 0x0, symName: __ZN18JoltSoftBodyImpl3D18set_linear_dampingEf, symObjAddr: 0xFE0, symBinAddr: 0x24F87C, symSize: 0x134 }
  - { offsetInCU: 0x33ED7, offset: 0x417EC5, size: 0x8, addend: 0x0, symName: __ZNK18JoltSoftBodyImpl3D9get_stateEN5godot15PhysicsServer3D9BodyStateE, symObjAddr: 0x1120, symBinAddr: 0x24FE90, symSize: 0x49C }
  - { offsetInCU: 0x3509F, offset: 0x41908D, size: 0x8, addend: 0x0, symName: __ZN18JoltSoftBodyImpl3D9set_stateEN5godot15PhysicsServer3D9BodyStateERKNS0_7VariantE, symObjAddr: 0x1780, symBinAddr: 0x250C64, symSize: 0x488 }
  - { offsetInCU: 0x36210, offset: 0x41A1FE, size: 0x8, addend: 0x0, symName: __ZN18JoltSoftBodyImpl3D13set_transformERKN5godot11Transform3DE, symObjAddr: 0x1C08, symBinAddr: 0x2516D4, symSize: 0x2A8 }
  - { offsetInCU: 0x36BE2, offset: 0x41ABD0, size: 0x8, addend: 0x0, symName: __ZNK18JoltSoftBodyImpl3D9to_stringEv, symObjAddr: 0x1EB0, symBinAddr: 0x251AD0, symSize: 0x168 }
  - { offsetInCU: 0x36FEE, offset: 0x41AFDC, size: 0x8, addend: 0x0, symName: __ZNK18JoltSoftBodyImpl3D10get_boundsEv, symObjAddr: 0x2018, symBinAddr: 0x2520BC, symSize: 0x1F4 }
  - { offsetInCU: 0x37F19, offset: 0x41BF07, size: 0x8, addend: 0x0, symName: __ZN18JoltSoftBodyImpl3D23update_rendering_serverEPN5godot37PhysicsServer3DRenderingServerHandlerE, symObjAddr: 0x220C, symBinAddr: 0x252484, symSize: 0x6C8 }
  - { offsetInCU: 0x39300, offset: 0x41D2EE, size: 0x8, addend: 0x0, symName: __ZN18JoltSoftBodyImpl3D19get_vertex_positionEi, symObjAddr: 0x28D4, symBinAddr: 0x252E8C, symSize: 0x2A0 }
  - { offsetInCU: 0x39D4D, offset: 0x41DD3B, size: 0x8, addend: 0x0, symName: __ZN18JoltSoftBodyImpl3D19set_vertex_positionEiRKN5godot7Vector3E, symObjAddr: 0x2B74, symBinAddr: 0x253470, symSize: 0x2C4 }
  - { offsetInCU: 0x3A779, offset: 0x41E767, size: 0x8, addend: 0x0, symName: __ZNSt3__112__hash_tableIiN7HashSetIiN5godot20HashMapHasherDefaultENS2_24HashMapComparatorDefaultIiEEE6HasherENS6_10ComparatorENS_9allocatorIiEEE25__emplace_unique_key_argsIiJRKiEEENS_4pairINS_15__hash_iteratorIPNS_11__hash_nodeIiPvEEEEbEERKT_DpOT0_, symObjAddr: 0x59C8, symBinAddr: 0x2593D8, symSize: 0x4C4 }
  - { offsetInCU: 0x3B07C, offset: 0x41F06A, size: 0x8, addend: 0x0, symName: __ZNSt3__112__hash_tableIiN7HashSetIiN5godot20HashMapHasherDefaultENS2_24HashMapComparatorDefaultIiEEE6HasherENS6_10ComparatorENS_9allocatorIiEEE14__erase_uniqueIiEEmRKT_, symObjAddr: 0x5E8C, symBinAddr: 0x259B9C, symSize: 0x214 }
  - { offsetInCU: 0x3B65A, offset: 0x41F648, size: 0x8, addend: 0x0, symName: __ZNK18JoltSoftBodyImpl3D16is_vertex_pinnedEi, symObjAddr: 0x2F70, symBinAddr: 0x253988, symSize: 0x284 }
  - { offsetInCU: 0x3BA05, offset: 0x41F9F3, size: 0x8, addend: 0x0, symName: __ZNK18JoltSoftBodyImpl3D22_get_broad_phase_layerEv, symObjAddr: 0x31F4, symBinAddr: 0x253E4C, symSize: 0x8 }
  - { offsetInCU: 0x3BA2C, offset: 0x41FA1A, size: 0x8, addend: 0x0, symName: __ZNK18JoltSoftBodyImpl3D17_get_object_layerEv, symObjAddr: 0x31FC, symBinAddr: 0x254184, symSize: 0x5C }
  - { offsetInCU: 0x3BB11, offset: 0x41FAFF, size: 0x8, addend: 0x0, symName: __ZN18JoltSoftBodyImpl3D15_space_changingEv, symObjAddr: 0x3258, symBinAddr: 0x2543B0, symSize: 0x200 }
  - { offsetInCU: 0x3C855, offset: 0x420843, size: 0x8, addend: 0x0, symName: __ZN18JoltSoftBodyImpl3D14_space_changedEv, symObjAddr: 0x3458, symBinAddr: 0x2547B0, symSize: 0x2E4 }
  - { offsetInCU: 0x3DF63, offset: 0x421F51, size: 0x8, addend: 0x0, symName: __ZN18JoltSoftBodyImpl3D13_add_to_spaceEv, symObjAddr: 0x3908, symBinAddr: 0x256BF4, symSize: 0x1D60 }
  - { offsetInCU: 0x44D96, offset: 0x428D84, size: 0x8, addend: 0x0, symName: __ZNSt3__112__hash_tableINS_17__hash_value_typeIN5godot7Vector3EiEENS_22__unordered_map_hasherIS3_S4_N7HashMapIS3_iNS2_20HashMapHasherDefaultENS2_24HashMapComparatorDefaultIS3_EEE6HasherENSA_10ComparatorELb1EEENS_21__unordered_map_equalIS3_S4_SC_SB_Lb1EEENS_9allocatorIS4_EEE11__do_rehashILb1EEEvm, symObjAddr: 0x6220, symBinAddr: 0x25A544, symSize: 0x1AC }
  - { offsetInCU: 0x45239, offset: 0x429227, size: 0x8, addend: 0x0, symName: __ZNK18JoltSoftBodyImpl3D16reports_contactsEv, symObjAddr: 0x59C0, symBinAddr: 0x25907C, symSize: 0x8 }
  - { offsetInCU: 0x1A14B, offset: 0x445874, size: 0x8, addend: 0x0, symName: __ZNSt3__1L19piecewise_constructE, symObjAddr: 0x20B7B, symBinAddr: 0x3030F0, symSize: 0x0 }
  - { offsetInCU: 0x376B6, offset: 0x462DDF, size: 0x8, addend: 0x0, symName: __ZNSt3__127__tree_balance_after_insertB7v160006IPNS_16__tree_node_baseIPvEEEEvT_S5_, symObjAddr: 0x8DEC, symBinAddr: 0x27827C, symSize: 0x1B4 }
  - { offsetInCU: 0x39B87, offset: 0x4652B0, size: 0x8, addend: 0x0, symName: __ZN29JoltPhysicsDirectSpaceState3D22_gde_binding_callbacksE, symObjAddr: 0x20CC0, symBinAddr: 0x33A610, symSize: 0x0 }
  - { offsetInCU: 0x3A45E, offset: 0x465B87, size: 0x8, addend: 0x0, symName: __ZN19JoltPhysicsServer3D22_gde_binding_callbacksE, symObjAddr: 0x20C90, symBinAddr: 0x33A5E0, symSize: 0x0 }
  - { offsetInCU: 0x42B90, offset: 0x46E2B9, size: 0x8, addend: 0x0, symName: __ZN19JoltDebugGeometry3D22_gde_binding_callbacksE, symObjAddr: 0x20CA8, symBinAddr: 0x340F68, symSize: 0x0 }
  - { offsetInCU: 0x4396B, offset: 0x46F094, size: 0x8, addend: 0x0, symName: __ZN16JoltEditorPlugin22_gde_binding_callbacksE, symObjAddr: 0x20C78, symBinAddr: 0x33BFE8, symSize: 0x0 }
  - { offsetInCU: 0x451FE, offset: 0x470927, size: 0x8, addend: 0x0, symName: _godot_jolt_main, symObjAddr: 0x0, symBinAddr: 0x2692F4, symSize: 0xF4 }
  - { offsetInCU: 0x47C6F, offset: 0x473398, size: 0x8, addend: 0x0, symName: __ZN12_GLOBAL__N_113on_initializeEN5godot25ModuleInitializationLevelE, symObjAddr: 0xF4, symBinAddr: 0x269600, symSize: 0x6C94 }
  - { offsetInCU: 0x577D8, offset: 0x482F01, size: 0x8, addend: 0x0, symName: __ZN12_GLOBAL__N_112on_terminateEN5godot25ModuleInitializationLevelE, symObjAddr: 0x6D88, symBinAddr: 0x2707B0, symSize: 0x10 }
  - { offsetInCU: 0x57801, offset: 0x482F2A, size: 0x8, addend: 0x0, symName: __ZN12_GLOBAL__N_126create_jolt_physics_serverEv, symObjAddr: 0x6D98, symBinAddr: 0x270F7C, symSize: 0x138 }
  - { offsetInCU: 0x5798E, offset: 0x4830B7, size: 0x8, addend: 0x0, symName: __ZNSt3__112__hash_tableINS_17__hash_value_typeIN5godot10StringNameEPK35GDExtensionInstanceBindingCallbacksEENS_22__unordered_map_hasherIS3_S7_NS_4hashIS3_EENS_8equal_toIS3_EELb1EEENS_21__unordered_map_equalIS3_S7_SC_SA_Lb1EEENS_9allocatorIS7_EEE25__emplace_unique_key_argsIS3_JRKNS_21piecewise_construct_tENS_5tupleIJRKS3_EEENSN_IJEEEEEENS_4pairINS_15__hash_iteratorIPNS_11__hash_nodeIS7_PvEEEEbEERKT_DpOT0_, symObjAddr: 0x79CC, symBinAddr: 0x2755F0, symSize: 0x34C }
  - { offsetInCU: 0x5808A, offset: 0x4837B3, size: 0x8, addend: 0x0, symName: __ZNSt3__112__hash_tableINS_17__hash_value_typeIN5godot10StringNameENS2_7ClassDB9ClassInfoEEENS_22__unordered_map_hasherIS3_S6_NS_4hashIS3_EENS_8equal_toIS3_EELb1EEENS_21__unordered_map_equalIS3_S6_SB_S9_Lb1EEENS_9allocatorIS6_EEE25__emplace_unique_key_argsIS3_JRKNS_21piecewise_construct_tENS_5tupleIJRKS3_EEENSM_IJEEEEEENS_4pairINS_15__hash_iteratorIPNS_11__hash_nodeIS6_PvEEEEbEERKT_DpOT0_, symObjAddr: 0x7EC4, symBinAddr: 0x27661C, symSize: 0x404 }
  - { offsetInCU: 0x58DC9, offset: 0x4844F2, size: 0x8, addend: 0x0, symName: __ZN5godot7ClassDB9ClassInfoaSERKS1_, symObjAddr: 0x6ED0, symBinAddr: 0x2715C4, symSize: 0x318 }
  - { offsetInCU: 0x59F1D, offset: 0x485646, size: 0x8, addend: 0x0, symName: __ZNSt3__16vectorIN5godot10StringNameENS_9allocatorIS2_EEE21__push_back_slow_pathIRKS2_EEvOT_, symObjAddr: 0x95C8, symBinAddr: 0x2796F4, symSize: 0x1B8 }
  - { offsetInCU: 0x5A494, offset: 0x485BBD, size: 0x8, addend: 0x0, symName: __ZN5godot7ClassDB9ClassInfoD2Ev, symObjAddr: 0xA488, symBinAddr: 0x28CEA8, symSize: 0xD8 }
  - { offsetInCU: 0x5AE3E, offset: 0x486567, size: 0x8, addend: 0x0, symName: __ZN5godot24PhysicsServer3DExtension17register_virtualsI19JoltPhysicsServer3DS0_EEvv, symObjAddr: 0xB954, symBinAddr: 0x29B4DC, symSize: 0x75E8 }
  - { offsetInCU: 0x6C96D, offset: 0x498096, size: 0x8, addend: 0x0, symName: __ZNSt3__112__hash_tableINS_17__hash_value_typeIN5godot10StringNameEPNS2_10MethodBindEEENS_22__unordered_map_hasherIS3_S6_NS_4hashIS3_EENS_8equal_toIS3_EELb1EEENS_21__unordered_map_equalIS3_S6_SB_S9_Lb1EEENS_9allocatorIS6_EEE19__node_insert_multiEPNS_11__hash_nodeIS6_PvEE, symObjAddr: 0x8474, symBinAddr: 0x277218, symSize: 0x5D8 }
  - { offsetInCU: 0x6D304, offset: 0x498A2D, size: 0x8, addend: 0x0, symName: __ZNSt3__16__treeIN5godot10StringNameENS_4lessIS2_EENS_9allocatorIS2_EEE14__assign_multiINS_21__tree_const_iteratorIS2_PNS_11__tree_nodeIS2_PvEElEEEEvT_SF_, symObjAddr: 0x8A4C, symBinAddr: 0x277C48, symSize: 0x3A0 }
  - { offsetInCU: 0x6DAE1, offset: 0x49920A, size: 0x8, addend: 0x0, symName: __ZNSt3__112__hash_tableINS_17__hash_value_typeIN5godot10StringNameEPFvPvPKPKvS4_EEENS_22__unordered_map_hasherIS3_SB_NS_4hashIS3_EENS_8equal_toIS3_EELb1EEENS_21__unordered_map_equalIS3_SB_SG_SE_Lb1EEENS_9allocatorISB_EEE19__node_insert_multiEPNS_11__hash_nodeISB_S4_EE, symObjAddr: 0x8FF0, symBinAddr: 0x278BB0, symSize: 0x5D8 }
  - { offsetInCU: 0x6E478, offset: 0x499BA1, size: 0x8, addend: 0x0, symName: __ZN28JoltPhysicsDirectBodyState3D8set_bindEPvPKvS2_, symObjAddr: 0x71E8, symBinAddr: 0x271E20, symSize: 0x8 }
  - { offsetInCU: 0x6E4B1, offset: 0x499BDA, size: 0x8, addend: 0x0, symName: __ZN28JoltPhysicsDirectBodyState3D8get_bindEPvPKvS0_, symObjAddr: 0x71F0, symBinAddr: 0x272518, symSize: 0x8 }
  - { offsetInCU: 0x6E50F, offset: 0x499C38, size: 0x8, addend: 0x0, symName: __ZN28JoltPhysicsDirectBodyState3D22get_property_list_bindEPvPj, symObjAddr: 0x71F8, symBinAddr: 0x272A64, symSize: 0x144 }
  - { offsetInCU: 0x6E814, offset: 0x499F3D, size: 0x8, addend: 0x0, symName: __ZN28JoltPhysicsDirectBodyState3D23free_property_list_bindEPvPK23GDExtensionPropertyInfoj, symObjAddr: 0x733C, symBinAddr: 0x273208, symSize: 0x14C }
  - { offsetInCU: 0x6EBCD, offset: 0x49A2F6, size: 0x8, addend: 0x0, symName: __ZN28JoltPhysicsDirectBodyState3D24property_can_revert_bindEPvPKv, symObjAddr: 0x7488, symBinAddr: 0x273744, symSize: 0x8 }
  - { offsetInCU: 0x6EBFA, offset: 0x49A323, size: 0x8, addend: 0x0, symName: __ZN28JoltPhysicsDirectBodyState3D24property_get_revert_bindEPvPKvS0_, symObjAddr: 0x7490, symBinAddr: 0x273A18, symSize: 0x8 }
  - { offsetInCU: 0x6ED3F, offset: 0x49A468, size: 0x8, addend: 0x0, symName: __ZN28JoltPhysicsDirectBodyState3D22validate_property_bindEPvP23GDExtensionPropertyInfo, symObjAddr: 0x7498, symBinAddr: 0x273C84, symSize: 0x154 }
  - { offsetInCU: 0x6F0DB, offset: 0x49A804, size: 0x8, addend: 0x0, symName: __ZN28JoltPhysicsDirectBodyState3D17notification_bindEPvih, symObjAddr: 0x75EC, symBinAddr: 0x2740E8, symSize: 0x4 }
  - { offsetInCU: 0x6F114, offset: 0x49A83D, size: 0x8, addend: 0x0, symName: __ZN28JoltPhysicsDirectBodyState3D14to_string_bindEPvPhS0_, symObjAddr: 0x75F0, symBinAddr: 0x2742FC, symSize: 0x88 }
  - { offsetInCU: 0x6F24D, offset: 0x49A976, size: 0x8, addend: 0x0, symName: __ZNK5godot7Wrapped10_to_stringEv, symObjAddr: 0x9780, symBinAddr: 0x279EA0, symSize: 0x298 }
  - { offsetInCU: 0x6FD50, offset: 0x49B479, size: 0x8, addend: 0x0, symName: __ZN5godot7ClassDB21_create_instance_funcI28JoltPhysicsDirectBodyState3DEEPvS3_, symObjAddr: 0x7678, symBinAddr: 0x274504, symSize: 0x1B4 }
  - { offsetInCU: 0x70155, offset: 0x49B87E, size: 0x8, addend: 0x0, symName: __ZN28JoltPhysicsDirectBodyState3D4freeEPvS0_, symObjAddr: 0x782C, symBinAddr: 0x274D18, symSize: 0x198 }
  - { offsetInCU: 0x70657, offset: 0x49BD80, size: 0x8, addend: 0x0, symName: __ZN5godot7ClassDB23_recreate_instance_funcI28JoltPhysicsDirectBodyState3DEEPvS3_S3_, symObjAddr: 0x79C4, symBinAddr: 0x2751A8, symSize: 0x8 }
  - { offsetInCU: 0x70A96, offset: 0x49C1BF, size: 0x8, addend: 0x0, symName: __ZNSt3__112__hash_tableINS_17__hash_value_typeIN5godot10StringNameEPK35GDExtensionInstanceBindingCallbacksEENS_22__unordered_map_hasherIS3_S7_NS_4hashIS3_EENS_8equal_toIS3_EELb1EEENS_21__unordered_map_equalIS3_S7_SC_SA_Lb1EEENS_9allocatorIS7_EEE11__do_rehashILb1EEEvm, symObjAddr: 0x7D18, symBinAddr: 0x275C10, symSize: 0x1AC }
  - { offsetInCU: 0x7132C, offset: 0x49CA55, size: 0x8, addend: 0x0, symName: __ZNSt3__112__hash_tableINS_17__hash_value_typeIN5godot10StringNameENS2_7ClassDB9ClassInfoEEENS_22__unordered_map_hasherIS3_S6_NS_4hashIS3_EENS_8equal_toIS3_EELb1EEENS_21__unordered_map_equalIS3_S6_SB_S9_Lb1EEENS_9allocatorIS6_EEE11__do_rehashILb1EEEvm, symObjAddr: 0x82C8, symBinAddr: 0x276C54, symSize: 0x1AC }
  - { offsetInCU: 0x71F64, offset: 0x49D68D, size: 0x8, addend: 0x0, symName: __ZNSt3__16__treeIN5godot10StringNameENS_4lessIS2_EENS_9allocatorIS2_EEE7destroyEPNS_11__tree_nodeIS2_PvEE, symObjAddr: 0x8FA0, symBinAddr: 0x2788CC, symSize: 0x50 }
  - { offsetInCU: 0x72883, offset: 0x49DFAC, size: 0x8, addend: 0x0, symName: __ZZN5godot33PhysicsDirectBodyState3DExtension17register_virtualsI28JoltPhysicsDirectBodyState3DS0_EEvvENUlPvPKPKvS3_E_8__invokeES3_S7_S3_, symObjAddr: 0x9A18, symBinAddr: 0x27A680, symSize: 0x30 }
  - { offsetInCU: 0x729E0, offset: 0x49E109, size: 0x8, addend: 0x0, symName: __ZZN5godot33PhysicsDirectBodyState3DExtension17register_virtualsI28JoltPhysicsDirectBodyState3DS0_EEvvENUlPvPKPKvS3_E0_8__invokeES3_S7_S3_, symObjAddr: 0x9A48, symBinAddr: 0x27AA58, symSize: 0x2C }
  - { offsetInCU: 0x72B0D, offset: 0x49E236, size: 0x8, addend: 0x0, symName: __ZZN5godot33PhysicsDirectBodyState3DExtension17register_virtualsI28JoltPhysicsDirectBodyState3DS0_EEvvENUlPvPKPKvS3_E1_8__invokeES3_S7_S3_, symObjAddr: 0x9A74, symBinAddr: 0x27AD28, symSize: 0x2C }
  - { offsetInCU: 0x72C3A, offset: 0x49E363, size: 0x8, addend: 0x0, symName: __ZZN5godot33PhysicsDirectBodyState3DExtension17register_virtualsI28JoltPhysicsDirectBodyState3DS0_EEvvENUlPvPKPKvS3_E2_8__invokeES3_S7_S3_, symObjAddr: 0x9AA0, symBinAddr: 0x27B2AC, symSize: 0x30 }
  - { offsetInCU: 0x72D5F, offset: 0x49E488, size: 0x8, addend: 0x0, symName: __ZZN5godot33PhysicsDirectBodyState3DExtension17register_virtualsI28JoltPhysicsDirectBodyState3DS0_EEvvENUlPvPKPKvS3_E3_8__invokeES3_S7_S3_, symObjAddr: 0x9AD0, symBinAddr: 0x27B5F0, symSize: 0x30 }
  - { offsetInCU: 0x72EBC, offset: 0x49E5E5, size: 0x8, addend: 0x0, symName: __ZZN5godot33PhysicsDirectBodyState3DExtension17register_virtualsI28JoltPhysicsDirectBodyState3DS0_EEvvENUlPvPKPKvS3_E4_8__invokeES3_S7_S3_, symObjAddr: 0x9B00, symBinAddr: 0x27BC8C, symSize: 0x48 }
  - { offsetInCU: 0x72FEA, offset: 0x49E713, size: 0x8, addend: 0x0, symName: __ZZN5godot33PhysicsDirectBodyState3DExtension17register_virtualsI28JoltPhysicsDirectBodyState3DS0_EEvvENUlPvPKPKvS3_E5_8__invokeES3_S7_S3_, symObjAddr: 0x9B48, symBinAddr: 0x27C190, symSize: 0x2C }
  - { offsetInCU: 0x73117, offset: 0x49E840, size: 0x8, addend: 0x0, symName: __ZZN5godot33PhysicsDirectBodyState3DExtension17register_virtualsI28JoltPhysicsDirectBodyState3DS0_EEvvENUlPvPKPKvS3_E6_8__invokeES3_S7_S3_, symObjAddr: 0x9B74, symBinAddr: 0x27CA10, symSize: 0x30 }
  - { offsetInCU: 0x7323C, offset: 0x49E965, size: 0x8, addend: 0x0, symName: __ZZN5godot33PhysicsDirectBodyState3DExtension17register_virtualsI28JoltPhysicsDirectBodyState3DS0_EEvvENUlPvPKPKvS3_E7_8__invokeES3_S7_S3_, symObjAddr: 0x9BA4, symBinAddr: 0x27CF44, symSize: 0x48 }
  - { offsetInCU: 0x73395, offset: 0x49EABE, size: 0x8, addend: 0x0, symName: __ZZN5godot33PhysicsDirectBodyState3DExtension17register_virtualsI28JoltPhysicsDirectBodyState3DS0_EEvvENUlPvPKPKvS3_E8_8__invokeES3_S7_S3_, symObjAddr: 0x9BEC, symBinAddr: 0x27D520, symSize: 0x3C }
  - { offsetInCU: 0x734BA, offset: 0x49EBE3, size: 0x8, addend: 0x0, symName: __ZZN5godot33PhysicsDirectBodyState3DExtension17register_virtualsI28JoltPhysicsDirectBodyState3DS0_EEvvENUlPvPKPKvS3_E9_8__invokeES3_S7_S3_, symObjAddr: 0x9C28, symBinAddr: 0x27D9F0, symSize: 0x30 }
  - { offsetInCU: 0x735DF, offset: 0x49ED08, size: 0x8, addend: 0x0, symName: __ZZN5godot33PhysicsDirectBodyState3DExtension17register_virtualsI28JoltPhysicsDirectBodyState3DS0_EEvvENUlPvPKPKvS3_E10_8__invokeES3_S7_S3_, symObjAddr: 0x9C58, symBinAddr: 0x27DD4C, symSize: 0x3C }
  - { offsetInCU: 0x73704, offset: 0x49EE2D, size: 0x8, addend: 0x0, symName: __ZZN5godot33PhysicsDirectBodyState3DExtension17register_virtualsI28JoltPhysicsDirectBodyState3DS0_EEvvENUlPvPKPKvS3_E11_8__invokeES3_S7_S3_, symObjAddr: 0x9C94, symBinAddr: 0x27E188, symSize: 0x30 }
  - { offsetInCU: 0x73854, offset: 0x49EF7D, size: 0x8, addend: 0x0, symName: __ZZN5godot33PhysicsDirectBodyState3DExtension17register_virtualsI28JoltPhysicsDirectBodyState3DS0_EEvvENUlPvPKPKvS3_E12_8__invokeES3_S7_S3_, symObjAddr: 0x9CC4, symBinAddr: 0x27E5C0, symSize: 0x3C }
  - { offsetInCU: 0x739B1, offset: 0x49F0DA, size: 0x8, addend: 0x0, symName: __ZZN5godot33PhysicsDirectBodyState3DExtension17register_virtualsI28JoltPhysicsDirectBodyState3DS0_EEvvENUlPvPKPKvS3_E13_8__invokeES3_S7_S3_, symObjAddr: 0x9D00, symBinAddr: 0x27EF8C, symSize: 0x44 }
  - { offsetInCU: 0x73AF8, offset: 0x49F221, size: 0x8, addend: 0x0, symName: __ZZN5godot33PhysicsDirectBodyState3DExtension17register_virtualsI28JoltPhysicsDirectBodyState3DS0_EEvvENUlPvPKPKvS3_E14_8__invokeES3_S7_S3_, symObjAddr: 0x9D44, symBinAddr: 0x27F0F0, symSize: 0x54 }
  - { offsetInCU: 0x73C59, offset: 0x49F382, size: 0x8, addend: 0x0, symName: __ZZN5godot33PhysicsDirectBodyState3DExtension17register_virtualsI28JoltPhysicsDirectBodyState3DS0_EEvvENUlPvPKPKvS3_E15_8__invokeES3_S7_S3_, symObjAddr: 0x9D98, symBinAddr: 0x27F69C, symSize: 0x3C }
  - { offsetInCU: 0x73D99, offset: 0x49F4C2, size: 0x8, addend: 0x0, symName: __ZZN5godot33PhysicsDirectBodyState3DExtension17register_virtualsI28JoltPhysicsDirectBodyState3DS0_EEvvENUlPvPKPKvS3_E16_8__invokeES3_S7_S3_, symObjAddr: 0x9DD4, symBinAddr: 0x27F9BC, symSize: 0x50 }
  - { offsetInCU: 0x73EDB, offset: 0x49F604, size: 0x8, addend: 0x0, symName: __ZZN5godot33PhysicsDirectBodyState3DExtension17register_virtualsI28JoltPhysicsDirectBodyState3DS0_EEvvENUlPvPKPKvS3_E17_8__invokeES3_S7_S3_, symObjAddr: 0x9E24, symBinAddr: 0x14834C, symSize: 0x3C }
  - { offsetInCU: 0x74000, offset: 0x49F729, size: 0x8, addend: 0x0, symName: __ZZN5godot33PhysicsDirectBodyState3DExtension17register_virtualsI28JoltPhysicsDirectBodyState3DS0_EEvvENUlPvPKPKvS3_E18_8__invokeES3_S7_S3_, symObjAddr: 0x9E60, symBinAddr: 0x2810A0, symSize: 0x3C }
  - { offsetInCU: 0x74125, offset: 0x49F84E, size: 0x8, addend: 0x0, symName: __ZZN5godot33PhysicsDirectBodyState3DExtension17register_virtualsI28JoltPhysicsDirectBodyState3DS0_EEvvENUlPvPKPKvS3_E19_8__invokeES3_S7_S3_, symObjAddr: 0x9E9C, symBinAddr: 0x29A80, symSize: 0x50 }
  - { offsetInCU: 0x74267, offset: 0x49F990, size: 0x8, addend: 0x0, symName: __ZZN5godot33PhysicsDirectBodyState3DExtension17register_virtualsI28JoltPhysicsDirectBodyState3DS0_EEvvENUlPvPKPKvS3_E20_8__invokeES3_S7_S3_, symObjAddr: 0x9EEC, symBinAddr: 0x281A00, symSize: 0x3C }
  - { offsetInCU: 0x7438C, offset: 0x49FAB5, size: 0x8, addend: 0x0, symName: __ZZN5godot33PhysicsDirectBodyState3DExtension17register_virtualsI28JoltPhysicsDirectBodyState3DS0_EEvvENUlPvPKPKvS3_E21_8__invokeES3_S7_S3_, symObjAddr: 0x9F28, symBinAddr: 0x2823E4, symSize: 0x3C }
  - { offsetInCU: 0x744B1, offset: 0x49FBDA, size: 0x8, addend: 0x0, symName: __ZZN5godot33PhysicsDirectBodyState3DExtension17register_virtualsI28JoltPhysicsDirectBodyState3DS0_EEvvENUlPvPKPKvS3_E22_8__invokeES3_S7_S3_, symObjAddr: 0x9F64, symBinAddr: 0x149A8C, symSize: 0x50 }
  - { offsetInCU: 0x745F3, offset: 0x49FD1C, size: 0x8, addend: 0x0, symName: __ZZN5godot33PhysicsDirectBodyState3DExtension17register_virtualsI28JoltPhysicsDirectBodyState3DS0_EEvvENUlPvPKPKvS3_E23_8__invokeES3_S7_S3_, symObjAddr: 0x9FB4, symBinAddr: 0x283000, symSize: 0x3C }
  - { offsetInCU: 0x74718, offset: 0x49FE41, size: 0x8, addend: 0x0, symName: __ZZN5godot33PhysicsDirectBodyState3DExtension17register_virtualsI28JoltPhysicsDirectBodyState3DS0_EEvvENUlPvPKPKvS3_E24_8__invokeES3_S7_S3_, symObjAddr: 0x9FF0, symBinAddr: 0x283A68, symSize: 0x3C }
  - { offsetInCU: 0x7483D, offset: 0x49FF66, size: 0x8, addend: 0x0, symName: __ZZN5godot33PhysicsDirectBodyState3DExtension17register_virtualsI28JoltPhysicsDirectBodyState3DS0_EEvvENUlPvPKPKvS3_E25_8__invokeES3_S7_S3_, symObjAddr: 0xA02C, symBinAddr: 0x284264, symSize: 0x30 }
  - { offsetInCU: 0x74962, offset: 0x4A008B, size: 0x8, addend: 0x0, symName: __ZZN5godot33PhysicsDirectBodyState3DExtension17register_virtualsI28JoltPhysicsDirectBodyState3DS0_EEvvENUlPvPKPKvS3_E26_8__invokeES3_S7_S3_, symObjAddr: 0xA05C, symBinAddr: 0x284E24, symSize: 0x3C }
  - { offsetInCU: 0x74A87, offset: 0x4A01B0, size: 0x8, addend: 0x0, symName: __ZZN5godot33PhysicsDirectBodyState3DExtension17register_virtualsI28JoltPhysicsDirectBodyState3DS0_EEvvENUlPvPKPKvS3_E27_8__invokeES3_S7_S3_, symObjAddr: 0xA098, symBinAddr: 0x28531C, symSize: 0x30 }
  - { offsetInCU: 0x74BD7, offset: 0x4A0300, size: 0x8, addend: 0x0, symName: __ZZN5godot33PhysicsDirectBodyState3DExtension17register_virtualsI28JoltPhysicsDirectBodyState3DS0_EEvvENUlPvPKPKvS3_E28_8__invokeES3_S7_S3_, symObjAddr: 0xA0C8, symBinAddr: 0x14B7B8, symSize: 0x1C }
  - { offsetInCU: 0x74C19, offset: 0x4A0342, size: 0x8, addend: 0x0, symName: __ZZN5godot33PhysicsDirectBodyState3DExtension17register_virtualsI28JoltPhysicsDirectBodyState3DS0_EEvvENUlPvPKPKvS3_E28_8__invokeES3_S7_S3_, symObjAddr: 0xA0C8, symBinAddr: 0x14B7B8, symSize: 0x1C }
  - { offsetInCU: 0x74C3D, offset: 0x4A0366, size: 0x8, addend: 0x0, symName: __ZZN5godot33PhysicsDirectBodyState3DExtension17register_virtualsI28JoltPhysicsDirectBodyState3DS0_EEvvENUlPvPKPKvS3_E28_8__invokeES3_S7_S3_, symObjAddr: 0xA0C8, symBinAddr: 0x14B7B8, symSize: 0x1C }
  - { offsetInCU: 0x74C61, offset: 0x4A038A, size: 0x8, addend: 0x0, symName: __ZZN5godot33PhysicsDirectBodyState3DExtension17register_virtualsI28JoltPhysicsDirectBodyState3DS0_EEvvENUlPvPKPKvS3_E28_8__invokeES3_S7_S3_, symObjAddr: 0xA0C8, symBinAddr: 0x14B7B8, symSize: 0x1C }
  - { offsetInCU: 0x74D35, offset: 0x4A045E, size: 0x8, addend: 0x0, symName: __ZZN5godot33PhysicsDirectBodyState3DExtension17register_virtualsI28JoltPhysicsDirectBodyState3DS0_EEvvENUlPvPKPKvS3_E29_8__invokeES3_S7_S3_, symObjAddr: 0xA0E4, symBinAddr: 0x28664C, symSize: 0x2C }
  - { offsetInCU: 0x74E92, offset: 0x4A05BB, size: 0x8, addend: 0x0, symName: __ZZN5godot33PhysicsDirectBodyState3DExtension17register_virtualsI28JoltPhysicsDirectBodyState3DS0_EEvvENUlPvPKPKvS3_E30_8__invokeES3_S7_S3_, symObjAddr: 0xA110, symBinAddr: 0x28671C, symSize: 0x30 }
  - { offsetInCU: 0x74FEE, offset: 0x4A0717, size: 0x8, addend: 0x0, symName: __ZZN5godot33PhysicsDirectBodyState3DExtension17register_virtualsI28JoltPhysicsDirectBodyState3DS0_EEvvENUlPvPKPKvS3_E31_8__invokeES3_S7_S3_, symObjAddr: 0xA140, symBinAddr: 0x288EF8, symSize: 0x38 }
  - { offsetInCU: 0x7514F, offset: 0x4A0878, size: 0x8, addend: 0x0, symName: __ZZN5godot33PhysicsDirectBodyState3DExtension17register_virtualsI28JoltPhysicsDirectBodyState3DS0_EEvvENUlPvPKPKvS3_E32_8__invokeES3_S7_S3_, symObjAddr: 0xA178, symBinAddr: 0x289418, symSize: 0x38 }
  - { offsetInCU: 0x752B0, offset: 0x4A09D9, size: 0x8, addend: 0x0, symName: __ZZN5godot33PhysicsDirectBodyState3DExtension17register_virtualsI28JoltPhysicsDirectBodyState3DS0_EEvvENUlPvPKPKvS3_E33_8__invokeES3_S7_S3_, symObjAddr: 0xA1B0, symBinAddr: 0x2897C4, symSize: 0x38 }
  - { offsetInCU: 0x7542C, offset: 0x4A0B55, size: 0x8, addend: 0x0, symName: __ZZN5godot33PhysicsDirectBodyState3DExtension17register_virtualsI28JoltPhysicsDirectBodyState3DS0_EEvvENUlPvPKPKvS3_E34_8__invokeES3_S7_S3_, symObjAddr: 0xA1E8, symBinAddr: 0x289980, symSize: 0x38 }
  - { offsetInCU: 0x75594, offset: 0x4A0CBD, size: 0x8, addend: 0x0, symName: __ZZN5godot33PhysicsDirectBodyState3DExtension17register_virtualsI28JoltPhysicsDirectBodyState3DS0_EEvvENUlPvPKPKvS3_E35_8__invokeES3_S7_S3_, symObjAddr: 0xA220, symBinAddr: 0x1BC1C, symSize: 0x38 }
  - { offsetInCU: 0x75732, offset: 0x4A0E5B, size: 0x8, addend: 0x0, symName: __ZZN5godot33PhysicsDirectBodyState3DExtension17register_virtualsI28JoltPhysicsDirectBodyState3DS0_EEvvENUlPvPKPKvS3_E36_8__invokeES3_S7_S3_, symObjAddr: 0xA258, symBinAddr: 0x28A96C, symSize: 0x84 }
  - { offsetInCU: 0x75903, offset: 0x4A102C, size: 0x8, addend: 0x0, symName: __ZZN5godot33PhysicsDirectBodyState3DExtension17register_virtualsI28JoltPhysicsDirectBodyState3DS0_EEvvENUlPvPKPKvS3_E37_8__invokeES3_S7_S3_, symObjAddr: 0xA2DC, symBinAddr: 0x28ADF4, symSize: 0x38 }
  - { offsetInCU: 0x75AA1, offset: 0x4A11CA, size: 0x8, addend: 0x0, symName: __ZZN5godot33PhysicsDirectBodyState3DExtension17register_virtualsI28JoltPhysicsDirectBodyState3DS0_EEvvENUlPvPKPKvS3_E38_8__invokeES3_S7_S3_, symObjAddr: 0xA314, symBinAddr: 0x28B84C, symSize: 0x34 }
  - { offsetInCU: 0x75C46, offset: 0x4A136F, size: 0x8, addend: 0x0, symName: __ZZN5godot33PhysicsDirectBodyState3DExtension17register_virtualsI28JoltPhysicsDirectBodyState3DS0_EEvvENUlPvPKPKvS3_E39_8__invokeES3_S7_S3_, symObjAddr: 0xA348, symBinAddr: 0xA5164, symSize: 0x50 }
  - { offsetInCU: 0x75D91, offset: 0x4A14BA, size: 0x8, addend: 0x0, symName: __ZZN5godot33PhysicsDirectBodyState3DExtension17register_virtualsI28JoltPhysicsDirectBodyState3DS0_EEvvENUlPvPKPKvS3_E40_8__invokeES3_S7_S3_, symObjAddr: 0xA398, symBinAddr: 0x28BF1C, symSize: 0x38 }
  - { offsetInCU: 0x75EF9, offset: 0x4A1622, size: 0x8, addend: 0x0, symName: __ZZN5godot33PhysicsDirectBodyState3DExtension17register_virtualsI28JoltPhysicsDirectBodyState3DS0_EEvvENUlPvPKPKvS3_E41_8__invokeES3_S7_S3_, symObjAddr: 0xA3D0, symBinAddr: 0x28C04C, symSize: 0x38 }
  - { offsetInCU: 0x7605A, offset: 0x4A1783, size: 0x8, addend: 0x0, symName: __ZZN5godot33PhysicsDirectBodyState3DExtension17register_virtualsI28JoltPhysicsDirectBodyState3DS0_EEvvENUlPvPKPKvS3_E42_8__invokeES3_S7_S3_, symObjAddr: 0xA408, symBinAddr: 0x28C4FC, symSize: 0x2C }
  - { offsetInCU: 0x76198, offset: 0x4A18C1, size: 0x8, addend: 0x0, symName: __ZZN5godot33PhysicsDirectBodyState3DExtension17register_virtualsI28JoltPhysicsDirectBodyState3DS0_EEvvENUlPvPKPKvS3_E43_8__invokeES3_S7_S3_, symObjAddr: 0xA434, symBinAddr: 0x4E0A0, symSize: 0xC }
  - { offsetInCU: 0x761D6, offset: 0x4A18FF, size: 0x8, addend: 0x0, symName: __ZZN5godot33PhysicsDirectBodyState3DExtension17register_virtualsI28JoltPhysicsDirectBodyState3DS0_EEvvENUlPvPKPKvS3_E43_8__invokeES3_S7_S3_, symObjAddr: 0xA434, symBinAddr: 0x4E0A0, symSize: 0xC }
  - { offsetInCU: 0x761F1, offset: 0x4A191A, size: 0x8, addend: 0x0, symName: __ZZN5godot33PhysicsDirectBodyState3DExtension17register_virtualsI28JoltPhysicsDirectBodyState3DS0_EEvvENUlPvPKPKvS3_E43_8__invokeES3_S7_S3_, symObjAddr: 0xA434, symBinAddr: 0x4E0A0, symSize: 0xC }
  - { offsetInCU: 0x7620C, offset: 0x4A1935, size: 0x8, addend: 0x0, symName: __ZZN5godot33PhysicsDirectBodyState3DExtension17register_virtualsI28JoltPhysicsDirectBodyState3DS0_EEvvENUlPvPKPKvS3_E43_8__invokeES3_S7_S3_, symObjAddr: 0xA434, symBinAddr: 0x4E0A0, symSize: 0xC }
  - { offsetInCU: 0x762B8, offset: 0x4A19E1, size: 0x8, addend: 0x0, symName: __ZZN5godot33PhysicsDirectBodyState3DExtension17register_virtualsI28JoltPhysicsDirectBodyState3DS0_EEvvENUlPvPKPKvS3_E44_8__invokeES3_S7_S3_, symObjAddr: 0xA440, symBinAddr: 0x28CB8C, symSize: 0x48 }
  - { offsetInCU: 0x76586, offset: 0x4A1CAF, size: 0x8, addend: 0x0, symName: __ZN29JoltPhysicsDirectSpaceState3D8set_bindEPvPKvS2_, symObjAddr: 0xA560, symBinAddr: 0x28D2F4, symSize: 0x8 }
  - { offsetInCU: 0x765BF, offset: 0x4A1CE8, size: 0x8, addend: 0x0, symName: __ZN29JoltPhysicsDirectSpaceState3D8get_bindEPvPKvS0_, symObjAddr: 0xA568, symBinAddr: 0x28D59C, symSize: 0x8 }
  - { offsetInCU: 0x765F8, offset: 0x4A1D21, size: 0x8, addend: 0x0, symName: __ZN29JoltPhysicsDirectSpaceState3D22get_property_list_bindEPvPj, symObjAddr: 0xA570, symBinAddr: 0x28E0B8, symSize: 0x144 }
  - { offsetInCU: 0x767F9, offset: 0x4A1F22, size: 0x8, addend: 0x0, symName: __ZN29JoltPhysicsDirectSpaceState3D23free_property_list_bindEPvPK23GDExtensionPropertyInfoj, symObjAddr: 0xA6B4, symBinAddr: 0x28EA30, symSize: 0x14C }
  - { offsetInCU: 0x76BB2, offset: 0x4A22DB, size: 0x8, addend: 0x0, symName: __ZN29JoltPhysicsDirectSpaceState3D24property_can_revert_bindEPvPKv, symObjAddr: 0xA800, symBinAddr: 0x28F060, symSize: 0x8 }
  - { offsetInCU: 0x76BDF, offset: 0x4A2308, size: 0x8, addend: 0x0, symName: __ZN29JoltPhysicsDirectSpaceState3D24property_get_revert_bindEPvPKvS0_, symObjAddr: 0xA808, symBinAddr: 0x28F384, symSize: 0x8 }
  - { offsetInCU: 0x76C18, offset: 0x4A2341, size: 0x8, addend: 0x0, symName: __ZN29JoltPhysicsDirectSpaceState3D22validate_property_bindEPvP23GDExtensionPropertyInfo, symObjAddr: 0xA810, symBinAddr: 0x28F6A0, symSize: 0x154 }
  - { offsetInCU: 0x76FB4, offset: 0x4A26DD, size: 0x8, addend: 0x0, symName: __ZN29JoltPhysicsDirectSpaceState3D17notification_bindEPvih, symObjAddr: 0xA964, symBinAddr: 0x290158, symSize: 0x4 }
  - { offsetInCU: 0x76FED, offset: 0x4A2716, size: 0x8, addend: 0x0, symName: __ZN29JoltPhysicsDirectSpaceState3D14to_string_bindEPvPhS0_, symObjAddr: 0xA968, symBinAddr: 0x290890, symSize: 0x88 }
  - { offsetInCU: 0x771C0, offset: 0x4A28E9, size: 0x8, addend: 0x0, symName: __ZN5godot7ClassDB21_create_instance_funcI29JoltPhysicsDirectSpaceState3DEEPvS3_, symObjAddr: 0xA9F0, symBinAddr: 0x290D74, symSize: 0x1B4 }
  - { offsetInCU: 0x7755D, offset: 0x4A2C86, size: 0x8, addend: 0x0, symName: __ZN29JoltPhysicsDirectSpaceState3D4freeEPvS0_, symObjAddr: 0xABA4, symBinAddr: 0x2913AC, symSize: 0x198 }
  - { offsetInCU: 0x77A5F, offset: 0x4A3188, size: 0x8, addend: 0x0, symName: __ZN5godot7ClassDB23_recreate_instance_funcI29JoltPhysicsDirectSpaceState3DEEPvS3_S3_, symObjAddr: 0xAD3C, symBinAddr: 0xA6B54, symSize: 0x8 }
  - { offsetInCU: 0x77A95, offset: 0x4A31BE, size: 0x8, addend: 0x0, symName: __ZN29JoltPhysicsDirectSpaceState3D28_gde_binding_create_callbackEPvS0_, symObjAddr: 0xAD44, symBinAddr: 0x292038, symSize: 0x8 }
  - { offsetInCU: 0x77AC8, offset: 0x4A31F1, size: 0x8, addend: 0x0, symName: __ZN29JoltPhysicsDirectSpaceState3D26_gde_binding_free_callbackEPvS0_S0_, symObjAddr: 0xAD4C, symBinAddr: 0x292590, symSize: 0x4 }
  - { offsetInCU: 0x77B07, offset: 0x4A3230, size: 0x8, addend: 0x0, symName: __ZN29JoltPhysicsDirectSpaceState3D31_gde_binding_reference_callbackEPvS0_h, symObjAddr: 0xAD50, symBinAddr: 0x292A24, symSize: 0x8 }
  - { offsetInCU: 0x77C3D, offset: 0x4A3366, size: 0x8, addend: 0x0, symName: __ZZN5godot34PhysicsDirectSpaceState3DExtension17register_virtualsI29JoltPhysicsDirectSpaceState3DS0_EEvvENUlPvPKPKvS3_E_8__invokeES3_S7_S3_, symObjAddr: 0xAD58, symBinAddr: 0x29308C, symSize: 0xBC }
  - { offsetInCU: 0x77F06, offset: 0x4A362F, size: 0x8, addend: 0x0, symName: __ZZN5godot34PhysicsDirectSpaceState3DExtension17register_virtualsI29JoltPhysicsDirectSpaceState3DS0_EEvvENUlPvPKPKvS3_E0_8__invokeES3_S7_S3_, symObjAddr: 0xAE14, symBinAddr: 0x293464, symSize: 0x7C }
  - { offsetInCU: 0x7816E, offset: 0x4A3897, size: 0x8, addend: 0x0, symName: __ZZN5godot34PhysicsDirectSpaceState3DExtension17register_virtualsI29JoltPhysicsDirectSpaceState3DS0_EEvvENUlPvPKPKvS3_E1_8__invokeES3_S7_S3_, symObjAddr: 0xAE90, symBinAddr: 0x293F5C, symSize: 0x100 }
  - { offsetInCU: 0x784FD, offset: 0x4A3C26, size: 0x8, addend: 0x0, symName: __ZZN5godot34PhysicsDirectSpaceState3DExtension17register_virtualsI29JoltPhysicsDirectSpaceState3DS0_EEvvENUlPvPKPKvS3_E2_8__invokeES3_S7_S3_, symObjAddr: 0xAF90, symBinAddr: 0x294404, symSize: 0x104 }
  - { offsetInCU: 0x7885C, offset: 0x4A3F85, size: 0x8, addend: 0x0, symName: __ZZN5godot34PhysicsDirectSpaceState3DExtension17register_virtualsI29JoltPhysicsDirectSpaceState3DS0_EEvvENUlPvPKPKvS3_E3_8__invokeES3_S7_S3_, symObjAddr: 0xB094, symBinAddr: 0x294A64, symSize: 0x108 }
  - { offsetInCU: 0x78BC2, offset: 0x4A42EB, size: 0x8, addend: 0x0, symName: __ZZN5godot34PhysicsDirectSpaceState3DExtension17register_virtualsI29JoltPhysicsDirectSpaceState3DS0_EEvvENUlPvPKPKvS3_E4_8__invokeES3_S7_S3_, symObjAddr: 0xB19C, symBinAddr: 0x294FCC, symSize: 0xF4 }
  - { offsetInCU: 0x78E90, offset: 0x4A45B9, size: 0x8, addend: 0x0, symName: __ZZN5godot34PhysicsDirectSpaceState3DExtension17register_virtualsI29JoltPhysicsDirectSpaceState3DS0_EEvvENUlPvPKPKvS3_E5_8__invokeES3_S7_S3_, symObjAddr: 0xB290, symBinAddr: 0x295674, symSize: 0xB8 }
  - { offsetInCU: 0x7904B, offset: 0x4A4774, size: 0x8, addend: 0x0, symName: __ZN19JoltPhysicsServer3D8set_bindEPvPKvS2_, symObjAddr: 0xB348, symBinAddr: 0x295B8C, symSize: 0x8 }
  - { offsetInCU: 0x79084, offset: 0x4A47AD, size: 0x8, addend: 0x0, symName: __ZN19JoltPhysicsServer3D8get_bindEPvPKvS0_, symObjAddr: 0xB350, symBinAddr: 0x295FF8, symSize: 0x8 }
  - { offsetInCU: 0x790BD, offset: 0x4A47E6, size: 0x8, addend: 0x0, symName: __ZN19JoltPhysicsServer3D22get_property_list_bindEPvPj, symObjAddr: 0xB358, symBinAddr: 0x51A48, symSize: 0x144 }
  - { offsetInCU: 0x792BE, offset: 0x4A49E7, size: 0x8, addend: 0x0, symName: __ZN19JoltPhysicsServer3D23free_property_list_bindEPvPK23GDExtensionPropertyInfoj, symObjAddr: 0xB49C, symBinAddr: 0x296660, symSize: 0x14C }
  - { offsetInCU: 0x79677, offset: 0x4A4DA0, size: 0x8, addend: 0x0, symName: __ZN19JoltPhysicsServer3D24property_can_revert_bindEPvPKv, symObjAddr: 0xB5E8, symBinAddr: 0x296B94, symSize: 0x8 }
  - { offsetInCU: 0x796A4, offset: 0x4A4DCD, size: 0x8, addend: 0x0, symName: __ZN19JoltPhysicsServer3D24property_get_revert_bindEPvPKvS0_, symObjAddr: 0xB5F0, symBinAddr: 0x2972D4, symSize: 0x8 }
  - { offsetInCU: 0x796DD, offset: 0x4A4E06, size: 0x8, addend: 0x0, symName: __ZN19JoltPhysicsServer3D22validate_property_bindEPvP23GDExtensionPropertyInfo, symObjAddr: 0xB5F8, symBinAddr: 0x297BE0, symSize: 0x154 }
  - { offsetInCU: 0x79A79, offset: 0x4A51A2, size: 0x8, addend: 0x0, symName: __ZN19JoltPhysicsServer3D17notification_bindEPvih, symObjAddr: 0xB74C, symBinAddr: 0x298274, symSize: 0x4 }
  - { offsetInCU: 0x79AB2, offset: 0x4A51DB, size: 0x8, addend: 0x0, symName: __ZN19JoltPhysicsServer3D14to_string_bindEPvPhS0_, symObjAddr: 0xB750, symBinAddr: 0x29880C, symSize: 0x88 }
  - { offsetInCU: 0x79BEB, offset: 0x4A5314, size: 0x8, addend: 0x0, symName: __ZN5godot7ClassDB21_create_instance_funcI19JoltPhysicsServer3DEEPvS3_, symObjAddr: 0xB7D8, symBinAddr: 0x29920C, symSize: 0x138 }
  - { offsetInCU: 0x79D91, offset: 0x4A54BA, size: 0x8, addend: 0x0, symName: __ZN19JoltPhysicsServer3D4freeEPvS0_, symObjAddr: 0xB910, symBinAddr: 0x299778, symSize: 0x28 }
  - { offsetInCU: 0x79E37, offset: 0x4A5560, size: 0x8, addend: 0x0, symName: __ZN5godot7ClassDB23_recreate_instance_funcI19JoltPhysicsServer3DEEPvS3_S3_, symObjAddr: 0xB938, symBinAddr: 0x299C88, symSize: 0x8 }
  - { offsetInCU: 0x79E6D, offset: 0x4A5596, size: 0x8, addend: 0x0, symName: __ZN19JoltPhysicsServer3D28_gde_binding_create_callbackEPvS0_, symObjAddr: 0xB940, symBinAddr: 0x299F28, symSize: 0x8 }
  - { offsetInCU: 0x79EA0, offset: 0x4A55C9, size: 0x8, addend: 0x0, symName: __ZN19JoltPhysicsServer3D26_gde_binding_free_callbackEPvS0_S0_, symObjAddr: 0xB948, symBinAddr: 0x29A384, symSize: 0x4 }
  - { offsetInCU: 0x79EDF, offset: 0x4A5608, size: 0x8, addend: 0x0, symName: __ZN19JoltPhysicsServer3D31_gde_binding_reference_callbackEPvS0_h, symObjAddr: 0xB94C, symBinAddr: 0x29A750, symSize: 0x8 }
  - { offsetInCU: 0x79F86, offset: 0x4A56AF, size: 0x8, addend: 0x0, symName: __ZZN5godot24PhysicsServer3DExtension17register_virtualsI19JoltPhysicsServer3DS0_EEvvENUlPvPKPKvS3_E_8__invokeES3_S7_S3_, symObjAddr: 0x12F3C, symBinAddr: 0x2A3B00, symSize: 0x7C }
  - { offsetInCU: 0x7A12B, offset: 0x4A5854, size: 0x8, addend: 0x0, symName: __ZZN5godot24PhysicsServer3DExtension17register_virtualsI19JoltPhysicsServer3DS0_EEvvENUlPvPKPKvS3_E0_8__invokeES3_S7_S3_, symObjAddr: 0x12FB8, symBinAddr: 0x2A3E1C, symSize: 0x7C }
  - { offsetInCU: 0x7A2D0, offset: 0x4A59F9, size: 0x8, addend: 0x0, symName: __ZZN5godot24PhysicsServer3DExtension17register_virtualsI19JoltPhysicsServer3DS0_EEvvENUlPvPKPKvS3_E1_8__invokeES3_S7_S3_, symObjAddr: 0x13034, symBinAddr: 0x2A4330, symSize: 0x7C }
  - { offsetInCU: 0x7A475, offset: 0x4A5B9E, size: 0x8, addend: 0x0, symName: __ZZN5godot24PhysicsServer3DExtension17register_virtualsI19JoltPhysicsServer3DS0_EEvvENUlPvPKPKvS3_E2_8__invokeES3_S7_S3_, symObjAddr: 0x130B0, symBinAddr: 0x2A4B44, symSize: 0x7C }
  - { offsetInCU: 0x7A61A, offset: 0x4A5D43, size: 0x8, addend: 0x0, symName: __ZZN5godot24PhysicsServer3DExtension17register_virtualsI19JoltPhysicsServer3DS0_EEvvENUlPvPKPKvS3_E3_8__invokeES3_S7_S3_, symObjAddr: 0x1312C, symBinAddr: 0x16103C, symSize: 0x7C }
  - { offsetInCU: 0x7A7BF, offset: 0x4A5EE8, size: 0x8, addend: 0x0, symName: __ZZN5godot24PhysicsServer3DExtension17register_virtualsI19JoltPhysicsServer3DS0_EEvvENUlPvPKPKvS3_E4_8__invokeES3_S7_S3_, symObjAddr: 0x131A8, symBinAddr: 0x2A5E48, symSize: 0x7C }
  - { offsetInCU: 0x7A964, offset: 0x4A608D, size: 0x8, addend: 0x0, symName: __ZZN5godot24PhysicsServer3DExtension17register_virtualsI19JoltPhysicsServer3DS0_EEvvENUlPvPKPKvS3_E5_8__invokeES3_S7_S3_, symObjAddr: 0x13224, symBinAddr: 0x2A6960, symSize: 0x7C }
  - { offsetInCU: 0x7AB09, offset: 0x4A6232, size: 0x8, addend: 0x0, symName: __ZZN5godot24PhysicsServer3DExtension17register_virtualsI19JoltPhysicsServer3DS0_EEvvENUlPvPKPKvS3_E6_8__invokeES3_S7_S3_, symObjAddr: 0x132A0, symBinAddr: 0xB0568, symSize: 0x7C }
  - { offsetInCU: 0x7ACAE, offset: 0x4A63D7, size: 0x8, addend: 0x0, symName: __ZZN5godot24PhysicsServer3DExtension17register_virtualsI19JoltPhysicsServer3DS0_EEvvENUlPvPKPKvS3_E7_8__invokeES3_S7_S3_, symObjAddr: 0x1331C, symBinAddr: 0x2A9F5C, symSize: 0x7C }
  - { offsetInCU: 0x7AE53, offset: 0x4A657C, size: 0x8, addend: 0x0, symName: __ZZN5godot24PhysicsServer3DExtension17register_virtualsI19JoltPhysicsServer3DS0_EEvvENUlPvPKPKvS3_E8_8__invokeES3_S7_S3_, symObjAddr: 0x13398, symBinAddr: 0x2AA220, symSize: 0x7C }
  - { offsetInCU: 0x7B028, offset: 0x4A6751, size: 0x8, addend: 0x0, symName: __ZZN5godot24PhysicsServer3DExtension17register_virtualsI19JoltPhysicsServer3DS0_EEvvENUlPvPKPKvS3_E9_8__invokeES3_S7_S3_, symObjAddr: 0x13414, symBinAddr: 0x2AA8C0, symSize: 0xC0 }
  - { offsetInCU: 0x7B2BB, offset: 0x4A69E4, size: 0x8, addend: 0x0, symName: __ZZN5godot24PhysicsServer3DExtension17register_virtualsI19JoltPhysicsServer3DS0_EEvvENUlPvPKPKvS3_E10_8__invokeES3_S7_S3_, symObjAddr: 0x134D4, symBinAddr: 0x2AACB8, symSize: 0x94 }
  - { offsetInCU: 0x7B493, offset: 0x4A6BBC, size: 0x8, addend: 0x0, symName: __ZZN5godot24PhysicsServer3DExtension17register_virtualsI19JoltPhysicsServer3DS0_EEvvENUlPvPKPKvS3_E11_8__invokeES3_S7_S3_, symObjAddr: 0x13568, symBinAddr: 0x164C4C, symSize: 0x94 }
  - { offsetInCU: 0x7B686, offset: 0x4A6DAF, size: 0x8, addend: 0x0, symName: __ZZN5godot24PhysicsServer3DExtension17register_virtualsI19JoltPhysicsServer3DS0_EEvvENUlPvPKPKvS3_E12_8__invokeES3_S7_S3_, symObjAddr: 0x135FC, symBinAddr: 0x2AB780, symSize: 0x90 }
  - { offsetInCU: 0x7B8C2, offset: 0x4A6FEB, size: 0x8, addend: 0x0, symName: __ZZN5godot24PhysicsServer3DExtension17register_virtualsI19JoltPhysicsServer3DS0_EEvvENUlPvPKPKvS3_E13_8__invokeES3_S7_S3_, symObjAddr: 0x1368C, symBinAddr: 0x2AC028, symSize: 0x94 }
  - { offsetInCU: 0x7BAFD, offset: 0x4A7226, size: 0x8, addend: 0x0, symName: __ZZN5godot24PhysicsServer3DExtension17register_virtualsI19JoltPhysicsServer3DS0_EEvvENUlPvPKPKvS3_E14_8__invokeES3_S7_S3_, symObjAddr: 0x13720, symBinAddr: 0x2AC824, symSize: 0xF4 }
  - { offsetInCU: 0x7BDB9, offset: 0x4A74E2, size: 0x8, addend: 0x0, symName: __ZZN5godot24PhysicsServer3DExtension17register_virtualsI19JoltPhysicsServer3DS0_EEvvENUlPvPKPKvS3_E15_8__invokeES3_S7_S3_, symObjAddr: 0x13814, symBinAddr: 0x2ACB8C, symSize: 0x90 }
  - { offsetInCU: 0x7BFB8, offset: 0x4A76E1, size: 0x8, addend: 0x0, symName: __ZZN5godot24PhysicsServer3DExtension17register_virtualsI19JoltPhysicsServer3DS0_EEvvENUlPvPKPKvS3_E16_8__invokeES3_S7_S3_, symObjAddr: 0x138A4, symBinAddr: 0x2AD07C, symSize: 0x7C }
  - { offsetInCU: 0x7C178, offset: 0x4A78A1, size: 0x8, addend: 0x0, symName: __ZZN5godot24PhysicsServer3DExtension17register_virtualsI19JoltPhysicsServer3DS0_EEvvENUlPvPKPKvS3_E17_8__invokeES3_S7_S3_, symObjAddr: 0x13920, symBinAddr: 0x166BB4, symSize: 0x9C }
  - { offsetInCU: 0x7C36D, offset: 0x4A7A96, size: 0x8, addend: 0x0, symName: __ZZN5godot24PhysicsServer3DExtension17register_virtualsI19JoltPhysicsServer3DS0_EEvvENUlPvPKPKvS3_E18_8__invokeES3_S7_S3_, symObjAddr: 0x139BC, symBinAddr: 0x2ADB14, symSize: 0x90 }
  - { offsetInCU: 0x7C5BB, offset: 0x4A7CE4, size: 0x8, addend: 0x0, symName: __ZZN5godot24PhysicsServer3DExtension17register_virtualsI19JoltPhysicsServer3DS0_EEvvENUlPvPKPKvS3_E19_8__invokeES3_S7_S3_, symObjAddr: 0x13A4C, symBinAddr: 0x2ADEF8, symSize: 0x98 }
  - { offsetInCU: 0x7C7D0, offset: 0x4A7EF9, size: 0x8, addend: 0x0, symName: __ZZN5godot24PhysicsServer3DExtension17register_virtualsI19JoltPhysicsServer3DS0_EEvvENUlPvPKPKvS3_E20_8__invokeES3_S7_S3_, symObjAddr: 0x13AE4, symBinAddr: 0x2AE514, symSize: 0x9C }
  - { offsetInCU: 0x7CA01, offset: 0x4A812A, size: 0x8, addend: 0x0, symName: __ZZN5godot24PhysicsServer3DExtension17register_virtualsI19JoltPhysicsServer3DS0_EEvvENUlPvPKPKvS3_E21_8__invokeES3_S7_S3_, symObjAddr: 0x13B80, symBinAddr: 0x2AEA44, symSize: 0xA0 }
  - { offsetInCU: 0x7CBFE, offset: 0x4A8327, size: 0x8, addend: 0x0, symName: __ZZN5godot24PhysicsServer3DExtension17register_virtualsI19JoltPhysicsServer3DS0_EEvvENUlPvPKPKvS3_E22_8__invokeES3_S7_S3_, symObjAddr: 0x13C20, symBinAddr: 0x2AEEC8, symSize: 0x94 }
  - { offsetInCU: 0x7CE13, offset: 0x4A853C, size: 0x8, addend: 0x0, symName: __ZZN5godot24PhysicsServer3DExtension17register_virtualsI19JoltPhysicsServer3DS0_EEvvENUlPvPKPKvS3_E23_8__invokeES3_S7_S3_, symObjAddr: 0x13CB4, symBinAddr: 0x2AFD04, symSize: 0xC8 }
  - { offsetInCU: 0x7D0EE, offset: 0x4A8817, size: 0x8, addend: 0x0, symName: __ZZN5godot24PhysicsServer3DExtension17register_virtualsI19JoltPhysicsServer3DS0_EEvvENUlPvPKPKvS3_E24_8__invokeES3_S7_S3_, symObjAddr: 0x13D7C, symBinAddr: 0x2AFFD4, symSize: 0x94 }
  - { offsetInCU: 0x7D2EC, offset: 0x4A8A15, size: 0x8, addend: 0x0, symName: __ZZN5godot24PhysicsServer3DExtension17register_virtualsI19JoltPhysicsServer3DS0_EEvvENUlPvPKPKvS3_E25_8__invokeES3_S7_S3_, symObjAddr: 0x13E10, symBinAddr: 0x2B042C, symSize: 0x7C }
  - { offsetInCU: 0x7D4AC, offset: 0x4A8BD5, size: 0x8, addend: 0x0, symName: __ZZN5godot24PhysicsServer3DExtension17register_virtualsI19JoltPhysicsServer3DS0_EEvvENUlPvPKPKvS3_E26_8__invokeES3_S7_S3_, symObjAddr: 0x13E8C, symBinAddr: 0x2B0890, symSize: 0xAC }
  - { offsetInCU: 0x7D72B, offset: 0x4A8E54, size: 0x8, addend: 0x0, symName: __ZZN5godot24PhysicsServer3DExtension17register_virtualsI19JoltPhysicsServer3DS0_EEvvENUlPvPKPKvS3_E27_8__invokeES3_S7_S3_, symObjAddr: 0x13F38, symBinAddr: 0x2B0C98, symSize: 0xB0 }
  - { offsetInCU: 0x7D9E9, offset: 0x4A9112, size: 0x8, addend: 0x0, symName: __ZZN5godot24PhysicsServer3DExtension17register_virtualsI19JoltPhysicsServer3DS0_EEvvENUlPvPKPKvS3_E28_8__invokeES3_S7_S3_, symObjAddr: 0x13FE8, symBinAddr: 0x2B0F14, symSize: 0xD4 }
  - { offsetInCU: 0x7DCA7, offset: 0x4A93D0, size: 0x8, addend: 0x0, symName: __ZZN5godot24PhysicsServer3DExtension17register_virtualsI19JoltPhysicsServer3DS0_EEvvENUlPvPKPKvS3_E29_8__invokeES3_S7_S3_, symObjAddr: 0x140BC, symBinAddr: 0x2B11B8, symSize: 0xB4 }
  - { offsetInCU: 0x7DF4E, offset: 0x4A9677, size: 0x8, addend: 0x0, symName: __ZZN5godot24PhysicsServer3DExtension17register_virtualsI19JoltPhysicsServer3DS0_EEvvENUlPvPKPKvS3_E30_8__invokeES3_S7_S3_, symObjAddr: 0x14170, symBinAddr: 0x2B1588, symSize: 0xAC }
  - { offsetInCU: 0x7E163, offset: 0x4A988C, size: 0x8, addend: 0x0, symName: __ZZN5godot24PhysicsServer3DExtension17register_virtualsI19JoltPhysicsServer3DS0_EEvvENUlPvPKPKvS3_E31_8__invokeES3_S7_S3_, symObjAddr: 0x1421C, symBinAddr: 0x2B183C, symSize: 0xA0 }
  - { offsetInCU: 0x7E358, offset: 0x4A9A81, size: 0x8, addend: 0x0, symName: __ZZN5godot24PhysicsServer3DExtension17register_virtualsI19JoltPhysicsServer3DS0_EEvvENUlPvPKPKvS3_E32_8__invokeES3_S7_S3_, symObjAddr: 0x142BC, symBinAddr: 0x2B2344, symSize: 0x94 }
  - { offsetInCU: 0x7E576, offset: 0x4A9C9F, size: 0x8, addend: 0x0, symName: __ZZN5godot24PhysicsServer3DExtension17register_virtualsI19JoltPhysicsServer3DS0_EEvvENUlPvPKPKvS3_E33_8__invokeES3_S7_S3_, symObjAddr: 0x14350, symBinAddr: 0x16A520, symSize: 0xBC }
  - { offsetInCU: 0x7E81A, offset: 0x4A9F43, size: 0x8, addend: 0x0, symName: __ZZN5godot24PhysicsServer3DExtension17register_virtualsI19JoltPhysicsServer3DS0_EEvvENUlPvPKPKvS3_E34_8__invokeES3_S7_S3_, symObjAddr: 0x1440C, symBinAddr: 0x2B2B34, symSize: 0xB0 }
  - { offsetInCU: 0x7EA2F, offset: 0x4AA158, size: 0x8, addend: 0x0, symName: __ZZN5godot24PhysicsServer3DExtension17register_virtualsI19JoltPhysicsServer3DS0_EEvvENUlPvPKPKvS3_E35_8__invokeES3_S7_S3_, symObjAddr: 0x144BC, symBinAddr: 0x2B301C, symSize: 0x94 }
  - { offsetInCU: 0x7EC1D, offset: 0x4AA346, size: 0x8, addend: 0x0, symName: __ZZN5godot24PhysicsServer3DExtension17register_virtualsI19JoltPhysicsServer3DS0_EEvvENUlPvPKPKvS3_E36_8__invokeES3_S7_S3_, symObjAddr: 0x14550, symBinAddr: 0x2B3320, symSize: 0x80 }
  - { offsetInCU: 0x7EE0E, offset: 0x4AA537, size: 0x8, addend: 0x0, symName: __ZZN5godot24PhysicsServer3DExtension17register_virtualsI19JoltPhysicsServer3DS0_EEvvENUlPvPKPKvS3_E37_8__invokeES3_S7_S3_, symObjAddr: 0x145D0, symBinAddr: 0x2B34DC, symSize: 0x94 }
  - { offsetInCU: 0x7F001, offset: 0x4AA72A, size: 0x8, addend: 0x0, symName: __ZZN5godot24PhysicsServer3DExtension17register_virtualsI19JoltPhysicsServer3DS0_EEvvENUlPvPKPKvS3_E38_8__invokeES3_S7_S3_, symObjAddr: 0x14664, symBinAddr: 0x2B3C38, symSize: 0x90 }
  - { offsetInCU: 0x7F234, offset: 0x4AA95D, size: 0x8, addend: 0x0, symName: __ZZN5godot24PhysicsServer3DExtension17register_virtualsI19JoltPhysicsServer3DS0_EEvvENUlPvPKPKvS3_E39_8__invokeES3_S7_S3_, symObjAddr: 0x146F4, symBinAddr: 0x2B3FBC, symSize: 0xC8 }
  - { offsetInCU: 0x7F4EA, offset: 0x4AAC13, size: 0x8, addend: 0x0, symName: __ZZN5godot24PhysicsServer3DExtension17register_virtualsI19JoltPhysicsServer3DS0_EEvvENUlPvPKPKvS3_E40_8__invokeES3_S7_S3_, symObjAddr: 0x147BC, symBinAddr: 0x2B4648, symSize: 0xA8 }
  - { offsetInCU: 0x7F6E2, offset: 0x4AAE0B, size: 0x8, addend: 0x0, symName: __ZZN5godot24PhysicsServer3DExtension17register_virtualsI19JoltPhysicsServer3DS0_EEvvENUlPvPKPKvS3_E41_8__invokeES3_S7_S3_, symObjAddr: 0x14864, symBinAddr: 0x2B4A08, symSize: 0x100 }
  - { offsetInCU: 0x7F9D6, offset: 0x4AB0FF, size: 0x8, addend: 0x0, symName: __ZZN5godot24PhysicsServer3DExtension17register_virtualsI19JoltPhysicsServer3DS0_EEvvENUlPvPKPKvS3_E42_8__invokeES3_S7_S3_, symObjAddr: 0x14964, symBinAddr: 0x2B4CC8, symSize: 0xA4 }
  - { offsetInCU: 0x7FBEF, offset: 0x4AB318, size: 0x8, addend: 0x0, symName: __ZZN5godot24PhysicsServer3DExtension17register_virtualsI19JoltPhysicsServer3DS0_EEvvENUlPvPKPKvS3_E43_8__invokeES3_S7_S3_, symObjAddr: 0x14A08, symBinAddr: 0x16C164, symSize: 0x94 }
  - { offsetInCU: 0x7FE04, offset: 0x4AB52D, size: 0x8, addend: 0x0, symName: __ZZN5godot24PhysicsServer3DExtension17register_virtualsI19JoltPhysicsServer3DS0_EEvvENUlPvPKPKvS3_E44_8__invokeES3_S7_S3_, symObjAddr: 0x14A9C, symBinAddr: 0x16C3C8, symSize: 0x94 }
  - { offsetInCU: 0x80002, offset: 0x4AB72B, size: 0x8, addend: 0x0, symName: __ZZN5godot24PhysicsServer3DExtension17register_virtualsI19JoltPhysicsServer3DS0_EEvvENUlPvPKPKvS3_E45_8__invokeES3_S7_S3_, symObjAddr: 0x14B30, symBinAddr: 0x2B618C, symSize: 0x94 }
  - { offsetInCU: 0x801DA, offset: 0x4AB903, size: 0x8, addend: 0x0, symName: __ZZN5godot24PhysicsServer3DExtension17register_virtualsI19JoltPhysicsServer3DS0_EEvvENUlPvPKPKvS3_E46_8__invokeES3_S7_S3_, symObjAddr: 0x14BC4, symBinAddr: 0x2B6D3C, symSize: 0x94 }
  - { offsetInCU: 0x803D8, offset: 0x4ABB01, size: 0x8, addend: 0x0, symName: __ZZN5godot24PhysicsServer3DExtension17register_virtualsI19JoltPhysicsServer3DS0_EEvvENUlPvPKPKvS3_E47_8__invokeES3_S7_S3_, symObjAddr: 0x14C58, symBinAddr: 0x2B72A4, symSize: 0x9C }
  - { offsetInCU: 0x805B2, offset: 0x4ABCDB, size: 0x8, addend: 0x0, symName: __ZZN5godot24PhysicsServer3DExtension17register_virtualsI19JoltPhysicsServer3DS0_EEvvENUlPvPKPKvS3_E48_8__invokeES3_S7_S3_, symObjAddr: 0x14CF4, symBinAddr: 0x2B7D70, symSize: 0x9C }
  - { offsetInCU: 0x807BC, offset: 0x4ABEE5, size: 0x8, addend: 0x0, symName: __ZZN5godot24PhysicsServer3DExtension17register_virtualsI19JoltPhysicsServer3DS0_EEvvENUlPvPKPKvS3_E49_8__invokeES3_S7_S3_, symObjAddr: 0x14D90, symBinAddr: 0x16EB80, symSize: 0xC4 }
  - { offsetInCU: 0x80A6F, offset: 0x4AC198, size: 0x8, addend: 0x0, symName: __ZZN5godot24PhysicsServer3DExtension17register_virtualsI19JoltPhysicsServer3DS0_EEvvENUlPvPKPKvS3_E50_8__invokeES3_S7_S3_, symObjAddr: 0x14E54, symBinAddr: 0x2BBE10, symSize: 0xC4 }
  - { offsetInCU: 0x80D22, offset: 0x4AC44B, size: 0x8, addend: 0x0, symName: __ZZN5godot24PhysicsServer3DExtension17register_virtualsI19JoltPhysicsServer3DS0_EEvvENUlPvPKPKvS3_E51_8__invokeES3_S7_S3_, symObjAddr: 0x14F18, symBinAddr: 0x2BC630, symSize: 0x7C }
  - { offsetInCU: 0x80EC7, offset: 0x4AC5F0, size: 0x8, addend: 0x0, symName: __ZZN5godot24PhysicsServer3DExtension17register_virtualsI19JoltPhysicsServer3DS0_EEvvENUlPvPKPKvS3_E52_8__invokeES3_S7_S3_, symObjAddr: 0x14F94, symBinAddr: 0x2BCC38, symSize: 0xAC }
  - { offsetInCU: 0x8112B, offset: 0x4AC854, size: 0x8, addend: 0x0, symName: __ZZN5godot24PhysicsServer3DExtension17register_virtualsI19JoltPhysicsServer3DS0_EEvvENUlPvPKPKvS3_E53_8__invokeES3_S7_S3_, symObjAddr: 0x15040, symBinAddr: 0x2BD9A0, symSize: 0xB0 }
  - { offsetInCU: 0x813CC, offset: 0x4ACAF5, size: 0x8, addend: 0x0, symName: __ZZN5godot24PhysicsServer3DExtension17register_virtualsI19JoltPhysicsServer3DS0_EEvvENUlPvPKPKvS3_E54_8__invokeES3_S7_S3_, symObjAddr: 0x150F0, symBinAddr: 0x2BDF00, symSize: 0x94 }
  - { offsetInCU: 0x815E1, offset: 0x4ACD0A, size: 0x8, addend: 0x0, symName: __ZZN5godot24PhysicsServer3DExtension17register_virtualsI19JoltPhysicsServer3DS0_EEvvENUlPvPKPKvS3_E55_8__invokeES3_S7_S3_, symObjAddr: 0x15184, symBinAddr: 0x2BE120, symSize: 0x94 }
  - { offsetInCU: 0x817DF, offset: 0x4ACF08, size: 0x8, addend: 0x0, symName: __ZZN5godot24PhysicsServer3DExtension17register_virtualsI19JoltPhysicsServer3DS0_EEvvENUlPvPKPKvS3_E56_8__invokeES3_S7_S3_, symObjAddr: 0x15218, symBinAddr: 0x2BED80, symSize: 0xD4 }
  - { offsetInCU: 0x81A7D, offset: 0x4AD1A6, size: 0x8, addend: 0x0, symName: __ZZN5godot24PhysicsServer3DExtension17register_virtualsI19JoltPhysicsServer3DS0_EEvvENUlPvPKPKvS3_E57_8__invokeES3_S7_S3_, symObjAddr: 0x152EC, symBinAddr: 0x2BF0E4, symSize: 0xB4 }
  - { offsetInCU: 0x81D04, offset: 0x4AD42D, size: 0x8, addend: 0x0, symName: __ZZN5godot24PhysicsServer3DExtension17register_virtualsI19JoltPhysicsServer3DS0_EEvvENUlPvPKPKvS3_E58_8__invokeES3_S7_S3_, symObjAddr: 0x153A0, symBinAddr: 0x2BF4E8, symSize: 0xAC }
  - { offsetInCU: 0x81EF9, offset: 0x4AD622, size: 0x8, addend: 0x0, symName: __ZZN5godot24PhysicsServer3DExtension17register_virtualsI19JoltPhysicsServer3DS0_EEvvENUlPvPKPKvS3_E59_8__invokeES3_S7_S3_, symObjAddr: 0x1544C, symBinAddr: 0xBDE3C, symSize: 0xA0 }
  - { offsetInCU: 0x820EE, offset: 0x4AD817, size: 0x8, addend: 0x0, symName: __ZZN5godot24PhysicsServer3DExtension17register_virtualsI19JoltPhysicsServer3DS0_EEvvENUlPvPKPKvS3_E60_8__invokeES3_S7_S3_, symObjAddr: 0x154EC, symBinAddr: 0x2C0014, symSize: 0x94 }
  - { offsetInCU: 0x822EC, offset: 0x4ADA15, size: 0x8, addend: 0x0, symName: __ZZN5godot24PhysicsServer3DExtension17register_virtualsI19JoltPhysicsServer3DS0_EEvvENUlPvPKPKvS3_E61_8__invokeES3_S7_S3_, symObjAddr: 0x15580, symBinAddr: 0x2C05C8, symSize: 0xBC }
  - { offsetInCU: 0x82570, offset: 0x4ADC99, size: 0x8, addend: 0x0, symName: __ZZN5godot24PhysicsServer3DExtension17register_virtualsI19JoltPhysicsServer3DS0_EEvvENUlPvPKPKvS3_E62_8__invokeES3_S7_S3_, symObjAddr: 0x1563C, symBinAddr: 0x2C0780, symSize: 0xB0 }
  - { offsetInCU: 0x82785, offset: 0x4ADEAE, size: 0x8, addend: 0x0, symName: __ZZN5godot24PhysicsServer3DExtension17register_virtualsI19JoltPhysicsServer3DS0_EEvvENUlPvPKPKvS3_E63_8__invokeES3_S7_S3_, symObjAddr: 0x156EC, symBinAddr: 0x2C1308, symSize: 0x94 }
  - { offsetInCU: 0x8295D, offset: 0x4AE086, size: 0x8, addend: 0x0, symName: __ZZN5godot24PhysicsServer3DExtension17register_virtualsI19JoltPhysicsServer3DS0_EEvvENUlPvPKPKvS3_E64_8__invokeES3_S7_S3_, symObjAddr: 0x15780, symBinAddr: 0x2C2118, symSize: 0x80 }
  - { offsetInCU: 0x82B1E, offset: 0x4AE247, size: 0x8, addend: 0x0, symName: __ZZN5godot24PhysicsServer3DExtension17register_virtualsI19JoltPhysicsServer3DS0_EEvvENUlPvPKPKvS3_E65_8__invokeES3_S7_S3_, symObjAddr: 0x15800, symBinAddr: 0x2C2660, symSize: 0x94 }
  - { offsetInCU: 0x82CF6, offset: 0x4AE41F, size: 0x8, addend: 0x0, symName: __ZZN5godot24PhysicsServer3DExtension17register_virtualsI19JoltPhysicsServer3DS0_EEvvENUlPvPKPKvS3_E66_8__invokeES3_S7_S3_, symObjAddr: 0x15894, symBinAddr: 0xBF2B8, symSize: 0x90 }
  - { offsetInCU: 0x82EF4, offset: 0x4AE61D, size: 0x8, addend: 0x0, symName: __ZZN5godot24PhysicsServer3DExtension17register_virtualsI19JoltPhysicsServer3DS0_EEvvENUlPvPKPKvS3_E67_8__invokeES3_S7_S3_, symObjAddr: 0x15924, symBinAddr: 0x2C320C, symSize: 0x9C }
  - { offsetInCU: 0x830CE, offset: 0x4AE7F7, size: 0x8, addend: 0x0, symName: __ZZN5godot24PhysicsServer3DExtension17register_virtualsI19JoltPhysicsServer3DS0_EEvvENUlPvPKPKvS3_E68_8__invokeES3_S7_S3_, symObjAddr: 0x159C0, symBinAddr: 0x2C4590, symSize: 0x90 }
  - { offsetInCU: 0x832C5, offset: 0x4AE9EE, size: 0x8, addend: 0x0, symName: __ZZN5godot24PhysicsServer3DExtension17register_virtualsI19JoltPhysicsServer3DS0_EEvvENUlPvPKPKvS3_E69_8__invokeES3_S7_S3_, symObjAddr: 0x15A50, symBinAddr: 0x2C48B8, symSize: 0x94 }
  - { offsetInCU: 0x8349D, offset: 0x4AEBC6, size: 0x8, addend: 0x0, symName: __ZZN5godot24PhysicsServer3DExtension17register_virtualsI19JoltPhysicsServer3DS0_EEvvENUlPvPKPKvS3_E70_8__invokeES3_S7_S3_, symObjAddr: 0x15AE4, symBinAddr: 0x2C5024, symSize: 0x94 }
  - { offsetInCU: 0x8369B, offset: 0x4AEDC4, size: 0x8, addend: 0x0, symName: __ZZN5godot24PhysicsServer3DExtension17register_virtualsI19JoltPhysicsServer3DS0_EEvvENUlPvPKPKvS3_E71_8__invokeES3_S7_S3_, symObjAddr: 0x15B78, symBinAddr: 0x2C5508, symSize: 0x94 }
  - { offsetInCU: 0x83873, offset: 0x4AEF9C, size: 0x8, addend: 0x0, symName: __ZZN5godot24PhysicsServer3DExtension17register_virtualsI19JoltPhysicsServer3DS0_EEvvENUlPvPKPKvS3_E72_8__invokeES3_S7_S3_, symObjAddr: 0x15C0C, symBinAddr: 0x176694, symSize: 0x94 }
  - { offsetInCU: 0x83A71, offset: 0x4AF19A, size: 0x8, addend: 0x0, symName: __ZZN5godot24PhysicsServer3DExtension17register_virtualsI19JoltPhysicsServer3DS0_EEvvENUlPvPKPKvS3_E73_8__invokeES3_S7_S3_, symObjAddr: 0x15CA0, symBinAddr: 0x2C632C, symSize: 0x94 }
  - { offsetInCU: 0x83C49, offset: 0x4AF372, size: 0x8, addend: 0x0, symName: __ZZN5godot24PhysicsServer3DExtension17register_virtualsI19JoltPhysicsServer3DS0_EEvvENUlPvPKPKvS3_E74_8__invokeES3_S7_S3_, symObjAddr: 0x15D34, symBinAddr: 0x2C66B4, symSize: 0x90 }
  - { offsetInCU: 0x83E48, offset: 0x4AF571, size: 0x8, addend: 0x0, symName: __ZZN5godot24PhysicsServer3DExtension17register_virtualsI19JoltPhysicsServer3DS0_EEvvENUlPvPKPKvS3_E75_8__invokeES3_S7_S3_, symObjAddr: 0x15DC4, symBinAddr: 0x2C6B18, symSize: 0x94 }
  - { offsetInCU: 0x84020, offset: 0x4AF749, size: 0x8, addend: 0x0, symName: __ZZN5godot24PhysicsServer3DExtension17register_virtualsI19JoltPhysicsServer3DS0_EEvvENUlPvPKPKvS3_E76_8__invokeES3_S7_S3_, symObjAddr: 0x15E58, symBinAddr: 0xC0E3C, symSize: 0x94 }
  - { offsetInCU: 0x84253, offset: 0x4AF97C, size: 0x8, addend: 0x0, symName: __ZZN5godot24PhysicsServer3DExtension17register_virtualsI19JoltPhysicsServer3DS0_EEvvENUlPvPKPKvS3_E77_8__invokeES3_S7_S3_, symObjAddr: 0x15EEC, symBinAddr: 0x2C7754, symSize: 0xC8 }
  - { offsetInCU: 0x8450E, offset: 0x4AFC37, size: 0x8, addend: 0x0, symName: __ZZN5godot24PhysicsServer3DExtension17register_virtualsI19JoltPhysicsServer3DS0_EEvvENUlPvPKPKvS3_E78_8__invokeES3_S7_S3_, symObjAddr: 0x15FB4, symBinAddr: 0x2C79B8, symSize: 0x100 }
  - { offsetInCU: 0x847E7, offset: 0x4AFF10, size: 0x8, addend: 0x0, symName: __ZZN5godot24PhysicsServer3DExtension17register_virtualsI19JoltPhysicsServer3DS0_EEvvENUlPvPKPKvS3_E79_8__invokeES3_S7_S3_, symObjAddr: 0x160B4, symBinAddr: 0x2C7E0C, symSize: 0x80 }
  - { offsetInCU: 0x849DD, offset: 0x4B0106, size: 0x8, addend: 0x0, symName: __ZZN5godot24PhysicsServer3DExtension17register_virtualsI19JoltPhysicsServer3DS0_EEvvENUlPvPKPKvS3_E80_8__invokeES3_S7_S3_, symObjAddr: 0x16134, symBinAddr: 0x2C840C, symSize: 0xC8 }
  - { offsetInCU: 0x84C98, offset: 0x4B03C1, size: 0x8, addend: 0x0, symName: __ZZN5godot24PhysicsServer3DExtension17register_virtualsI19JoltPhysicsServer3DS0_EEvvENUlPvPKPKvS3_E81_8__invokeES3_S7_S3_, symObjAddr: 0x161FC, symBinAddr: 0x2C8A44, symSize: 0x100 }
  - { offsetInCU: 0x84F8C, offset: 0x4B06B5, size: 0x8, addend: 0x0, symName: __ZZN5godot24PhysicsServer3DExtension17register_virtualsI19JoltPhysicsServer3DS0_EEvvENUlPvPKPKvS3_E82_8__invokeES3_S7_S3_, symObjAddr: 0x162FC, symBinAddr: 0x178C5C, symSize: 0xA8 }
  - { offsetInCU: 0x85184, offset: 0x4B08AD, size: 0x8, addend: 0x0, symName: __ZZN5godot24PhysicsServer3DExtension17register_virtualsI19JoltPhysicsServer3DS0_EEvvENUlPvPKPKvS3_E83_8__invokeES3_S7_S3_, symObjAddr: 0x163A4, symBinAddr: 0x2CA110, symSize: 0xBC }
  - { offsetInCU: 0x85379, offset: 0x4B0AA2, size: 0x8, addend: 0x0, symName: __ZZN5godot24PhysicsServer3DExtension17register_virtualsI19JoltPhysicsServer3DS0_EEvvENUlPvPKPKvS3_E84_8__invokeES3_S7_S3_, symObjAddr: 0x16460, symBinAddr: 0x2CBB08, symSize: 0xA8 }
  - { offsetInCU: 0x85551, offset: 0x4B0C7A, size: 0x8, addend: 0x0, symName: __ZZN5godot24PhysicsServer3DExtension17register_virtualsI19JoltPhysicsServer3DS0_EEvvENUlPvPKPKvS3_E85_8__invokeES3_S7_S3_, symObjAddr: 0x16508, symBinAddr: 0x2CBEC4, symSize: 0xA8 }
  - { offsetInCU: 0x85729, offset: 0x4B0E52, size: 0x8, addend: 0x0, symName: __ZZN5godot24PhysicsServer3DExtension17register_virtualsI19JoltPhysicsServer3DS0_EEvvENUlPvPKPKvS3_E86_8__invokeES3_S7_S3_, symObjAddr: 0x165B0, symBinAddr: 0x17ADA4, symSize: 0xBC }
  - { offsetInCU: 0x8591E, offset: 0x4B1047, size: 0x8, addend: 0x0, symName: __ZZN5godot24PhysicsServer3DExtension17register_virtualsI19JoltPhysicsServer3DS0_EEvvENUlPvPKPKvS3_E87_8__invokeES3_S7_S3_, symObjAddr: 0x1666C, symBinAddr: 0x2CDBBC, symSize: 0xA8 }
  - { offsetInCU: 0x85AF6, offset: 0x4B121F, size: 0x8, addend: 0x0, symName: __ZZN5godot24PhysicsServer3DExtension17register_virtualsI19JoltPhysicsServer3DS0_EEvvENUlPvPKPKvS3_E88_8__invokeES3_S7_S3_, symObjAddr: 0x16714, symBinAddr: 0x2CE0B0, symSize: 0xA8 }
  - { offsetInCU: 0x85CCE, offset: 0x4B13F7, size: 0x8, addend: 0x0, symName: __ZZN5godot24PhysicsServer3DExtension17register_virtualsI19JoltPhysicsServer3DS0_EEvvENUlPvPKPKvS3_E89_8__invokeES3_S7_S3_, symObjAddr: 0x167BC, symBinAddr: 0x2CE5E8, symSize: 0xBC }
  - { offsetInCU: 0x85EC3, offset: 0x4B15EC, size: 0x8, addend: 0x0, symName: __ZZN5godot24PhysicsServer3DExtension17register_virtualsI19JoltPhysicsServer3DS0_EEvvENUlPvPKPKvS3_E90_8__invokeES3_S7_S3_, symObjAddr: 0x16878, symBinAddr: 0xC3E60, symSize: 0xA8 }
  - { offsetInCU: 0x8609B, offset: 0x4B17C4, size: 0x8, addend: 0x0, symName: __ZZN5godot24PhysicsServer3DExtension17register_virtualsI19JoltPhysicsServer3DS0_EEvvENUlPvPKPKvS3_E91_8__invokeES3_S7_S3_, symObjAddr: 0x16920, symBinAddr: 0x2CF520, symSize: 0xA8 }
  - { offsetInCU: 0x8628E, offset: 0x4B19B7, size: 0x8, addend: 0x0, symName: __ZZN5godot24PhysicsServer3DExtension17register_virtualsI19JoltPhysicsServer3DS0_EEvvENUlPvPKPKvS3_E92_8__invokeES3_S7_S3_, symObjAddr: 0x169C8, symBinAddr: 0x2CF884, symSize: 0x94 }
  - { offsetInCU: 0x86485, offset: 0x4B1BAE, size: 0x8, addend: 0x0, symName: __ZZN5godot24PhysicsServer3DExtension17register_virtualsI19JoltPhysicsServer3DS0_EEvvENUlPvPKPKvS3_E93_8__invokeES3_S7_S3_, symObjAddr: 0x16A5C, symBinAddr: 0x2CFB58, symSize: 0xA8 }
  - { offsetInCU: 0x8665D, offset: 0x4B1D86, size: 0x8, addend: 0x0, symName: __ZZN5godot24PhysicsServer3DExtension17register_virtualsI19JoltPhysicsServer3DS0_EEvvENUlPvPKPKvS3_E94_8__invokeES3_S7_S3_, symObjAddr: 0x16B04, symBinAddr: 0x2CF20, symSize: 0x94 }
  - { offsetInCU: 0x86854, offset: 0x4B1F7D, size: 0x8, addend: 0x0, symName: __ZZN5godot24PhysicsServer3DExtension17register_virtualsI19JoltPhysicsServer3DS0_EEvvENUlPvPKPKvS3_E95_8__invokeES3_S7_S3_, symObjAddr: 0x16B98, symBinAddr: 0x2D0C20, symSize: 0xA8 }
  - { offsetInCU: 0x86A61, offset: 0x4B218A, size: 0x8, addend: 0x0, symName: __ZZN5godot24PhysicsServer3DExtension17register_virtualsI19JoltPhysicsServer3DS0_EEvvENUlPvPKPKvS3_E96_8__invokeES3_S7_S3_, symObjAddr: 0x16C40, symBinAddr: 0x2D14E8, symSize: 0xA0 }
  - { offsetInCU: 0x86C76, offset: 0x4B239F, size: 0x8, addend: 0x0, symName: __ZZN5godot24PhysicsServer3DExtension17register_virtualsI19JoltPhysicsServer3DS0_EEvvENUlPvPKPKvS3_E97_8__invokeES3_S7_S3_, symObjAddr: 0x16CE0, symBinAddr: 0x2D5134, symSize: 0x9C }
  - { offsetInCU: 0x86E84, offset: 0x4B25AD, size: 0x8, addend: 0x0, symName: __ZZN5godot24PhysicsServer3DExtension17register_virtualsI19JoltPhysicsServer3DS0_EEvvENUlPvPKPKvS3_E98_8__invokeES3_S7_S3_, symObjAddr: 0x16D7C, symBinAddr: 0x2D5354, symSize: 0xAC }
  - { offsetInCU: 0x870E8, offset: 0x4B2811, size: 0x8, addend: 0x0, symName: __ZZN5godot24PhysicsServer3DExtension17register_virtualsI19JoltPhysicsServer3DS0_EEvvENUlPvPKPKvS3_E99_8__invokeES3_S7_S3_, symObjAddr: 0x16E28, symBinAddr: 0x2D5A74, symSize: 0xAC }
  - { offsetInCU: 0x873C6, offset: 0x4B2AEF, size: 0x8, addend: 0x0, symName: __ZZN5godot24PhysicsServer3DExtension17register_virtualsI19JoltPhysicsServer3DS0_EEvvENUlPvPKPKvS3_E100_8__invokeES3_S7_S3_, symObjAddr: 0x16ED4, symBinAddr: 0x2D5E50, symSize: 0xC8 }
  - { offsetInCU: 0x876AD, offset: 0x4B2DD6, size: 0x8, addend: 0x0, symName: __ZZN5godot24PhysicsServer3DExtension17register_virtualsI19JoltPhysicsServer3DS0_EEvvENUlPvPKPKvS3_E101_8__invokeES3_S7_S3_, symObjAddr: 0x16F9C, symBinAddr: 0x2D6450, symSize: 0x94 }
  - { offsetInCU: 0x87885, offset: 0x4B2FAE, size: 0x8, addend: 0x0, symName: __ZZN5godot24PhysicsServer3DExtension17register_virtualsI19JoltPhysicsServer3DS0_EEvvENUlPvPKPKvS3_E102_8__invokeES3_S7_S3_, symObjAddr: 0x17030, symBinAddr: 0x2D66D8, symSize: 0x94 }
  - { offsetInCU: 0x87A83, offset: 0x4B31AC, size: 0x8, addend: 0x0, symName: __ZZN5godot24PhysicsServer3DExtension17register_virtualsI19JoltPhysicsServer3DS0_EEvvENUlPvPKPKvS3_E103_8__invokeES3_S7_S3_, symObjAddr: 0x170C4, symBinAddr: 0x2D6A9C, symSize: 0x94 }
  - { offsetInCU: 0x87C5B, offset: 0x4B3384, size: 0x8, addend: 0x0, symName: __ZZN5godot24PhysicsServer3DExtension17register_virtualsI19JoltPhysicsServer3DS0_EEvvENUlPvPKPKvS3_E104_8__invokeES3_S7_S3_, symObjAddr: 0x17158, symBinAddr: 0x2EF66C, symSize: 0x90 }
  - { offsetInCU: 0x87E5A, offset: 0x4B3583, size: 0x8, addend: 0x0, symName: __ZZN5godot24PhysicsServer3DExtension17register_virtualsI19JoltPhysicsServer3DS0_EEvvENUlPvPKPKvS3_E105_8__invokeES3_S7_S3_, symObjAddr: 0x171E8, symBinAddr: 0x2EF8B4, symSize: 0x9C }
  - { offsetInCU: 0x88034, offset: 0x4B375D, size: 0x8, addend: 0x0, symName: __ZZN5godot24PhysicsServer3DExtension17register_virtualsI19JoltPhysicsServer3DS0_EEvvENUlPvPKPKvS3_E106_8__invokeES3_S7_S3_, symObjAddr: 0x17284, symBinAddr: 0x2EFAD4, symSize: 0x90 }
  - { offsetInCU: 0x8822B, offset: 0x4B3954, size: 0x8, addend: 0x0, symName: __ZZN5godot24PhysicsServer3DExtension17register_virtualsI19JoltPhysicsServer3DS0_EEvvENUlPvPKPKvS3_E107_8__invokeES3_S7_S3_, symObjAddr: 0x17314, symBinAddr: 0x2EFECC, symSize: 0xC4 }
  - { offsetInCU: 0x884FE, offset: 0x4B3C27, size: 0x8, addend: 0x0, symName: __ZZN5godot24PhysicsServer3DExtension17register_virtualsI19JoltPhysicsServer3DS0_EEvvENUlPvPKPKvS3_E108_8__invokeES3_S7_S3_, symObjAddr: 0x173D8, symBinAddr: 0x2F0130, symSize: 0xF4 }
  - { offsetInCU: 0x88868, offset: 0x4B3F91, size: 0x8, addend: 0x0, symName: __ZZN5godot24PhysicsServer3DExtension17register_virtualsI19JoltPhysicsServer3DS0_EEvvENUlPvPKPKvS3_E109_8__invokeES3_S7_S3_, symObjAddr: 0x174CC, symBinAddr: 0x2F06B8, symSize: 0x9C }
  - { offsetInCU: 0x88A94, offset: 0x4B41BD, size: 0x8, addend: 0x0, symName: __ZZN5godot24PhysicsServer3DExtension17register_virtualsI19JoltPhysicsServer3DS0_EEvvENUlPvPKPKvS3_E110_8__invokeES3_S7_S3_, symObjAddr: 0x17568, symBinAddr: 0x2F09B8, symSize: 0xF4 }
  - { offsetInCU: 0x88D8F, offset: 0x4B44B8, size: 0x8, addend: 0x0, symName: __ZZN5godot24PhysicsServer3DExtension17register_virtualsI19JoltPhysicsServer3DS0_EEvvENUlPvPKPKvS3_E111_8__invokeES3_S7_S3_, symObjAddr: 0x1765C, symBinAddr: 0x2F0C40, symSize: 0xA0 }
  - { offsetInCU: 0x88F71, offset: 0x4B469A, size: 0x8, addend: 0x0, symName: __ZZN5godot24PhysicsServer3DExtension17register_virtualsI19JoltPhysicsServer3DS0_EEvvENUlPvPKPKvS3_E112_8__invokeES3_S7_S3_, symObjAddr: 0x176FC, symBinAddr: 0x2F0E6C, symSize: 0x7C }
  - { offsetInCU: 0x89146, offset: 0x4B486F, size: 0x8, addend: 0x0, symName: __ZZN5godot24PhysicsServer3DExtension17register_virtualsI19JoltPhysicsServer3DS0_EEvvENUlPvPKPKvS3_E113_8__invokeES3_S7_S3_, symObjAddr: 0x17778, symBinAddr: 0x2F10C8, symSize: 0x150 }
  - { offsetInCU: 0x89441, offset: 0x4B4B6A, size: 0x8, addend: 0x0, symName: __ZZN5godot24PhysicsServer3DExtension17register_virtualsI19JoltPhysicsServer3DS0_EEvvENUlPvPKPKvS3_E114_8__invokeES3_S7_S3_, symObjAddr: 0x178C8, symBinAddr: 0x2F1558, symSize: 0xAC }
  - { offsetInCU: 0x896A5, offset: 0x4B4DCE, size: 0x8, addend: 0x0, symName: __ZZN5godot24PhysicsServer3DExtension17register_virtualsI19JoltPhysicsServer3DS0_EEvvENUlPvPKPKvS3_E115_8__invokeES3_S7_S3_, symObjAddr: 0x17974, symBinAddr: 0x2F17D0, symSize: 0xB0 }
  - { offsetInCU: 0x89916, offset: 0x4B503F, size: 0x8, addend: 0x0, symName: __ZZN5godot24PhysicsServer3DExtension17register_virtualsI19JoltPhysicsServer3DS0_EEvvENUlPvPKPKvS3_E116_8__invokeES3_S7_S3_, symObjAddr: 0x17A24, symBinAddr: 0x2F1ABC, symSize: 0x9C }
  - { offsetInCU: 0x89AF0, offset: 0x4B5219, size: 0x8, addend: 0x0, symName: __ZZN5godot24PhysicsServer3DExtension17register_virtualsI19JoltPhysicsServer3DS0_EEvvENUlPvPKPKvS3_E117_8__invokeES3_S7_S3_, symObjAddr: 0x17AC0, symBinAddr: 0x2F1EDC, symSize: 0x94 }
  - { offsetInCU: 0x89CC8, offset: 0x4B53F1, size: 0x8, addend: 0x0, symName: __ZZN5godot24PhysicsServer3DExtension17register_virtualsI19JoltPhysicsServer3DS0_EEvvENUlPvPKPKvS3_E118_8__invokeES3_S7_S3_, symObjAddr: 0x17B54, symBinAddr: 0x2F23F8, symSize: 0x94 }
  - { offsetInCU: 0x89EC6, offset: 0x4B55EF, size: 0x8, addend: 0x0, symName: __ZZN5godot24PhysicsServer3DExtension17register_virtualsI19JoltPhysicsServer3DS0_EEvvENUlPvPKPKvS3_E119_8__invokeES3_S7_S3_, symObjAddr: 0x17BE8, symBinAddr: 0x2F2CEC, symSize: 0x94 }
  - { offsetInCU: 0x8A09E, offset: 0x4B57C7, size: 0x8, addend: 0x0, symName: __ZZN5godot24PhysicsServer3DExtension17register_virtualsI19JoltPhysicsServer3DS0_EEvvENUlPvPKPKvS3_E120_8__invokeES3_S7_S3_, symObjAddr: 0x17C7C, symBinAddr: 0x2F3738, symSize: 0x94 }
  - { offsetInCU: 0x8A29C, offset: 0x4B59C5, size: 0x8, addend: 0x0, symName: __ZZN5godot24PhysicsServer3DExtension17register_virtualsI19JoltPhysicsServer3DS0_EEvvENUlPvPKPKvS3_E121_8__invokeES3_S7_S3_, symObjAddr: 0x17D10, symBinAddr: 0x2F4464, symSize: 0xAC }
  - { offsetInCU: 0x8A500, offset: 0x4B5C29, size: 0x8, addend: 0x0, symName: __ZZN5godot24PhysicsServer3DExtension17register_virtualsI19JoltPhysicsServer3DS0_EEvvENUlPvPKPKvS3_E122_8__invokeES3_S7_S3_, symObjAddr: 0x17DBC, symBinAddr: 0x2F555C, symSize: 0xAC }
  - { offsetInCU: 0x8A764, offset: 0x4B5E8D, size: 0x8, addend: 0x0, symName: __ZZN5godot24PhysicsServer3DExtension17register_virtualsI19JoltPhysicsServer3DS0_EEvvENUlPvPKPKvS3_E123_8__invokeES3_S7_S3_, symObjAddr: 0x17E68, symBinAddr: 0x2F5A5C, symSize: 0xC8 }
  - { offsetInCU: 0x8AA4B, offset: 0x4B6174, size: 0x8, addend: 0x0, symName: __ZZN5godot24PhysicsServer3DExtension17register_virtualsI19JoltPhysicsServer3DS0_EEvvENUlPvPKPKvS3_E124_8__invokeES3_S7_S3_, symObjAddr: 0x17F30, symBinAddr: 0x2F6130, symSize: 0xC8 }
  - { offsetInCU: 0x8ACE6, offset: 0x4B640F, size: 0x8, addend: 0x0, symName: __ZZN5godot24PhysicsServer3DExtension17register_virtualsI19JoltPhysicsServer3DS0_EEvvENUlPvPKPKvS3_E125_8__invokeES3_S7_S3_, symObjAddr: 0x17FF8, symBinAddr: 0x2F6BA4, symSize: 0x100 }
  - { offsetInCU: 0x8AFBF, offset: 0x4B66E8, size: 0x8, addend: 0x0, symName: __ZZN5godot24PhysicsServer3DExtension17register_virtualsI19JoltPhysicsServer3DS0_EEvvENUlPvPKPKvS3_E126_8__invokeES3_S7_S3_, symObjAddr: 0x180F8, symBinAddr: 0x2F710C, symSize: 0xA8 }
  - { offsetInCU: 0x8B197, offset: 0x4B68C0, size: 0x8, addend: 0x0, symName: __ZZN5godot24PhysicsServer3DExtension17register_virtualsI19JoltPhysicsServer3DS0_EEvvENUlPvPKPKvS3_E127_8__invokeES3_S7_S3_, symObjAddr: 0x181A0, symBinAddr: 0x2F7794, symSize: 0x94 }
  - { offsetInCU: 0x8B36F, offset: 0x4B6A98, size: 0x8, addend: 0x0, symName: __ZZN5godot24PhysicsServer3DExtension17register_virtualsI19JoltPhysicsServer3DS0_EEvvENUlPvPKPKvS3_E128_8__invokeES3_S7_S3_, symObjAddr: 0x18234, symBinAddr: 0x2F7B6C, symSize: 0x94 }
  - { offsetInCU: 0x8B56D, offset: 0x4B6C96, size: 0x8, addend: 0x0, symName: __ZZN5godot24PhysicsServer3DExtension17register_virtualsI19JoltPhysicsServer3DS0_EEvvENUlPvPKPKvS3_E129_8__invokeES3_S7_S3_, symObjAddr: 0x182C8, symBinAddr: 0x2F7CE4, symSize: 0x94 }
  - { offsetInCU: 0x8B745, offset: 0x4B6E6E, size: 0x8, addend: 0x0, symName: __ZZN5godot24PhysicsServer3DExtension17register_virtualsI19JoltPhysicsServer3DS0_EEvvENUlPvPKPKvS3_E130_8__invokeES3_S7_S3_, symObjAddr: 0x1835C, symBinAddr: 0x2F895C, symSize: 0x90 }
  - { offsetInCU: 0x8B944, offset: 0x4B706D, size: 0x8, addend: 0x0, symName: __ZZN5godot24PhysicsServer3DExtension17register_virtualsI19JoltPhysicsServer3DS0_EEvvENUlPvPKPKvS3_E131_8__invokeES3_S7_S3_, symObjAddr: 0x183EC, symBinAddr: 0xC7934, symSize: 0x94 }
  - { offsetInCU: 0x8BB1C, offset: 0x4B7245, size: 0x8, addend: 0x0, symName: __ZZN5godot24PhysicsServer3DExtension17register_virtualsI19JoltPhysicsServer3DS0_EEvvENUlPvPKPKvS3_E132_8__invokeES3_S7_S3_, symObjAddr: 0x18480, symBinAddr: 0x2F9084, symSize: 0x90 }
  - { offsetInCU: 0x8BD1B, offset: 0x4B7444, size: 0x8, addend: 0x0, symName: __ZZN5godot24PhysicsServer3DExtension17register_virtualsI19JoltPhysicsServer3DS0_EEvvENUlPvPKPKvS3_E133_8__invokeES3_S7_S3_, symObjAddr: 0x18510, symBinAddr: 0x2F9680, symSize: 0x94 }
  - { offsetInCU: 0x8BEF3, offset: 0x4B761C, size: 0x8, addend: 0x0, symName: __ZZN5godot24PhysicsServer3DExtension17register_virtualsI19JoltPhysicsServer3DS0_EEvvENUlPvPKPKvS3_E134_8__invokeES3_S7_S3_, symObjAddr: 0x185A4, symBinAddr: 0x2F9844, symSize: 0x90 }
  - { offsetInCU: 0x8C0F2, offset: 0x4B781B, size: 0x8, addend: 0x0, symName: __ZZN5godot24PhysicsServer3DExtension17register_virtualsI19JoltPhysicsServer3DS0_EEvvENUlPvPKPKvS3_E135_8__invokeES3_S7_S3_, symObjAddr: 0x18634, symBinAddr: 0x17AE60, symSize: 0x94 }
  - { offsetInCU: 0x8C2CA, offset: 0x4B79F3, size: 0x8, addend: 0x0, symName: __ZZN5godot24PhysicsServer3DExtension17register_virtualsI19JoltPhysicsServer3DS0_EEvvENUlPvPKPKvS3_E136_8__invokeES3_S7_S3_, symObjAddr: 0x186C8, symBinAddr: 0x2FD244, symSize: 0x90 }
  - { offsetInCU: 0x8C4C9, offset: 0x4B7BF2, size: 0x8, addend: 0x0, symName: __ZZN5godot24PhysicsServer3DExtension17register_virtualsI19JoltPhysicsServer3DS0_EEvvENUlPvPKPKvS3_E137_8__invokeES3_S7_S3_, symObjAddr: 0x18758, symBinAddr: 0x2FD698, symSize: 0x94 }
  - { offsetInCU: 0x8C6A1, offset: 0x4B7DCA, size: 0x8, addend: 0x0, symName: __ZZN5godot24PhysicsServer3DExtension17register_virtualsI19JoltPhysicsServer3DS0_EEvvENUlPvPKPKvS3_E138_8__invokeES3_S7_S3_, symObjAddr: 0x187EC, symBinAddr: 0x1A5274, symSize: 0x90 }
  - { offsetInCU: 0x8C8A0, offset: 0x4B7FC9, size: 0x8, addend: 0x0, symName: __ZZN5godot24PhysicsServer3DExtension17register_virtualsI19JoltPhysicsServer3DS0_EEvvENUlPvPKPKvS3_E139_8__invokeES3_S7_S3_, symObjAddr: 0x1887C, symBinAddr: 0x1A5AB8, symSize: 0xAC }
  - { offsetInCU: 0x8CB41, offset: 0x4B826A, size: 0x8, addend: 0x0, symName: __ZZN5godot24PhysicsServer3DExtension17register_virtualsI19JoltPhysicsServer3DS0_EEvvENUlPvPKPKvS3_E140_8__invokeES3_S7_S3_, symObjAddr: 0x18928, symBinAddr: 0x17AEF4, symSize: 0xA4 }
  - { offsetInCU: 0x8CD61, offset: 0x4B848A, size: 0x8, addend: 0x0, symName: __ZZN5godot24PhysicsServer3DExtension17register_virtualsI19JoltPhysicsServer3DS0_EEvvENUlPvPKPKvS3_E141_8__invokeES3_S7_S3_, symObjAddr: 0x189CC, symBinAddr: 0x2FE620, symSize: 0xAC }
  - { offsetInCU: 0x8CF76, offset: 0x4B869F, size: 0x8, addend: 0x0, symName: __ZZN5godot24PhysicsServer3DExtension17register_virtualsI19JoltPhysicsServer3DS0_EEvvENUlPvPKPKvS3_E142_8__invokeES3_S7_S3_, symObjAddr: 0x18A78, symBinAddr: 0x30570, symSize: 0xA0 }
  - { offsetInCU: 0x8D184, offset: 0x4B88AD, size: 0x8, addend: 0x0, symName: __ZZN5godot24PhysicsServer3DExtension17register_virtualsI19JoltPhysicsServer3DS0_EEvvENUlPvPKPKvS3_E143_8__invokeES3_S7_S3_, symObjAddr: 0x18B18, symBinAddr: 0x2FE6CC, symSize: 0x80 }
  - { offsetInCU: 0x8D345, offset: 0x4B8A6E, size: 0x8, addend: 0x0, symName: __ZZN5godot24PhysicsServer3DExtension17register_virtualsI19JoltPhysicsServer3DS0_EEvvENUlPvPKPKvS3_E144_8__invokeES3_S7_S3_, symObjAddr: 0x18B98, symBinAddr: 0x2FE74C, symSize: 0xA0 }
  - { offsetInCU: 0x8D55A, offset: 0x4B8C83, size: 0x8, addend: 0x0, symName: __ZZN5godot24PhysicsServer3DExtension17register_virtualsI19JoltPhysicsServer3DS0_EEvvENUlPvPKPKvS3_E145_8__invokeES3_S7_S3_, symObjAddr: 0x18C38, symBinAddr: 0x2FE7EC, symSize: 0x9C }
  - { offsetInCU: 0x8D768, offset: 0x4B8E91, size: 0x8, addend: 0x0, symName: __ZZN5godot24PhysicsServer3DExtension17register_virtualsI19JoltPhysicsServer3DS0_EEvvENUlPvPKPKvS3_E146_8__invokeES3_S7_S3_, symObjAddr: 0x18CD4, symBinAddr: 0xC9D80, symSize: 0x7C }
  - { offsetInCU: 0x8D90D, offset: 0x4B9036, size: 0x8, addend: 0x0, symName: __ZZN5godot24PhysicsServer3DExtension17register_virtualsI19JoltPhysicsServer3DS0_EEvvENUlPvPKPKvS3_E147_8__invokeES3_S7_S3_, symObjAddr: 0x18D50, symBinAddr: 0x66710, symSize: 0x80 }
  - { offsetInCU: 0x8DB26, offset: 0x4B924F, size: 0x8, addend: 0x0, symName: __ZZN5godot24PhysicsServer3DExtension17register_virtualsI19JoltPhysicsServer3DS0_EEvvENUlPvPKPKvS3_E148_8__invokeES3_S7_S3_, symObjAddr: 0x18DD0, symBinAddr: 0x18EAF8, symSize: 0xFC }
  - { offsetInCU: 0x8DEA2, offset: 0x4B95CB, size: 0x8, addend: 0x0, symName: __ZZN5godot24PhysicsServer3DExtension17register_virtualsI19JoltPhysicsServer3DS0_EEvvENUlPvPKPKvS3_E149_8__invokeES3_S7_S3_, symObjAddr: 0x18ECC, symBinAddr: 0xC9FF4, symSize: 0x98 }
  - { offsetInCU: 0x8E0B7, offset: 0x4B97E0, size: 0x8, addend: 0x0, symName: __ZZN5godot24PhysicsServer3DExtension17register_virtualsI19JoltPhysicsServer3DS0_EEvvENUlPvPKPKvS3_E150_8__invokeES3_S7_S3_, symObjAddr: 0x18F64, symBinAddr: 0x18EE44, symSize: 0x9C }
  - { offsetInCU: 0x8E2CD, offset: 0x4B99F6, size: 0x8, addend: 0x0, symName: __ZZN5godot24PhysicsServer3DExtension17register_virtualsI19JoltPhysicsServer3DS0_EEvvENUlPvPKPKvS3_E151_8__invokeES3_S7_S3_, symObjAddr: 0x19000, symBinAddr: 0xCA2C8, symSize: 0xA8 }
  - { offsetInCU: 0x8E4A5, offset: 0x4B9BCE, size: 0x8, addend: 0x0, symName: __ZZN5godot24PhysicsServer3DExtension17register_virtualsI19JoltPhysicsServer3DS0_EEvvENUlPvPKPKvS3_E152_8__invokeES3_S7_S3_, symObjAddr: 0x190A8, symBinAddr: 0x18F0E0, symSize: 0x94 }
  - { offsetInCU: 0x8E69C, offset: 0x4B9DC5, size: 0x8, addend: 0x0, symName: __ZZN5godot24PhysicsServer3DExtension17register_virtualsI19JoltPhysicsServer3DS0_EEvvENUlPvPKPKvS3_E153_8__invokeES3_S7_S3_, symObjAddr: 0x1913C, symBinAddr: 0xCA428, symSize: 0xA8 }
  - { offsetInCU: 0x8E874, offset: 0x4B9F9D, size: 0x8, addend: 0x0, symName: __ZZN5godot24PhysicsServer3DExtension17register_virtualsI19JoltPhysicsServer3DS0_EEvvENUlPvPKPKvS3_E154_8__invokeES3_S7_S3_, symObjAddr: 0x191E4, symBinAddr: 0x18F6CC, symSize: 0x94 }
  - { offsetInCU: 0x8EA95, offset: 0x4BA1BE, size: 0x8, addend: 0x0, symName: __ZZN5godot24PhysicsServer3DExtension17register_virtualsI19JoltPhysicsServer3DS0_EEvvENUlPvPKPKvS3_E155_8__invokeES3_S7_S3_, symObjAddr: 0x19278, symBinAddr: 0xCA720, symSize: 0xFC }
  - { offsetInCU: 0x8EE4A, offset: 0x4BA573, size: 0x8, addend: 0x0, symName: __ZZN5godot24PhysicsServer3DExtension17register_virtualsI19JoltPhysicsServer3DS0_EEvvENUlPvPKPKvS3_E156_8__invokeES3_S7_S3_, symObjAddr: 0x19374, symBinAddr: 0x18FA90, symSize: 0x128 }
  - { offsetInCU: 0x8F203, offset: 0x4BA92C, size: 0x8, addend: 0x0, symName: __ZZN5godot24PhysicsServer3DExtension17register_virtualsI19JoltPhysicsServer3DS0_EEvvENUlPvPKPKvS3_E157_8__invokeES3_S7_S3_, symObjAddr: 0x1949C, symBinAddr: 0xCA9AC, symSize: 0x98 }
  - { offsetInCU: 0x8F418, offset: 0x4BAB41, size: 0x8, addend: 0x0, symName: __ZZN5godot24PhysicsServer3DExtension17register_virtualsI19JoltPhysicsServer3DS0_EEvvENUlPvPKPKvS3_E158_8__invokeES3_S7_S3_, symObjAddr: 0x19534, symBinAddr: 0x1900B8, symSize: 0x9C }
  - { offsetInCU: 0x8F663, offset: 0x4BAD8C, size: 0x8, addend: 0x0, symName: __ZZN5godot24PhysicsServer3DExtension17register_virtualsI19JoltPhysicsServer3DS0_EEvvENUlPvPKPKvS3_E159_8__invokeES3_S7_S3_, symObjAddr: 0x195D0, symBinAddr: 0xCAC80, symSize: 0xA0 }
  - { offsetInCU: 0x8F878, offset: 0x4BAFA1, size: 0x8, addend: 0x0, symName: __ZZN5godot24PhysicsServer3DExtension17register_virtualsI19JoltPhysicsServer3DS0_EEvvENUlPvPKPKvS3_E160_8__invokeES3_S7_S3_, symObjAddr: 0x19670, symBinAddr: 0x190354, symSize: 0x9C }
  - { offsetInCU: 0x8FA86, offset: 0x4BB1AF, size: 0x8, addend: 0x0, symName: __ZZN5godot24PhysicsServer3DExtension17register_virtualsI19JoltPhysicsServer3DS0_EEvvENUlPvPKPKvS3_E161_8__invokeES3_S7_S3_, symObjAddr: 0x1970C, symBinAddr: 0xCAEEC, symSize: 0xFC }
  - { offsetInCU: 0x8FE02, offset: 0x4BB52B, size: 0x8, addend: 0x0, symName: __ZZN5godot24PhysicsServer3DExtension17register_virtualsI19JoltPhysicsServer3DS0_EEvvENUlPvPKPKvS3_E162_8__invokeES3_S7_S3_, symObjAddr: 0x19808, symBinAddr: 0x1905F0, symSize: 0x98 }
  - { offsetInCU: 0x90017, offset: 0x4BB740, size: 0x8, addend: 0x0, symName: __ZZN5godot24PhysicsServer3DExtension17register_virtualsI19JoltPhysicsServer3DS0_EEvvENUlPvPKPKvS3_E163_8__invokeES3_S7_S3_, symObjAddr: 0x198A0, symBinAddr: 0xCB0C8, symSize: 0x9C }
  - { offsetInCU: 0x9022D, offset: 0x4BB956, size: 0x8, addend: 0x0, symName: __ZZN5godot24PhysicsServer3DExtension17register_virtualsI19JoltPhysicsServer3DS0_EEvvENUlPvPKPKvS3_E164_8__invokeES3_S7_S3_, symObjAddr: 0x1993C, symBinAddr: 0x1909B8, symSize: 0xFC }
  - { offsetInCU: 0x905A9, offset: 0x4BBCD2, size: 0x8, addend: 0x0, symName: __ZZN5godot24PhysicsServer3DExtension17register_virtualsI19JoltPhysicsServer3DS0_EEvvENUlPvPKPKvS3_E165_8__invokeES3_S7_S3_, symObjAddr: 0x19A38, symBinAddr: 0xCB258, symSize: 0x98 }
  - { offsetInCU: 0x907BE, offset: 0x4BBEE7, size: 0x8, addend: 0x0, symName: __ZZN5godot24PhysicsServer3DExtension17register_virtualsI19JoltPhysicsServer3DS0_EEvvENUlPvPKPKvS3_E166_8__invokeES3_S7_S3_, symObjAddr: 0x19AD0, symBinAddr: 0x191044, symSize: 0x9C }
  - { offsetInCU: 0x909D4, offset: 0x4BC0FD, size: 0x8, addend: 0x0, symName: __ZZN5godot24PhysicsServer3DExtension17register_virtualsI19JoltPhysicsServer3DS0_EEvvENUlPvPKPKvS3_E167_8__invokeES3_S7_S3_, symObjAddr: 0x19B6C, symBinAddr: 0xCB570, symSize: 0xFC }
  - { offsetInCU: 0x90D6A, offset: 0x4BC493, size: 0x8, addend: 0x0, symName: __ZZN5godot24PhysicsServer3DExtension17register_virtualsI19JoltPhysicsServer3DS0_EEvvENUlPvPKPKvS3_E168_8__invokeES3_S7_S3_, symObjAddr: 0x19C68, symBinAddr: 0x1913A0, symSize: 0xA0 }
  - { offsetInCU: 0x90FA1, offset: 0x4BC6CA, size: 0x8, addend: 0x0, symName: __ZZN5godot24PhysicsServer3DExtension17register_virtualsI19JoltPhysicsServer3DS0_EEvvENUlPvPKPKvS3_E169_8__invokeES3_S7_S3_, symObjAddr: 0x19D08, symBinAddr: 0xCB728, symSize: 0xA0 }
  - { offsetInCU: 0x9120E, offset: 0x4BC937, size: 0x8, addend: 0x0, symName: __ZZN5godot24PhysicsServer3DExtension17register_virtualsI19JoltPhysicsServer3DS0_EEvvENUlPvPKPKvS3_E170_8__invokeES3_S7_S3_, symObjAddr: 0x19DA8, symBinAddr: 0x1916D4, symSize: 0xA8 }
  - { offsetInCU: 0x91447, offset: 0x4BCB70, size: 0x8, addend: 0x0, symName: __ZZN5godot24PhysicsServer3DExtension17register_virtualsI19JoltPhysicsServer3DS0_EEvvENUlPvPKPKvS3_E171_8__invokeES3_S7_S3_, symObjAddr: 0x19E50, symBinAddr: 0xCBA04, symSize: 0xA0 }
  - { offsetInCU: 0x916AF, offset: 0x4BCDD8, size: 0x8, addend: 0x0, symName: __ZZN5godot24PhysicsServer3DExtension17register_virtualsI19JoltPhysicsServer3DS0_EEvvENUlPvPKPKvS3_E172_8__invokeES3_S7_S3_, symObjAddr: 0x19EF0, symBinAddr: 0x19197C, symSize: 0x94 }
  - { offsetInCU: 0x918AD, offset: 0x4BCFD6, size: 0x8, addend: 0x0, symName: __ZZN5godot24PhysicsServer3DExtension17register_virtualsI19JoltPhysicsServer3DS0_EEvvENUlPvPKPKvS3_E173_8__invokeES3_S7_S3_, symObjAddr: 0x19F84, symBinAddr: 0xCBD6C, symSize: 0x94 }
  - { offsetInCU: 0x91A85, offset: 0x4BD1AE, size: 0x8, addend: 0x0, symName: __ZZN5godot24PhysicsServer3DExtension17register_virtualsI19JoltPhysicsServer3DS0_EEvvENUlPvPKPKvS3_E174_8__invokeES3_S7_S3_, symObjAddr: 0x1A018, symBinAddr: 0x191C50, symSize: 0x94 }
  - { offsetInCU: 0x91C83, offset: 0x4BD3AC, size: 0x8, addend: 0x0, symName: __ZZN5godot24PhysicsServer3DExtension17register_virtualsI19JoltPhysicsServer3DS0_EEvvENUlPvPKPKvS3_E175_8__invokeES3_S7_S3_, symObjAddr: 0x1A0AC, symBinAddr: 0xCBFBC, symSize: 0x9C }
  - { offsetInCU: 0x91E5D, offset: 0x4BD586, size: 0x8, addend: 0x0, symName: __ZZN5godot24PhysicsServer3DExtension17register_virtualsI19JoltPhysicsServer3DS0_EEvvENUlPvPKPKvS3_E176_8__invokeES3_S7_S3_, symObjAddr: 0x1A148, symBinAddr: 0x192064, symSize: 0x90 }
  - { offsetInCU: 0x92054, offset: 0x4BD77D, size: 0x8, addend: 0x0, symName: __ZZN5godot24PhysicsServer3DExtension17register_virtualsI19JoltPhysicsServer3DS0_EEvvENUlPvPKPKvS3_E177_8__invokeES3_S7_S3_, symObjAddr: 0x1A1D8, symBinAddr: 0xCC224, symSize: 0x80 }
  - { offsetInCU: 0x9222B, offset: 0x4BD954, size: 0x8, addend: 0x0, symName: __ZZN5godot24PhysicsServer3DExtension17register_virtualsI19JoltPhysicsServer3DS0_EEvvENUlPvPKPKvS3_E178_8__invokeES3_S7_S3_, symObjAddr: 0x1A258, symBinAddr: 0x1922F4, symSize: 0x1C }
  - { offsetInCU: 0x9226E, offset: 0x4BD997, size: 0x8, addend: 0x0, symName: __ZZN5godot24PhysicsServer3DExtension17register_virtualsI19JoltPhysicsServer3DS0_EEvvENUlPvPKPKvS3_E178_8__invokeES3_S7_S3_, symObjAddr: 0x1A258, symBinAddr: 0x1922F4, symSize: 0x1C }
  - { offsetInCU: 0x92293, offset: 0x4BD9BC, size: 0x8, addend: 0x0, symName: __ZZN5godot24PhysicsServer3DExtension17register_virtualsI19JoltPhysicsServer3DS0_EEvvENUlPvPKPKvS3_E178_8__invokeES3_S7_S3_, symObjAddr: 0x1A258, symBinAddr: 0x1922F4, symSize: 0x1C }
  - { offsetInCU: 0x922B8, offset: 0x4BD9E1, size: 0x8, addend: 0x0, symName: __ZZN5godot24PhysicsServer3DExtension17register_virtualsI19JoltPhysicsServer3DS0_EEvvENUlPvPKPKvS3_E178_8__invokeES3_S7_S3_, symObjAddr: 0x1A258, symBinAddr: 0x1922F4, symSize: 0x1C }
  - { offsetInCU: 0x92372, offset: 0x4BDA9B, size: 0x8, addend: 0x0, symName: __ZZN5godot24PhysicsServer3DExtension17register_virtualsI19JoltPhysicsServer3DS0_EEvvENUlPvPKPKvS3_E179_8__invokeES3_S7_S3_, symObjAddr: 0x1A274, symBinAddr: 0xCC384, symSize: 0xC }
  - { offsetInCU: 0x923B1, offset: 0x4BDADA, size: 0x8, addend: 0x0, symName: __ZZN5godot24PhysicsServer3DExtension17register_virtualsI19JoltPhysicsServer3DS0_EEvvENUlPvPKPKvS3_E179_8__invokeES3_S7_S3_, symObjAddr: 0x1A274, symBinAddr: 0xCC384, symSize: 0xC }
  - { offsetInCU: 0x923CD, offset: 0x4BDAF6, size: 0x8, addend: 0x0, symName: __ZZN5godot24PhysicsServer3DExtension17register_virtualsI19JoltPhysicsServer3DS0_EEvvENUlPvPKPKvS3_E179_8__invokeES3_S7_S3_, symObjAddr: 0x1A274, symBinAddr: 0xCC384, symSize: 0xC }
  - { offsetInCU: 0x923E9, offset: 0x4BDB12, size: 0x8, addend: 0x0, symName: __ZZN5godot24PhysicsServer3DExtension17register_virtualsI19JoltPhysicsServer3DS0_EEvvENUlPvPKPKvS3_E179_8__invokeES3_S7_S3_, symObjAddr: 0x1A274, symBinAddr: 0xCC384, symSize: 0xC }
  - { offsetInCU: 0x92480, offset: 0x4BDBA9, size: 0x8, addend: 0x0, symName: __ZZN5godot24PhysicsServer3DExtension17register_virtualsI19JoltPhysicsServer3DS0_EEvvENUlPvPKPKvS3_E180_8__invokeES3_S7_S3_, symObjAddr: 0x1A280, symBinAddr: 0x192610, symSize: 0x14 }
  - { offsetInCU: 0x924C1, offset: 0x4BDBEA, size: 0x8, addend: 0x0, symName: __ZZN5godot24PhysicsServer3DExtension17register_virtualsI19JoltPhysicsServer3DS0_EEvvENUlPvPKPKvS3_E180_8__invokeES3_S7_S3_, symObjAddr: 0x1A280, symBinAddr: 0x192610, symSize: 0x14 }
  - { offsetInCU: 0x924E4, offset: 0x4BDC0D, size: 0x8, addend: 0x0, symName: __ZZN5godot24PhysicsServer3DExtension17register_virtualsI19JoltPhysicsServer3DS0_EEvvENUlPvPKPKvS3_E180_8__invokeES3_S7_S3_, symObjAddr: 0x1A280, symBinAddr: 0x192610, symSize: 0x14 }
  - { offsetInCU: 0x92507, offset: 0x4BDC30, size: 0x8, addend: 0x0, symName: __ZZN5godot24PhysicsServer3DExtension17register_virtualsI19JoltPhysicsServer3DS0_EEvvENUlPvPKPKvS3_E180_8__invokeES3_S7_S3_, symObjAddr: 0x1A280, symBinAddr: 0x192610, symSize: 0x14 }
  - { offsetInCU: 0x925AC, offset: 0x4BDCD5, size: 0x8, addend: 0x0, symName: __ZZN5godot24PhysicsServer3DExtension17register_virtualsI19JoltPhysicsServer3DS0_EEvvENUlPvPKPKvS3_E181_8__invokeES3_S7_S3_, symObjAddr: 0x1A294, symBinAddr: 0xCC574, symSize: 0xC }
  - { offsetInCU: 0x925EB, offset: 0x4BDD14, size: 0x8, addend: 0x0, symName: __ZZN5godot24PhysicsServer3DExtension17register_virtualsI19JoltPhysicsServer3DS0_EEvvENUlPvPKPKvS3_E181_8__invokeES3_S7_S3_, symObjAddr: 0x1A294, symBinAddr: 0xCC574, symSize: 0xC }
  - { offsetInCU: 0x92607, offset: 0x4BDD30, size: 0x8, addend: 0x0, symName: __ZZN5godot24PhysicsServer3DExtension17register_virtualsI19JoltPhysicsServer3DS0_EEvvENUlPvPKPKvS3_E181_8__invokeES3_S7_S3_, symObjAddr: 0x1A294, symBinAddr: 0xCC574, symSize: 0xC }
  - { offsetInCU: 0x92623, offset: 0x4BDD4C, size: 0x8, addend: 0x0, symName: __ZZN5godot24PhysicsServer3DExtension17register_virtualsI19JoltPhysicsServer3DS0_EEvvENUlPvPKPKvS3_E181_8__invokeES3_S7_S3_, symObjAddr: 0x1A294, symBinAddr: 0xCC574, symSize: 0xC }
  - { offsetInCU: 0x926A4, offset: 0x4BDDCD, size: 0x8, addend: 0x0, symName: __ZZN5godot24PhysicsServer3DExtension17register_virtualsI19JoltPhysicsServer3DS0_EEvvENUlPvPKPKvS3_E182_8__invokeES3_S7_S3_, symObjAddr: 0x1A2A0, symBinAddr: 0x192838, symSize: 0xC }
  - { offsetInCU: 0x926E3, offset: 0x4BDE0C, size: 0x8, addend: 0x0, symName: __ZZN5godot24PhysicsServer3DExtension17register_virtualsI19JoltPhysicsServer3DS0_EEvvENUlPvPKPKvS3_E182_8__invokeES3_S7_S3_, symObjAddr: 0x1A2A0, symBinAddr: 0x192838, symSize: 0xC }
  - { offsetInCU: 0x926FF, offset: 0x4BDE28, size: 0x8, addend: 0x0, symName: __ZZN5godot24PhysicsServer3DExtension17register_virtualsI19JoltPhysicsServer3DS0_EEvvENUlPvPKPKvS3_E182_8__invokeES3_S7_S3_, symObjAddr: 0x1A2A0, symBinAddr: 0x192838, symSize: 0xC }
  - { offsetInCU: 0x9271B, offset: 0x4BDE44, size: 0x8, addend: 0x0, symName: __ZZN5godot24PhysicsServer3DExtension17register_virtualsI19JoltPhysicsServer3DS0_EEvvENUlPvPKPKvS3_E182_8__invokeES3_S7_S3_, symObjAddr: 0x1A2A0, symBinAddr: 0x192838, symSize: 0xC }
  - { offsetInCU: 0x9279C, offset: 0x4BDEC5, size: 0x8, addend: 0x0, symName: __ZZN5godot24PhysicsServer3DExtension17register_virtualsI19JoltPhysicsServer3DS0_EEvvENUlPvPKPKvS3_E183_8__invokeES3_S7_S3_, symObjAddr: 0x1A2AC, symBinAddr: 0xCC8C0, symSize: 0xC }
  - { offsetInCU: 0x927DB, offset: 0x4BDF04, size: 0x8, addend: 0x0, symName: __ZZN5godot24PhysicsServer3DExtension17register_virtualsI19JoltPhysicsServer3DS0_EEvvENUlPvPKPKvS3_E183_8__invokeES3_S7_S3_, symObjAddr: 0x1A2AC, symBinAddr: 0xCC8C0, symSize: 0xC }
  - { offsetInCU: 0x927F7, offset: 0x4BDF20, size: 0x8, addend: 0x0, symName: __ZZN5godot24PhysicsServer3DExtension17register_virtualsI19JoltPhysicsServer3DS0_EEvvENUlPvPKPKvS3_E183_8__invokeES3_S7_S3_, symObjAddr: 0x1A2AC, symBinAddr: 0xCC8C0, symSize: 0xC }
  - { offsetInCU: 0x92813, offset: 0x4BDF3C, size: 0x8, addend: 0x0, symName: __ZZN5godot24PhysicsServer3DExtension17register_virtualsI19JoltPhysicsServer3DS0_EEvvENUlPvPKPKvS3_E183_8__invokeES3_S7_S3_, symObjAddr: 0x1A2AC, symBinAddr: 0xCC8C0, symSize: 0xC }
  - { offsetInCU: 0x92894, offset: 0x4BDFBD, size: 0x8, addend: 0x0, symName: __ZZN5godot24PhysicsServer3DExtension17register_virtualsI19JoltPhysicsServer3DS0_EEvvENUlPvPKPKvS3_E184_8__invokeES3_S7_S3_, symObjAddr: 0x1A2B8, symBinAddr: 0x193148, symSize: 0xC }
  - { offsetInCU: 0x928D3, offset: 0x4BDFFC, size: 0x8, addend: 0x0, symName: __ZZN5godot24PhysicsServer3DExtension17register_virtualsI19JoltPhysicsServer3DS0_EEvvENUlPvPKPKvS3_E184_8__invokeES3_S7_S3_, symObjAddr: 0x1A2B8, symBinAddr: 0x193148, symSize: 0xC }
  - { offsetInCU: 0x928EF, offset: 0x4BE018, size: 0x8, addend: 0x0, symName: __ZZN5godot24PhysicsServer3DExtension17register_virtualsI19JoltPhysicsServer3DS0_EEvvENUlPvPKPKvS3_E184_8__invokeES3_S7_S3_, symObjAddr: 0x1A2B8, symBinAddr: 0x193148, symSize: 0xC }
  - { offsetInCU: 0x9290B, offset: 0x4BE034, size: 0x8, addend: 0x0, symName: __ZZN5godot24PhysicsServer3DExtension17register_virtualsI19JoltPhysicsServer3DS0_EEvvENUlPvPKPKvS3_E184_8__invokeES3_S7_S3_, symObjAddr: 0x1A2B8, symBinAddr: 0x193148, symSize: 0xC }
  - { offsetInCU: 0x929A2, offset: 0x4BE0CB, size: 0x8, addend: 0x0, symName: __ZZN5godot24PhysicsServer3DExtension17register_virtualsI19JoltPhysicsServer3DS0_EEvvENUlPvPKPKvS3_E185_8__invokeES3_S7_S3_, symObjAddr: 0x1A2C4, symBinAddr: 0xCCB4C, symSize: 0x2C }
  - { offsetInCU: 0x92B07, offset: 0x4BE230, size: 0x8, addend: 0x0, symName: __ZZN5godot24PhysicsServer3DExtension17register_virtualsI19JoltPhysicsServer3DS0_EEvvENUlPvPKPKvS3_E186_8__invokeES3_S7_S3_, symObjAddr: 0x1A2F0, symBinAddr: 0x193344, symSize: 0x38 }
  - { offsetInCU: 0x92C2F, offset: 0x4BE358, size: 0x8, addend: 0x0, symName: __ZNK5godot36CallableCustomStaticMethodPointerRetIP19JoltPhysicsServer3DJEE10get_objectEv, symObjAddr: 0x1A328, symBinAddr: 0xCCC58, symSize: 0x8 }
  - { offsetInCU: 0x92C52, offset: 0x4BE37B, size: 0x8, addend: 0x0, symName: __ZNK5godot36CallableCustomStaticMethodPointerRetIP19JoltPhysicsServer3DJEE18get_argument_countERb, symObjAddr: 0x1A330, symBinAddr: 0x1935F0, symSize: 0x10 }
  - { offsetInCU: 0x92C84, offset: 0x4BE3AD, size: 0x8, addend: 0x0, symName: __ZNK5godot36CallableCustomStaticMethodPointerRetIP19JoltPhysicsServer3DJEE4callEPPKNS_7VariantEiRS4_R20GDExtensionCallError, symObjAddr: 0x1A340, symBinAddr: 0xCD444, symSize: 0xD8 }
  - { offsetInCU: 0x92DFB, offset: 0x4BE524, size: 0x8, addend: 0x0, symName: __ZN5godot36CallableCustomStaticMethodPointerRetIP19JoltPhysicsServer3DJEED1Ev, symObjAddr: 0x1A418, symBinAddr: 0x1937D0, symSize: 0x4 }
  - { offsetInCU: 0x92E27, offset: 0x4BE550, size: 0x8, addend: 0x0, symName: __ZN5godot36CallableCustomStaticMethodPointerRetIP19JoltPhysicsServer3DJEED0Ev, symObjAddr: 0x1A41C, symBinAddr: 0xCD72C, symSize: 0x4 }
  - { offsetInCU: 0x92E53, offset: 0x4BE57C, size: 0x8, addend: 0x0, symName: __ZN11JoltJoint3D8set_bindEPvPKvS2_, symObjAddr: 0x1A420, symBinAddr: 0x193A28, symSize: 0x8 }
  - { offsetInCU: 0x92E8C, offset: 0x4BE5B5, size: 0x8, addend: 0x0, symName: __ZN11JoltJoint3D8get_bindEPvPKvS0_, symObjAddr: 0x1A428, symBinAddr: 0xCDAB0, symSize: 0x8 }
  - { offsetInCU: 0x92EC5, offset: 0x4BE5EE, size: 0x8, addend: 0x0, symName: __ZN11JoltJoint3D22get_property_list_bindEPvPj, symObjAddr: 0x1A430, symBinAddr: 0x193D84, symSize: 0x144 }
  - { offsetInCU: 0x930C6, offset: 0x4BE7EF, size: 0x8, addend: 0x0, symName: __ZN11JoltJoint3D23free_property_list_bindEPvPK23GDExtensionPropertyInfoj, symObjAddr: 0x1A574, symBinAddr: 0xCDD08, symSize: 0x14C }
  - { offsetInCU: 0x9347F, offset: 0x4BEBA8, size: 0x8, addend: 0x0, symName: __ZN11JoltJoint3D24property_can_revert_bindEPvPKv, symObjAddr: 0x1A6C0, symBinAddr: 0x1940B4, symSize: 0x8 }
  - { offsetInCU: 0x934AC, offset: 0x4BEBD5, size: 0x8, addend: 0x0, symName: __ZN11JoltJoint3D24property_get_revert_bindEPvPKvS0_, symObjAddr: 0x1A6C8, symBinAddr: 0xCDEB4, symSize: 0x8 }
  - { offsetInCU: 0x934E5, offset: 0x4BEC0E, size: 0x8, addend: 0x0, symName: __ZN11JoltJoint3D22validate_property_bindEPvP23GDExtensionPropertyInfo, symObjAddr: 0x1A6D0, symBinAddr: 0x194338, symSize: 0x154 }
  - { offsetInCU: 0x9385F, offset: 0x4BEF88, size: 0x8, addend: 0x0, symName: __ZN11JoltJoint3D17notification_bindEPvih, symObjAddr: 0x1A824, symBinAddr: 0xCDFA0, symSize: 0xC }
  - { offsetInCU: 0x938B8, offset: 0x4BEFE1, size: 0x8, addend: 0x0, symName: __ZN11JoltJoint3D14to_string_bindEPvPhS0_, symObjAddr: 0x1A830, symBinAddr: 0x1946A0, symSize: 0x88 }
  - { offsetInCU: 0x939D6, offset: 0x4BF0FF, size: 0x8, addend: 0x0, symName: __ZN5godot7ClassDB21_create_instance_funcI11JoltJoint3DEEPvS3_, symObjAddr: 0x1A8B8, symBinAddr: 0xCE090, symSize: 0x138 }
  - { offsetInCU: 0x93B7C, offset: 0x4BF2A5, size: 0x8, addend: 0x0, symName: __ZN11JoltJoint3D4freeEPvS0_, symObjAddr: 0x1A9F0, symBinAddr: 0x19493C, symSize: 0x40 }
  - { offsetInCU: 0x93C17, offset: 0x4BF340, size: 0x8, addend: 0x0, symName: __ZN5godot7ClassDB23_recreate_instance_funcI11JoltJoint3DEEPvS3_S3_, symObjAddr: 0x1AA30, symBinAddr: 0xCE2AC, symSize: 0x8 }
  - { offsetInCU: 0x93CCB, offset: 0x4BF3F4, size: 0x8, addend: 0x0, symName: __ZZN5godot4Node17register_virtualsI11JoltJoint3DNS_6Node3DEEEvvENUlPvPKPKvS4_E_8__invokeES4_S8_S4_, symObjAddr: 0x1AA38, symBinAddr: 0xCE300, symSize: 0xA0 }
  - { offsetInCU: 0x93E73, offset: 0x4BF59C, size: 0x8, addend: 0x0, symName: __ZN14JoltPinJoint3D8set_bindEPvPKvS2_, symObjAddr: 0x1AAD8, symBinAddr: 0xCE3AC, symSize: 0x8 }
  - { offsetInCU: 0x93EAC, offset: 0x4BF5D5, size: 0x8, addend: 0x0, symName: __ZN14JoltPinJoint3D8get_bindEPvPKvS0_, symObjAddr: 0x1AAE0, symBinAddr: 0x194E84, symSize: 0x8 }
  - { offsetInCU: 0x93EE5, offset: 0x4BF60E, size: 0x8, addend: 0x0, symName: __ZN14JoltPinJoint3D23free_property_list_bindEPvPK23GDExtensionPropertyInfoj, symObjAddr: 0x1AAE8, symBinAddr: 0xCE498, symSize: 0x14C }
  - { offsetInCU: 0x9429E, offset: 0x4BF9C7, size: 0x8, addend: 0x0, symName: __ZN14JoltPinJoint3D24property_can_revert_bindEPvPKv, symObjAddr: 0x1AC34, symBinAddr: 0x1950A0, symSize: 0x8 }
  - { offsetInCU: 0x942CB, offset: 0x4BF9F4, size: 0x8, addend: 0x0, symName: __ZN14JoltPinJoint3D24property_get_revert_bindEPvPKvS0_, symObjAddr: 0x1AC3C, symBinAddr: 0xCE6C8, symSize: 0x8 }
  - { offsetInCU: 0x9434B, offset: 0x4BFA74, size: 0x8, addend: 0x0, symName: __ZN14JoltPinJoint3D22validate_property_bindEPvP23GDExtensionPropertyInfo, symObjAddr: 0x1AC44, symBinAddr: 0x1952BC, symSize: 0x15C }
  - { offsetInCU: 0x94708, offset: 0x4BFE31, size: 0x8, addend: 0x0, symName: __ZN14JoltPinJoint3D17notification_bindEPvih, symObjAddr: 0x1ADA0, symBinAddr: 0xCE7B4, symSize: 0xC }
  - { offsetInCU: 0x94780, offset: 0x4BFEA9, size: 0x8, addend: 0x0, symName: __ZN14JoltPinJoint3D14to_string_bindEPvPhS0_, symObjAddr: 0x1ADAC, symBinAddr: 0x19562C, symSize: 0x88 }
  - { offsetInCU: 0x948FA, offset: 0x4C0023, size: 0x8, addend: 0x0, symName: __ZN5godot7ClassDB21_create_instance_funcI14JoltPinJoint3DEEPvS3_, symObjAddr: 0x1AE34, symBinAddr: 0xCE8A4, symSize: 0x13C }
  - { offsetInCU: 0x94AE9, offset: 0x4C0212, size: 0x8, addend: 0x0, symName: __ZN14JoltPinJoint3D4freeEPvS0_, symObjAddr: 0x1AF70, symBinAddr: 0x195888, symSize: 0x28 }
  - { offsetInCU: 0x94BAB, offset: 0x4C02D4, size: 0x8, addend: 0x0, symName: __ZN5godot7ClassDB23_recreate_instance_funcI14JoltPinJoint3DEEPvS3_S3_, symObjAddr: 0x1AF98, symBinAddr: 0xCEAC4, symSize: 0x8 }
  - { offsetInCU: 0x94BE1, offset: 0x4C030A, size: 0x8, addend: 0x0, symName: __ZN16JoltHingeJoint3D8set_bindEPvPKvS2_, symObjAddr: 0x1AFA0, symBinAddr: 0x195A78, symSize: 0x8 }
  - { offsetInCU: 0x94C1A, offset: 0x4C0343, size: 0x8, addend: 0x0, symName: __ZN16JoltHingeJoint3D8get_bindEPvPKvS0_, symObjAddr: 0x1AFA8, symBinAddr: 0xCEBB0, symSize: 0x8 }
  - { offsetInCU: 0x94C53, offset: 0x4C037C, size: 0x8, addend: 0x0, symName: __ZN16JoltHingeJoint3D23free_property_list_bindEPvPK23GDExtensionPropertyInfoj, symObjAddr: 0x1AFB0, symBinAddr: 0xCEFAC, symSize: 0x14C }
  - { offsetInCU: 0x9500C, offset: 0x4C0735, size: 0x8, addend: 0x0, symName: __ZN16JoltHingeJoint3D24property_can_revert_bindEPvPKv, symObjAddr: 0x1B0FC, symBinAddr: 0x1962A4, symSize: 0x8 }
  - { offsetInCU: 0x95039, offset: 0x4C0762, size: 0x8, addend: 0x0, symName: __ZN16JoltHingeJoint3D24property_get_revert_bindEPvPKvS0_, symObjAddr: 0x1B104, symBinAddr: 0x1964CC, symSize: 0x8 }
  - { offsetInCU: 0x95072, offset: 0x4C079B, size: 0x8, addend: 0x0, symName: __ZN16JoltHingeJoint3D22validate_property_bindEPvP23GDExtensionPropertyInfo, symObjAddr: 0x1B10C, symBinAddr: 0xCF444, symSize: 0x15C }
  - { offsetInCU: 0x9542F, offset: 0x4C0B58, size: 0x8, addend: 0x0, symName: __ZN16JoltHingeJoint3D17notification_bindEPvih, symObjAddr: 0x1B268, symBinAddr: 0x1965D0, symSize: 0xC }
  - { offsetInCU: 0x9546C, offset: 0x4C0B95, size: 0x8, addend: 0x0, symName: __ZN16JoltHingeJoint3D14to_string_bindEPvPhS0_, symObjAddr: 0x1B274, symBinAddr: 0xCF5D4, symSize: 0x88 }
  - { offsetInCU: 0x955E6, offset: 0x4C0D0F, size: 0x8, addend: 0x0, symName: __ZN5godot7ClassDB21_create_instance_funcI16JoltHingeJoint3DEEPvS3_, symObjAddr: 0x1B2FC, symBinAddr: 0x1967B4, symSize: 0x158 }
  - { offsetInCU: 0x957D5, offset: 0x4C0EFE, size: 0x8, addend: 0x0, symName: __ZN16JoltHingeJoint3D4freeEPvS0_, symObjAddr: 0x1B454, symBinAddr: 0xCF718, symSize: 0x28 }
  - { offsetInCU: 0x95897, offset: 0x4C0FC0, size: 0x8, addend: 0x0, symName: __ZN5godot7ClassDB23_recreate_instance_funcI16JoltHingeJoint3DEEPvS3_S3_, symObjAddr: 0x1B47C, symBinAddr: 0x196AEC, symSize: 0x8 }
  - { offsetInCU: 0x958CD, offset: 0x4C0FF6, size: 0x8, addend: 0x0, symName: __ZN17JoltSliderJoint3D8set_bindEPvPKvS2_, symObjAddr: 0x1B484, symBinAddr: 0xCF758, symSize: 0x8 }
  - { offsetInCU: 0x95906, offset: 0x4C102F, size: 0x8, addend: 0x0, symName: __ZN17JoltSliderJoint3D8get_bindEPvPKvS0_, symObjAddr: 0x1B48C, symBinAddr: 0x196C90, symSize: 0x8 }
  - { offsetInCU: 0x9593F, offset: 0x4C1068, size: 0x8, addend: 0x0, symName: __ZN17JoltSliderJoint3D23free_property_list_bindEPvPK23GDExtensionPropertyInfoj, symObjAddr: 0x1B494, symBinAddr: 0xCF7DC, symSize: 0x14C }
  - { offsetInCU: 0x95CF8, offset: 0x4C1421, size: 0x8, addend: 0x0, symName: __ZN17JoltSliderJoint3D24property_can_revert_bindEPvPKv, symObjAddr: 0x1B5E0, symBinAddr: 0x196E34, symSize: 0x8 }
  - { offsetInCU: 0x95D25, offset: 0x4C144E, size: 0x8, addend: 0x0, symName: __ZN17JoltSliderJoint3D24property_get_revert_bindEPvPKvS0_, symObjAddr: 0x1B5E8, symBinAddr: 0xCFDAC, symSize: 0x8 }
  - { offsetInCU: 0x95D5E, offset: 0x4C1487, size: 0x8, addend: 0x0, symName: __ZN17JoltSliderJoint3D22validate_property_bindEPvP23GDExtensionPropertyInfo, symObjAddr: 0x1B5F0, symBinAddr: 0x1972D0, symSize: 0x15C }
  - { offsetInCU: 0x9611B, offset: 0x4C1844, size: 0x8, addend: 0x0, symName: __ZN17JoltSliderJoint3D17notification_bindEPvih, symObjAddr: 0x1B74C, symBinAddr: 0xD00B8, symSize: 0xC }
  - { offsetInCU: 0x96158, offset: 0x4C1881, size: 0x8, addend: 0x0, symName: __ZN17JoltSliderJoint3D14to_string_bindEPvPhS0_, symObjAddr: 0x1B758, symBinAddr: 0x197654, symSize: 0x88 }
  - { offsetInCU: 0x962D2, offset: 0x4C19FB, size: 0x8, addend: 0x0, symName: __ZN5godot7ClassDB21_create_instance_funcI17JoltSliderJoint3DEEPvS3_, symObjAddr: 0x1B7E0, symBinAddr: 0xD03D4, symSize: 0x158 }
  - { offsetInCU: 0x964C1, offset: 0x4C1BEA, size: 0x8, addend: 0x0, symName: __ZN17JoltSliderJoint3D4freeEPvS0_, symObjAddr: 0x1B938, symBinAddr: 0x197C9C, symSize: 0x28 }
  - { offsetInCU: 0x96583, offset: 0x4C1CAC, size: 0x8, addend: 0x0, symName: __ZN5godot7ClassDB23_recreate_instance_funcI17JoltSliderJoint3DEEPvS3_S3_, symObjAddr: 0x1B960, symBinAddr: 0xD05E4, symSize: 0x8 }
  - { offsetInCU: 0x965B9, offset: 0x4C1CE2, size: 0x8, addend: 0x0, symName: __ZN20JoltConeTwistJoint3D8set_bindEPvPKvS2_, symObjAddr: 0x1B968, symBinAddr: 0x1982D0, symSize: 0x8 }
  - { offsetInCU: 0x965F2, offset: 0x4C1D1B, size: 0x8, addend: 0x0, symName: __ZN20JoltConeTwistJoint3D8get_bindEPvPKvS0_, symObjAddr: 0x1B970, symBinAddr: 0xD0858, symSize: 0x8 }
  - { offsetInCU: 0x9662B, offset: 0x4C1D54, size: 0x8, addend: 0x0, symName: __ZN20JoltConeTwistJoint3D23free_property_list_bindEPvPK23GDExtensionPropertyInfoj, symObjAddr: 0x1B978, symBinAddr: 0x1985C4, symSize: 0x14C }
  - { offsetInCU: 0x969E4, offset: 0x4C210D, size: 0x8, addend: 0x0, symName: __ZN20JoltConeTwistJoint3D24property_can_revert_bindEPvPKv, symObjAddr: 0x1BAC4, symBinAddr: 0xD0BA0, symSize: 0x8 }
  - { offsetInCU: 0x96A11, offset: 0x4C213A, size: 0x8, addend: 0x0, symName: __ZN20JoltConeTwistJoint3D24property_get_revert_bindEPvPKvS0_, symObjAddr: 0x1BACC, symBinAddr: 0x199124, symSize: 0x8 }
  - { offsetInCU: 0x96A4A, offset: 0x4C2173, size: 0x8, addend: 0x0, symName: __ZN20JoltConeTwistJoint3D22validate_property_bindEPvP23GDExtensionPropertyInfo, symObjAddr: 0x1BAD4, symBinAddr: 0xD0C88, symSize: 0x15C }
  - { offsetInCU: 0x96E07, offset: 0x4C2530, size: 0x8, addend: 0x0, symName: __ZN20JoltConeTwistJoint3D17notification_bindEPvih, symObjAddr: 0x1BC30, symBinAddr: 0x199790, symSize: 0xC }
  - { offsetInCU: 0x96E44, offset: 0x4C256D, size: 0x8, addend: 0x0, symName: __ZN20JoltConeTwistJoint3D14to_string_bindEPvPhS0_, symObjAddr: 0x1BC3C, symBinAddr: 0xD0FC8, symSize: 0x88 }
  - { offsetInCU: 0x96FBE, offset: 0x4C26E7, size: 0x8, addend: 0x0, symName: __ZN5godot7ClassDB21_create_instance_funcI20JoltConeTwistJoint3DEEPvS3_, symObjAddr: 0x1BCC4, symBinAddr: 0x199C8C, symSize: 0x15C }
  - { offsetInCU: 0x971AD, offset: 0x4C28D6, size: 0x8, addend: 0x0, symName: __ZN20JoltConeTwistJoint3D4freeEPvS0_, symObjAddr: 0x1BE20, symBinAddr: 0xD1390, symSize: 0x28 }
  - { offsetInCU: 0x9726F, offset: 0x4C2998, size: 0x8, addend: 0x0, symName: __ZN5godot7ClassDB23_recreate_instance_funcI20JoltConeTwistJoint3DEEPvS3_S3_, symObjAddr: 0x1BE48, symBinAddr: 0x19A130, symSize: 0x8 }
  - { offsetInCU: 0x972A5, offset: 0x4C29CE, size: 0x8, addend: 0x0, symName: __ZN22JoltGeneric6DOFJoint3D8set_bindEPvPKvS2_, symObjAddr: 0x1BE50, symBinAddr: 0xD1638, symSize: 0x8 }
  - { offsetInCU: 0x972DE, offset: 0x4C2A07, size: 0x8, addend: 0x0, symName: __ZN22JoltGeneric6DOFJoint3D8get_bindEPvPKvS0_, symObjAddr: 0x1BE58, symBinAddr: 0x19A438, symSize: 0x8 }
  - { offsetInCU: 0x97317, offset: 0x4C2A40, size: 0x8, addend: 0x0, symName: __ZN22JoltGeneric6DOFJoint3D23free_property_list_bindEPvPK23GDExtensionPropertyInfoj, symObjAddr: 0x1BE60, symBinAddr: 0xD1790, symSize: 0x14C }
  - { offsetInCU: 0x976D0, offset: 0x4C2DF9, size: 0x8, addend: 0x0, symName: __ZN22JoltGeneric6DOFJoint3D24property_can_revert_bindEPvPKv, symObjAddr: 0x1BFAC, symBinAddr: 0x19A8CC, symSize: 0x8 }
  - { offsetInCU: 0x976FD, offset: 0x4C2E26, size: 0x8, addend: 0x0, symName: __ZN22JoltGeneric6DOFJoint3D24property_get_revert_bindEPvPKvS0_, symObjAddr: 0x1BFB4, symBinAddr: 0xD1994, symSize: 0x8 }
  - { offsetInCU: 0x97736, offset: 0x4C2E5F, size: 0x8, addend: 0x0, symName: __ZN22JoltGeneric6DOFJoint3D22validate_property_bindEPvP23GDExtensionPropertyInfo, symObjAddr: 0x1BFBC, symBinAddr: 0x19AB98, symSize: 0x15C }
  - { offsetInCU: 0x97AF3, offset: 0x4C321C, size: 0x8, addend: 0x0, symName: __ZN22JoltGeneric6DOFJoint3D17notification_bindEPvih, symObjAddr: 0x1C118, symBinAddr: 0xD1B58, symSize: 0xC }
  - { offsetInCU: 0x97B30, offset: 0x4C3259, size: 0x8, addend: 0x0, symName: __ZN22JoltGeneric6DOFJoint3D14to_string_bindEPvPhS0_, symObjAddr: 0x1C124, symBinAddr: 0x19B1B8, symSize: 0x88 }
  - { offsetInCU: 0x97C72, offset: 0x4C339B, size: 0x8, addend: 0x0, symName: __ZN5godot7ClassDB21_create_instance_funcI22JoltGeneric6DOFJoint3DEEPvS3_, symObjAddr: 0x1C1AC, symBinAddr: 0xD1CF4, symSize: 0x1F8 }
  - { offsetInCU: 0x97F71, offset: 0x4C369A, size: 0x8, addend: 0x0, symName: __ZN22JoltGeneric6DOFJoint3D4freeEPvS0_, symObjAddr: 0x1C3A4, symBinAddr: 0x19B5EC, symSize: 0x28 }
  - { offsetInCU: 0x98033, offset: 0x4C375C, size: 0x8, addend: 0x0, symName: __ZN5godot7ClassDB23_recreate_instance_funcI22JoltGeneric6DOFJoint3DEEPvS3_S3_, symObjAddr: 0x1C3CC, symBinAddr: 0xD203C, symSize: 0x8 }
  - { offsetInCU: 0x98069, offset: 0x4C3792, size: 0x8, addend: 0x0, symName: __ZN19JoltDebugGeometry3D8set_bindEPvPKvS2_, symObjAddr: 0x1C3D4, symBinAddr: 0x19BAA8, symSize: 0x8 }
  - { offsetInCU: 0x980A2, offset: 0x4C37CB, size: 0x8, addend: 0x0, symName: __ZN19JoltDebugGeometry3D8get_bindEPvPKvS0_, symObjAddr: 0x1C3DC, symBinAddr: 0xD2140, symSize: 0x8 }
  - { offsetInCU: 0x980DB, offset: 0x4C3804, size: 0x8, addend: 0x0, symName: __ZN19JoltDebugGeometry3D22get_property_list_bindEPvPj, symObjAddr: 0x1C3E4, symBinAddr: 0x19C098, symSize: 0x144 }
  - { offsetInCU: 0x982DC, offset: 0x4C3A05, size: 0x8, addend: 0x0, symName: __ZN19JoltDebugGeometry3D23free_property_list_bindEPvPK23GDExtensionPropertyInfoj, symObjAddr: 0x1C528, symBinAddr: 0xD2384, symSize: 0x14C }
  - { offsetInCU: 0x98695, offset: 0x4C3DBE, size: 0x8, addend: 0x0, symName: __ZN19JoltDebugGeometry3D24property_can_revert_bindEPvPKv, symObjAddr: 0x1C674, symBinAddr: 0x19C51C, symSize: 0x8 }
  - { offsetInCU: 0x986C2, offset: 0x4C3DEB, size: 0x8, addend: 0x0, symName: __ZN19JoltDebugGeometry3D24property_get_revert_bindEPvPKvS0_, symObjAddr: 0x1C67C, symBinAddr: 0xD269C, symSize: 0x8 }
  - { offsetInCU: 0x986FB, offset: 0x4C3E24, size: 0x8, addend: 0x0, symName: __ZN19JoltDebugGeometry3D22validate_property_bindEPvP23GDExtensionPropertyInfo, symObjAddr: 0x1C684, symBinAddr: 0x19C968, symSize: 0x154 }
  - { offsetInCU: 0x98A97, offset: 0x4C41C0, size: 0x8, addend: 0x0, symName: __ZN19JoltDebugGeometry3D17notification_bindEPvih, symObjAddr: 0x1C7D8, symBinAddr: 0xD2784, symSize: 0x4 }
  - { offsetInCU: 0x98AD0, offset: 0x4C41F9, size: 0x8, addend: 0x0, symName: __ZN19JoltDebugGeometry3D14to_string_bindEPvPhS0_, symObjAddr: 0x1C7DC, symBinAddr: 0xD2790, symSize: 0x88 }
  - { offsetInCU: 0x98C09, offset: 0x4C4332, size: 0x8, addend: 0x0, symName: __ZN5godot7ClassDB21_create_instance_funcI19JoltDebugGeometry3DEEPvS3_, symObjAddr: 0x1C864, symBinAddr: 0xD2AA8, symSize: 0x1B0 }
  - { offsetInCU: 0x98F82, offset: 0x4C46AB, size: 0x8, addend: 0x0, symName: __ZN19JoltDebugGeometry3D4freeEPvS0_, symObjAddr: 0x1CA14, symBinAddr: 0x19D238, symSize: 0x28 }
  - { offsetInCU: 0x9900C, offset: 0x4C4735, size: 0x8, addend: 0x0, symName: __ZN5godot7ClassDB23_recreate_instance_funcI19JoltDebugGeometry3DEEPvS3_S3_, symObjAddr: 0x1CA3C, symBinAddr: 0xD2E68, symSize: 0x8 }
  - { offsetInCU: 0x99042, offset: 0x4C476B, size: 0x8, addend: 0x0, symName: __ZN19JoltDebugGeometry3D28_gde_binding_create_callbackEPvS0_, symObjAddr: 0x1CA44, symBinAddr: 0x19D950, symSize: 0x8 }
  - { offsetInCU: 0x99075, offset: 0x4C479E, size: 0x8, addend: 0x0, symName: __ZN19JoltDebugGeometry3D26_gde_binding_free_callbackEPvS0_S0_, symObjAddr: 0x1CA4C, symBinAddr: 0xD31F0, symSize: 0x4 }
  - { offsetInCU: 0x990B4, offset: 0x4C47DD, size: 0x8, addend: 0x0, symName: __ZN19JoltDebugGeometry3D31_gde_binding_reference_callbackEPvS0_h, symObjAddr: 0x1CA50, symBinAddr: 0x19DC68, symSize: 0x8 }
  - { offsetInCU: 0x99151, offset: 0x4C487A, size: 0x8, addend: 0x0, symName: __ZZN5godot4Node17register_virtualsI19JoltDebugGeometry3DNS_18GeometryInstance3DEEEvvENUlPvPKPKvS4_E_8__invokeES4_S8_S4_, symObjAddr: 0x1CA58, symBinAddr: 0xD3444, symSize: 0x14 }
  - { offsetInCU: 0x99192, offset: 0x4C48BB, size: 0x8, addend: 0x0, symName: __ZZN5godot4Node17register_virtualsI19JoltDebugGeometry3DNS_18GeometryInstance3DEEEvvENUlPvPKPKvS4_E_8__invokeES4_S8_S4_, symObjAddr: 0x1CA58, symBinAddr: 0xD3444, symSize: 0x14 }
  - { offsetInCU: 0x991B5, offset: 0x4C48DE, size: 0x8, addend: 0x0, symName: __ZZN5godot4Node17register_virtualsI19JoltDebugGeometry3DNS_18GeometryInstance3DEEEvvENUlPvPKPKvS4_E_8__invokeES4_S8_S4_, symObjAddr: 0x1CA58, symBinAddr: 0xD3444, symSize: 0x14 }
  - { offsetInCU: 0x991D8, offset: 0x4C4901, size: 0x8, addend: 0x0, symName: __ZZN5godot4Node17register_virtualsI19JoltDebugGeometry3DNS_18GeometryInstance3DEEEvvENUlPvPKPKvS4_E_8__invokeES4_S8_S4_, symObjAddr: 0x1CA58, symBinAddr: 0xD3444, symSize: 0x14 }
  - { offsetInCU: 0x9922D, offset: 0x4C4956, size: 0x8, addend: 0x0, symName: __ZN22JoltJointGizmoPlugin3D8set_bindEPvPKvS2_, symObjAddr: 0x1CA6C, symBinAddr: 0x19E2A4, symSize: 0x8 }
  - { offsetInCU: 0x99266, offset: 0x4C498F, size: 0x8, addend: 0x0, symName: __ZN22JoltJointGizmoPlugin3D8get_bindEPvPKvS0_, symObjAddr: 0x1CA74, symBinAddr: 0xD35E8, symSize: 0x8 }
  - { offsetInCU: 0x9929F, offset: 0x4C49C8, size: 0x8, addend: 0x0, symName: __ZN22JoltJointGizmoPlugin3D22get_property_list_bindEPvPj, symObjAddr: 0x1CA7C, symBinAddr: 0x19ECB0, symSize: 0x144 }
  - { offsetInCU: 0x994A0, offset: 0x4C4BC9, size: 0x8, addend: 0x0, symName: __ZN22JoltJointGizmoPlugin3D23free_property_list_bindEPvPK23GDExtensionPropertyInfoj, symObjAddr: 0x1CBC0, symBinAddr: 0xD382C, symSize: 0x14C }
  - { offsetInCU: 0x99859, offset: 0x4C4F82, size: 0x8, addend: 0x0, symName: __ZN22JoltJointGizmoPlugin3D24property_can_revert_bindEPvPKv, symObjAddr: 0x1CD0C, symBinAddr: 0x19F150, symSize: 0x8 }
  - { offsetInCU: 0x99886, offset: 0x4C4FAF, size: 0x8, addend: 0x0, symName: __ZN22JoltJointGizmoPlugin3D24property_get_revert_bindEPvPKvS0_, symObjAddr: 0x1CD14, symBinAddr: 0xD3B44, symSize: 0x8 }
  - { offsetInCU: 0x998BF, offset: 0x4C4FE8, size: 0x8, addend: 0x0, symName: __ZN22JoltJointGizmoPlugin3D22validate_property_bindEPvP23GDExtensionPropertyInfo, symObjAddr: 0x1CD1C, symBinAddr: 0x19F380, symSize: 0x154 }
  - { offsetInCU: 0x99C5B, offset: 0x4C5384, size: 0x8, addend: 0x0, symName: __ZN22JoltJointGizmoPlugin3D17notification_bindEPvih, symObjAddr: 0x1CE70, symBinAddr: 0xD3C2C, symSize: 0x4 }
  - { offsetInCU: 0x99C94, offset: 0x4C53BD, size: 0x8, addend: 0x0, symName: __ZN22JoltJointGizmoPlugin3D14to_string_bindEPvPhS0_, symObjAddr: 0x1CE74, symBinAddr: 0x19F800, symSize: 0x88 }
  - { offsetInCU: 0x9A068, offset: 0x4C5791, size: 0x8, addend: 0x0, symName: __ZN5godot7ClassDB21_create_instance_funcI22JoltJointGizmoPlugin3DEEPvS3_, symObjAddr: 0x1CEFC, symBinAddr: 0xD4058, symSize: 0x1CC }
  - { offsetInCU: 0x9A589, offset: 0x4C5CB2, size: 0x8, addend: 0x0, symName: __ZN22JoltJointGizmoPlugin3D4freeEPvS0_, symObjAddr: 0x1D0C8, symBinAddr: 0x19FA18, symSize: 0x28 }
  - { offsetInCU: 0x9A62F, offset: 0x4C5D58, size: 0x8, addend: 0x0, symName: __ZN5godot7ClassDB23_recreate_instance_funcI22JoltJointGizmoPlugin3DEEPvS3_S3_, symObjAddr: 0x1D0F0, symBinAddr: 0xD4564, symSize: 0x8 }
  - { offsetInCU: 0x9A6D8, offset: 0x4C5E01, size: 0x8, addend: 0x0, symName: __ZZN5godot23EditorNode3DGizmoPlugin17register_virtualsI22JoltJointGizmoPlugin3DS0_EEvvENUlPvPKPKvS3_E_8__invokeES3_S7_S3_, symObjAddr: 0x1D0F8, symBinAddr: 0x19FD7C, symSize: 0x13C }
  - { offsetInCU: 0x9A9D8, offset: 0x4C6101, size: 0x8, addend: 0x0, symName: __ZZN5godot23EditorNode3DGizmoPlugin17register_virtualsI22JoltJointGizmoPlugin3DS0_EEvvENUlPvPKPKvS3_E0_8__invokeES3_S7_S3_, symObjAddr: 0x1D234, symBinAddr: 0xD47EC, symSize: 0x1C8 }
  - { offsetInCU: 0x9AD4F, offset: 0x4C6478, size: 0x8, addend: 0x0, symName: __ZZN5godot23EditorNode3DGizmoPlugin17register_virtualsI22JoltJointGizmoPlugin3DS0_EEvvENUlPvPKPKvS3_E1_8__invokeES3_S7_S3_, symObjAddr: 0x1D3FC, symBinAddr: 0x1A01C0, symSize: 0xA0 }
  - { offsetInCU: 0x9B010, offset: 0x4C6739, size: 0x8, addend: 0x0, symName: __ZZN5godot23EditorNode3DGizmoPlugin17register_virtualsI22JoltJointGizmoPlugin3DS0_EEvvENUlPvPKPKvS3_E2_8__invokeES3_S7_S3_, symObjAddr: 0x1D49C, symBinAddr: 0xD4B04, symSize: 0x1D4 }
  - { offsetInCU: 0x9B35C, offset: 0x4C6A85, size: 0x8, addend: 0x0, symName: __ZN16JoltEditorPlugin8set_bindEPvPKvS2_, symObjAddr: 0x1D670, symBinAddr: 0x1A1174, symSize: 0x8 }
  - { offsetInCU: 0x9B395, offset: 0x4C6ABE, size: 0x8, addend: 0x0, symName: __ZN16JoltEditorPlugin8get_bindEPvPKvS0_, symObjAddr: 0x1D678, symBinAddr: 0xD4DD4, symSize: 0x8 }
  - { offsetInCU: 0x9B3CE, offset: 0x4C6AF7, size: 0x8, addend: 0x0, symName: __ZN16JoltEditorPlugin22get_property_list_bindEPvPj, symObjAddr: 0x1D680, symBinAddr: 0x1A32F8, symSize: 0x144 }
  - { offsetInCU: 0x9B5CF, offset: 0x4C6CF8, size: 0x8, addend: 0x0, symName: __ZN16JoltEditorPlugin23free_property_list_bindEPvPK23GDExtensionPropertyInfoj, symObjAddr: 0x1D7C4, symBinAddr: 0xD4F98, symSize: 0x14C }
  - { offsetInCU: 0x9B988, offset: 0x4C70B1, size: 0x8, addend: 0x0, symName: __ZN16JoltEditorPlugin24property_can_revert_bindEPvPKv, symObjAddr: 0x1D910, symBinAddr: 0xD9984, symSize: 0x8 }
  - { offsetInCU: 0x9B9B5, offset: 0x4C70DE, size: 0x8, addend: 0x0, symName: __ZN16JoltEditorPlugin24property_get_revert_bindEPvPKvS0_, symObjAddr: 0x1D918, symBinAddr: 0xD5274, symSize: 0x8 }
  - { offsetInCU: 0x9B9EE, offset: 0x4C7117, size: 0x8, addend: 0x0, symName: __ZN16JoltEditorPlugin22validate_property_bindEPvP23GDExtensionPropertyInfo, symObjAddr: 0x1D920, symBinAddr: 0x1A47B0, symSize: 0x154 }
  - { offsetInCU: 0x9BD8A, offset: 0x4C74B3, size: 0x8, addend: 0x0, symName: __ZN16JoltEditorPlugin17notification_bindEPvih, symObjAddr: 0x1DA74, symBinAddr: 0xD5360, symSize: 0x4 }
  - { offsetInCU: 0x9BDC3, offset: 0x4C74EC, size: 0x8, addend: 0x0, symName: __ZN16JoltEditorPlugin14to_string_bindEPvPhS0_, symObjAddr: 0x1DA78, symBinAddr: 0xD53B0, symSize: 0x88 }
  - { offsetInCU: 0x9BF9A, offset: 0x4C76C3, size: 0x8, addend: 0x0, symName: __ZN5godot7ClassDB21_create_instance_funcI16JoltEditorPluginEEPvS3_, symObjAddr: 0x1DB00, symBinAddr: 0xD5484, symSize: 0x1B4 }
  - { offsetInCU: 0x9C386, offset: 0x4C7AAF, size: 0x8, addend: 0x0, symName: __ZN16JoltEditorPlugin4freeEPvS0_, symObjAddr: 0x1DCB4, symBinAddr: 0x2FE888, symSize: 0x1C0 }
  - { offsetInCU: 0x9C909, offset: 0x4C8032, size: 0x8, addend: 0x0, symName: __ZN5godot7ClassDB23_recreate_instance_funcI16JoltEditorPluginEEPvS3_S3_, symObjAddr: 0x1DE74, symBinAddr: 0x2FEA48, symSize: 0x8 }
  - { offsetInCU: 0x9C93F, offset: 0x4C8068, size: 0x8, addend: 0x0, symName: __ZN16JoltEditorPlugin28_gde_binding_create_callbackEPvS0_, symObjAddr: 0x1DE7C, symBinAddr: 0x2FEA50, symSize: 0x8 }
  - { offsetInCU: 0x9C972, offset: 0x4C809B, size: 0x8, addend: 0x0, symName: __ZN16JoltEditorPlugin26_gde_binding_free_callbackEPvS0_S0_, symObjAddr: 0x1DE84, symBinAddr: 0xD79F4, symSize: 0x4 }
  - { offsetInCU: 0x9C9B1, offset: 0x4C80DA, size: 0x8, addend: 0x0, symName: __ZN16JoltEditorPlugin31_gde_binding_reference_callbackEPvS0_h, symObjAddr: 0x1DE88, symBinAddr: 0xD7A44, symSize: 0x8 }
  - { offsetInCU: 0x9CA49, offset: 0x4C8172, size: 0x8, addend: 0x0, symName: __ZZN5godot4Node17register_virtualsI16JoltEditorPluginNS_12EditorPluginEEEvvENUlPvPKPKvS4_E_8__invokeES4_S8_S4_, symObjAddr: 0x1DE90, symBinAddr: 0xD7A98, symSize: 0xC }
  - { offsetInCU: 0x9CA88, offset: 0x4C81B1, size: 0x8, addend: 0x0, symName: __ZZN5godot4Node17register_virtualsI16JoltEditorPluginNS_12EditorPluginEEEvvENUlPvPKPKvS4_E_8__invokeES4_S8_S4_, symObjAddr: 0x1DE90, symBinAddr: 0xD7A98, symSize: 0xC }
  - { offsetInCU: 0x9CAA4, offset: 0x4C81CD, size: 0x8, addend: 0x0, symName: __ZZN5godot4Node17register_virtualsI16JoltEditorPluginNS_12EditorPluginEEEvvENUlPvPKPKvS4_E_8__invokeES4_S8_S4_, symObjAddr: 0x1DE90, symBinAddr: 0xD7A98, symSize: 0xC }
  - { offsetInCU: 0x9CAC0, offset: 0x4C81E9, size: 0x8, addend: 0x0, symName: __ZZN5godot4Node17register_virtualsI16JoltEditorPluginNS_12EditorPluginEEEvvENUlPvPKPKvS4_E_8__invokeES4_S8_S4_, symObjAddr: 0x1DE90, symBinAddr: 0xD7A98, symSize: 0xC }
  - { offsetInCU: 0x9CB37, offset: 0x4C8260, size: 0x8, addend: 0x0, symName: __ZZN5godot4Node17register_virtualsI16JoltEditorPluginNS_12EditorPluginEEEvvENUlPvPKPKvS4_E0_8__invokeES4_S8_S4_, symObjAddr: 0x1DE9C, symBinAddr: 0x30334, symSize: 0xC }
  - { offsetInCU: 0x9CB76, offset: 0x4C829F, size: 0x8, addend: 0x0, symName: __ZZN5godot4Node17register_virtualsI16JoltEditorPluginNS_12EditorPluginEEEvvENUlPvPKPKvS4_E0_8__invokeES4_S8_S4_, symObjAddr: 0x1DE9C, symBinAddr: 0x30334, symSize: 0xC }
  - { offsetInCU: 0x9CB92, offset: 0x4C82BB, size: 0x8, addend: 0x0, symName: __ZZN5godot4Node17register_virtualsI16JoltEditorPluginNS_12EditorPluginEEEvvENUlPvPKPKvS4_E0_8__invokeES4_S8_S4_, symObjAddr: 0x1DE9C, symBinAddr: 0x30334, symSize: 0xC }
  - { offsetInCU: 0x9CBAE, offset: 0x4C82D7, size: 0x8, addend: 0x0, symName: __ZZN5godot4Node17register_virtualsI16JoltEditorPluginNS_12EditorPluginEEEvvENUlPvPKPKvS4_E0_8__invokeES4_S8_S4_, symObjAddr: 0x1DE9C, symBinAddr: 0x30334, symSize: 0xC }
  - { offsetInCU: 0x10D98, offset: 0x4DAB7D, size: 0x8, addend: 0x0, symName: __ZNK16JoltEditorPlugin25_get_extension_class_nameEv, symObjAddr: 0x1430, symBinAddr: 0xDDB2C, symSize: 0xB4 }
  - { offsetInCU: 0x10DBC, offset: 0x4DABA1, size: 0x8, addend: 0x0, symName: __ZZNK16JoltEditorPlugin25_get_extension_class_nameEvE11string_name, symObjAddr: 0x3418, symBinAddr: 0x363B08, symSize: 0x0 }
  - { offsetInCU: 0x10E6E, offset: 0x4DAC53, size: 0x8, addend: 0x0, symName: __ZN16JoltEditorPlugin16get_class_staticEv, symObjAddr: 0x184C, symBinAddr: 0xDC800, symSize: 0x8C }
  - { offsetInCU: 0x114DB, offset: 0x4DB2C0, size: 0x8, addend: 0x0, symName: __ZN16JoltEditorPlugin11_enter_treeEv, symObjAddr: 0x0, symBinAddr: 0xDCA10, symSize: 0xCE0 }
  - { offsetInCU: 0x139B4, offset: 0x4DD799, size: 0x8, addend: 0x0, symName: __ZN5godot6Object7cast_toINS_23EditorNode3DGizmoPluginEEEPT_PS0_, symObjAddr: 0x18D8, symBinAddr: 0xDDCA0, symSize: 0x20C }
  - { offsetInCU: 0x13DD7, offset: 0x4DDBBC, size: 0x8, addend: 0x0, symName: __ZN16JoltEditorPlugin18_tool_menu_pressedEi, symObjAddr: 0xCE0, symBinAddr: 0xDB9F8, symSize: 0x46C }
  - { offsetInCU: 0x14585, offset: 0x4DE36A, size: 0x8, addend: 0x0, symName: __ZN16JoltEditorPlugin10_exit_treeEv, symObjAddr: 0x114C, symBinAddr: 0xDD8E0, symSize: 0xB4 }
  - { offsetInCU: 0x14725, offset: 0x4DE50A, size: 0x8, addend: 0x0, symName: __ZN16JoltEditorPlugin23_snapshots_dir_selectedERKN5godot6StringE, symObjAddr: 0x1200, symBinAddr: 0xDBF88, symSize: 0x230 }
  - { offsetInCU: 0x1497C, offset: 0x4DE761, size: 0x8, addend: 0x0, symName: __ZNK16JoltEditorPlugin23_get_bindings_callbacksEv, symObjAddr: 0x14E4, symBinAddr: 0xDC244, symSize: 0xC }
  - { offsetInCU: 0x149A3, offset: 0x4DE788, size: 0x8, addend: 0x0, symName: __ZN16JoltEditorPlugin14_notificationvEib, symObjAddr: 0x14F0, symBinAddr: 0x30E20, symSize: 0x4 }
  - { offsetInCU: 0x14BA9, offset: 0x4DE98E, size: 0x8, addend: 0x0, symName: __ZN16JoltEditorPluginD1Ev, symObjAddr: 0x14F4, symBinAddr: 0xDC384, symSize: 0x1B4 }
  - { offsetInCU: 0x150C8, offset: 0x4DEEAD, size: 0x8, addend: 0x0, symName: __ZN16JoltEditorPluginD0Ev, symObjAddr: 0x16A8, symBinAddr: 0x1B14E0, symSize: 0x1A4 }
  - { offsetInCU: 0x15515, offset: 0x4DF2FA, size: 0x8, addend: 0x0, symName: __ZNK5godot27CallableCustomMethodPointerI16JoltEditorPluginJiEE10get_objectEv, symObjAddr: 0x1AE4, symBinAddr: 0xDC928, symSize: 0x8 }
  - { offsetInCU: 0x1553C, offset: 0x4DF321, size: 0x8, addend: 0x0, symName: __ZNK5godot27CallableCustomMethodPointerI16JoltEditorPluginJiEE18get_argument_countERb, symObjAddr: 0x1AEC, symBinAddr: 0x1B23B4, symSize: 0x10 }
  - { offsetInCU: 0x155B9, offset: 0x4DF39E, size: 0x8, addend: 0x0, symName: __ZNK5godot27CallableCustomMethodPointerI16JoltEditorPluginJiEE4callEPPKNS_7VariantEiRS3_R20GDExtensionCallError, symObjAddr: 0x1AFC, symBinAddr: 0xDD73C, symSize: 0x154 }
  - { offsetInCU: 0x15848, offset: 0x4DF62D, size: 0x8, addend: 0x0, symName: __ZN5godot27CallableCustomMethodPointerI16JoltEditorPluginJiEED1Ev, symObjAddr: 0x1C50, symBinAddr: 0x1F9F8, symSize: 0x4 }
  - { offsetInCU: 0x15873, offset: 0x4DF658, size: 0x8, addend: 0x0, symName: __ZN5godot27CallableCustomMethodPointerI16JoltEditorPluginJiEED0Ev, symObjAddr: 0x1C54, symBinAddr: 0x69E30, symSize: 0x4 }
  - { offsetInCU: 0x1589E, offset: 0x4DF683, size: 0x8, addend: 0x0, symName: __ZNK5godot27CallableCustomMethodPointerI16JoltEditorPluginJRKNS_6StringEEE10get_objectEv, symObjAddr: 0x1C58, symBinAddr: 0xFCC8, symSize: 0x8 }
  - { offsetInCU: 0x158C5, offset: 0x4DF6AA, size: 0x8, addend: 0x0, symName: __ZNK5godot27CallableCustomMethodPointerI16JoltEditorPluginJRKNS_6StringEEE18get_argument_countERb, symObjAddr: 0x1C60, symBinAddr: 0xDDA38, symSize: 0x10 }
  - { offsetInCU: 0x15942, offset: 0x4DF727, size: 0x8, addend: 0x0, symName: __ZNK5godot27CallableCustomMethodPointerI16JoltEditorPluginJRKNS_6StringEEE4callEPPKNS_7VariantEiRS6_R20GDExtensionCallError, symObjAddr: 0x1C70, symBinAddr: 0xD584, symSize: 0x168 }
  - { offsetInCU: 0x15C1A, offset: 0x4DF9FF, size: 0x8, addend: 0x0, symName: __ZN5godot27CallableCustomMethodPointerI16JoltEditorPluginJRKNS_6StringEEED1Ev, symObjAddr: 0x1DD8, symBinAddr: 0xDDBE0, symSize: 0x4 }
  - { offsetInCU: 0x15C45, offset: 0x4DFA2A, size: 0x8, addend: 0x0, symName: __ZN5godot27CallableCustomMethodPointerI16JoltEditorPluginJRKNS_6StringEEED0Ev, symObjAddr: 0x1DDC, symBinAddr: 0xDE930, symSize: 0x4 }
  - { offsetInCU: 0x6570, offset: 0x4E6C23, size: 0x8, addend: 0x0, symName: __Z15jolt_initializev, symObjAddr: 0x0, symBinAddr: 0xE2284, symSize: 0x2B0 }
  - { offsetInCU: 0x70F4, offset: 0x4E77A7, size: 0x8, addend: 0x0, symName: __Z17jolt_deinitializev, symObjAddr: 0x2B0, symBinAddr: 0xE1590, symSize: 0xBC }
  - { offsetInCU: 0x11479, offset: 0x4F94B0, size: 0x8, addend: 0x0, symName: __ZN5godot18create_method_bindI19JoltPhysicsServer3DiJRKNS_3RIDEEEEPNS_10MethodBindEMT_FT0_DpT1_E, symObjAddr: 0x2AC4C, symBinAddr: 0x103564, symSize: 0x294 }
  - { offsetInCU: 0x11AA1, offset: 0x4F9AD8, size: 0x8, addend: 0x0, symName: __ZN5godot18create_method_bindI19JoltPhysicsServer3DJRKNS_3RIDEiEEEPNS_10MethodBindEMT_FvDpT0_E, symObjAddr: 0x2B65C, symBinAddr: 0x104648, symSize: 0x2B0 }
  - { offsetInCU: 0x120AB, offset: 0x4FA0E2, size: 0x8, addend: 0x0, symName: __ZN5godot18create_method_bindI19JoltPhysicsServer3DfJRKNS_3RIDEEEEPNS_10MethodBindEMT_FT0_DpT1_E, symObjAddr: 0x2C130, symBinAddr: 0x10551C, symSize: 0x294 }
  - { offsetInCU: 0x126D4, offset: 0x4FA70B, size: 0x8, addend: 0x0, symName: __ZN5godot8D_METHODIJPKcS2_EEENS_16MethodDefinitionENS_10StringNameES4_DpT_, symObjAddr: 0xBC14, symBinAddr: 0xE6AC0, symSize: 0x220 }
  - { offsetInCU: 0x1354C, offset: 0x4FB583, size: 0x8, addend: 0x0, symName: __ZN5godot34call_get_argument_type_info_helperIRKNS_6StringEEEviRiRNS_12PropertyInfoE, symObjAddr: 0x28FD0, symBinAddr: 0x1F9778, symSize: 0x248 }
  - { offsetInCU: 0x13FAF, offset: 0x4FBFE6, size: 0x8, addend: 0x0, symName: __ZN5godot34call_get_argument_type_info_helperIRKNS_3RIDEEEviRiRNS_12PropertyInfoE, symObjAddr: 0x29A74, symBinAddr: 0x1FAE54, symSize: 0x248 }
  - { offsetInCU: 0x15A34, offset: 0x4FDA6B, size: 0x8, addend: 0x0, symName: __ZN5godot34call_get_argument_type_info_helperIN19JoltPhysicsServer3D19HingeJointParamJoltEEEviRiRNS_12PropertyInfoE, symObjAddr: 0x2D448, symBinAddr: 0x2011F0, symSize: 0x290 }
  - { offsetInCU: 0x16ACB, offset: 0x4FEB02, size: 0x8, addend: 0x0, symName: __ZN5godot34call_get_argument_type_info_helperIN19JoltPhysicsServer3D18HingeJointFlagJoltEEEviRiRNS_12PropertyInfoE, symObjAddr: 0x2E988, symBinAddr: 0x11048, symSize: 0x290 }
  - { offsetInCU: 0x17A86, offset: 0x4FFABD, size: 0x8, addend: 0x0, symName: __ZN5godot34call_get_argument_type_info_helperIN19JoltPhysicsServer3D20SliderJointParamJoltEEEviRiRNS_12PropertyInfoE, symObjAddr: 0x2FED8, symBinAddr: 0x205D9C, symSize: 0x290 }
  - { offsetInCU: 0x18A5D, offset: 0x500A94, size: 0x8, addend: 0x0, symName: __ZN5godot34call_get_argument_type_info_helperIN19JoltPhysicsServer3D19SliderJointFlagJoltEEEviRiRNS_12PropertyInfoE, symObjAddr: 0x31418, symBinAddr: 0x10AF6C, symSize: 0x290 }
  - { offsetInCU: 0x199D8, offset: 0x501A0F, size: 0x8, addend: 0x0, symName: __ZN5godot34call_get_argument_type_info_helperIN19JoltPhysicsServer3D23ConeTwistJointParamJoltEEEviRiRNS_12PropertyInfoE, symObjAddr: 0x32968, symBinAddr: 0x20ACDC, symSize: 0x290 }
  - { offsetInCU: 0x1A9AF, offset: 0x5029E6, size: 0x8, addend: 0x0, symName: __ZN5godot34call_get_argument_type_info_helperIN19JoltPhysicsServer3D22ConeTwistJointFlagJoltEEEviRiRNS_12PropertyInfoE, symObjAddr: 0x33EA8, symBinAddr: 0x10DE74, symSize: 0x290 }
  - { offsetInCU: 0x1B9CB, offset: 0x503A02, size: 0x8, addend: 0x0, symName: __ZN5godot34call_get_argument_type_info_helperINS_7Vector34AxisEEEviRiRNS_12PropertyInfoE, symObjAddr: 0x35580, symBinAddr: 0x210570, symSize: 0x290 }
  - { offsetInCU: 0x1C2F3, offset: 0x50432A, size: 0x8, addend: 0x0, symName: __ZN5godot34call_get_argument_type_info_helperIN19JoltPhysicsServer3D23G6DOFJointAxisParamJoltEEEviRiRNS_12PropertyInfoE, symObjAddr: 0x35810, symBinAddr: 0x10F9B0, symSize: 0x290 }
  - { offsetInCU: 0x1D3DC, offset: 0x505413, size: 0x8, addend: 0x0, symName: __ZN5godot34call_get_argument_type_info_helperIN19JoltPhysicsServer3D22G6DOFJointAxisFlagJoltEEEviRiRNS_12PropertyInfoE, symObjAddr: 0x37050, symBinAddr: 0x11102C, symSize: 0x290 }
  - { offsetInCU: 0x1E30D, offset: 0x506344, size: 0x8, addend: 0x0, symName: __ZN5godot7vformatIJiEEENS_6StringERKS1_DpKT_, symObjAddr: 0x37F9C, symBinAddr: 0x111A88, symSize: 0x1A8 }
  - { offsetInCU: 0x5F1DE, offset: 0x547215, size: 0x8, addend: 0x0, symName: __ZN13JoltJobSystem14timings_by_jobE, symObjAddr: 0x3DA68, symBinAddr: 0x363A68, symSize: 0x0 }
  - { offsetInCU: 0x66063, offset: 0x54E09A, size: 0x8, addend: 0x0, symName: __ZN12_GLOBAL__N_119PHYSICS_SERVER_NAMEE.llvm.18141911846423566020, symObjAddr: 0x3D380, symBinAddr: 0x305A4C, symSize: 0x0 }
  - { offsetInCU: 0x6606D, offset: 0x54E0A4, size: 0x8, addend: 0x0, symName: __ZN19JoltPhysicsServer3D16get_class_staticEv, symObjAddr: 0xEF10, symBinAddr: 0xE9014, symSize: 0x8C }
  - { offsetInCU: 0x66115, offset: 0x54E14C, size: 0x8, addend: 0x0, symName: __ZN12_GLOBAL__N_119PHYSICS_SERVER_NAMEE.llvm.18141911846423566020, symObjAddr: 0x3D380, symBinAddr: 0x305A4C, symSize: 0x0 }
  - { offsetInCU: 0x66124, offset: 0x54E15B, size: 0x8, addend: 0x0, symName: __ZNK19JoltPhysicsServer3D25_get_extension_class_nameEv, symObjAddr: 0x2884C, symBinAddr: 0x1F7B30, symSize: 0xB4 }
  - { offsetInCU: 0x66149, offset: 0x54E180, size: 0x8, addend: 0x0, symName: __ZZNK19JoltPhysicsServer3D25_get_extension_class_nameEvE11string_name, symObjAddr: 0x3DA58, symBinAddr: 0x363AC0, symSize: 0x0 }
  - { offsetInCU: 0x6781D, offset: 0x54F854, size: 0x8, addend: 0x0, symName: __ZN7HashMapIPKvyN5godot20HashMapHasherDefaultENS2_24HashMapComparatorDefaultIS1_EEED1Ev, symObjAddr: 0x0, symBinAddr: 0xF07F4, symSize: 0x48 }
  - { offsetInCU: 0x69E99, offset: 0x551ED0, size: 0x8, addend: 0x0, symName: __ZN19JoltPhysicsServer3D13_bind_methodsEv, symObjAddr: 0x48, symBinAddr: 0x1C0A90, symSize: 0xAC6C }
  - { offsetInCU: 0x98050, offset: 0x580087, size: 0x8, addend: 0x0, symName: __ZN19JoltPhysicsServer3D20dump_debug_snapshotsERKN5godot6StringE, symObjAddr: 0xACB4, symBinAddr: 0xE62C4, symSize: 0x38 }
  - { offsetInCU: 0x982CA, offset: 0x580301, size: 0x8, addend: 0x0, symName: __ZN19JoltPhysicsServer3D25space_dump_debug_snapshotERKN5godot3RIDERKNS0_6StringE, symObjAddr: 0xACEC, symBinAddr: 0x1CB9AC, symSize: 0x184 }
  - { offsetInCU: 0x9877A, offset: 0x5807B1, size: 0x8, addend: 0x0, symName: __ZNK19JoltPhysicsServer3D17joint_get_enabledERKN5godot3RIDE, symObjAddr: 0xAE70, symBinAddr: 0xE6318, symSize: 0x190 }
  - { offsetInCU: 0x98A5D, offset: 0x580A94, size: 0x8, addend: 0x0, symName: __ZN19JoltPhysicsServer3D17joint_set_enabledERKN5godot3RIDEb, symObjAddr: 0xB000, symBinAddr: 0x1CC810, symSize: 0x198 }
  - { offsetInCU: 0x98DF1, offset: 0x580E28, size: 0x8, addend: 0x0, symName: __ZN19JoltPhysicsServer3D36joint_get_solver_velocity_iterationsERKN5godot3RIDE, symObjAddr: 0xB198, symBinAddr: 0xE64B8, symSize: 0x188 }
  - { offsetInCU: 0x990D2, offset: 0x581109, size: 0x8, addend: 0x0, symName: __ZN19JoltPhysicsServer3D36joint_set_solver_velocity_iterationsERKN5godot3RIDEi, symObjAddr: 0xB320, symBinAddr: 0xEA568, symSize: 0x1A0 }
  - { offsetInCU: 0x99488, offset: 0x5814BF, size: 0x8, addend: 0x0, symName: __ZN19JoltPhysicsServer3D36joint_get_solver_position_iterationsERKN5godot3RIDE, symObjAddr: 0xB4C0, symBinAddr: 0xE6694, symSize: 0x188 }
  - { offsetInCU: 0x99769, offset: 0x5817A0, size: 0x8, addend: 0x0, symName: __ZN19JoltPhysicsServer3D36joint_set_solver_position_iterationsERKN5godot3RIDEi, symObjAddr: 0xB648, symBinAddr: 0xD94C, symSize: 0x1A0 }
  - { offsetInCU: 0x99B09, offset: 0x581B40, size: 0x8, addend: 0x0, symName: __ZN19JoltPhysicsServer3D27pin_joint_get_applied_forceERKN5godot3RIDE, symObjAddr: 0xB7E8, symBinAddr: 0xE6834, symSize: 0x260 }
  - { offsetInCU: 0x99FA6, offset: 0x581FDD, size: 0x8, addend: 0x0, symName: __ZNK19JoltPhysicsServer3D26hinge_joint_get_jolt_paramERKN5godot3RIDENS_19HingeJointParamJoltE, symObjAddr: 0xBA48, symBinAddr: 0x1CBB30, symSize: 0x1CC }
  - { offsetInCU: 0x9A2D7, offset: 0x58230E, size: 0x8, addend: 0x0, symName: __ZN19JoltPhysicsServer3D26hinge_joint_set_jolt_paramERKN5godot3RIDENS_19HingeJointParamJoltEd, symObjAddr: 0xBE34, symBinAddr: 0x1CD398, symSize: 0x1EC }
  - { offsetInCU: 0x9A627, offset: 0x58265E, size: 0x8, addend: 0x0, symName: __ZNK19JoltPhysicsServer3D25hinge_joint_get_jolt_flagERKN5godot3RIDENS_18HingeJointFlagJoltE, symObjAddr: 0xC020, symBinAddr: 0xE6CF4, symSize: 0x1CC }
  - { offsetInCU: 0x9A958, offset: 0x58298F, size: 0x8, addend: 0x0, symName: __ZN19JoltPhysicsServer3D25hinge_joint_set_jolt_flagERKN5godot3RIDENS_18HingeJointFlagJoltEb, symObjAddr: 0xC1EC, symBinAddr: 0x1CE158, symSize: 0x1EC }
  - { offsetInCU: 0x9ACA8, offset: 0x582CDF, size: 0x8, addend: 0x0, symName: __ZN19JoltPhysicsServer3D29hinge_joint_get_applied_forceERKN5godot3RIDE, symObjAddr: 0xC3D8, symBinAddr: 0xE6F24, symSize: 0x29C }
  - { offsetInCU: 0x9B1D0, offset: 0x583207, size: 0x8, addend: 0x0, symName: __ZN19JoltPhysicsServer3D30hinge_joint_get_applied_torqueERKN5godot3RIDE, symObjAddr: 0xC674, symBinAddr: 0x1CD584, symSize: 0x2C0 }
  - { offsetInCU: 0x9B799, offset: 0x5837D0, size: 0x8, addend: 0x0, symName: __ZNK19JoltPhysicsServer3D27slider_joint_get_jolt_paramERKN5godot3RIDENS_20SliderJointParamJoltE, symObjAddr: 0xC934, symBinAddr: 0xE7204, symSize: 0x1CC }
  - { offsetInCU: 0x9BACA, offset: 0x583B01, size: 0x8, addend: 0x0, symName: __ZN19JoltPhysicsServer3D27slider_joint_set_jolt_paramERKN5godot3RIDENS_20SliderJointParamJoltEd, symObjAddr: 0xCB00, symBinAddr: 0x1CE344, symSize: 0x1EC }
  - { offsetInCU: 0x9BE1A, offset: 0x583E51, size: 0x8, addend: 0x0, symName: __ZNK19JoltPhysicsServer3D26slider_joint_get_jolt_flagERKN5godot3RIDENS_19SliderJointFlagJoltE, symObjAddr: 0xCCEC, symBinAddr: 0xE73DC, symSize: 0x1CC }
  - { offsetInCU: 0x9C14B, offset: 0x584182, size: 0x8, addend: 0x0, symName: __ZN19JoltPhysicsServer3D26slider_joint_set_jolt_flagERKN5godot3RIDENS_19SliderJointFlagJoltEb, symObjAddr: 0xCEB8, symBinAddr: 0x1CEC4C, symSize: 0x1EC }
  - { offsetInCU: 0x9C49B, offset: 0x5844D2, size: 0x8, addend: 0x0, symName: __ZN19JoltPhysicsServer3D30slider_joint_get_applied_forceERKN5godot3RIDE, symObjAddr: 0xD0A4, symBinAddr: 0xE75C8, symSize: 0x2C0 }
  - { offsetInCU: 0x9CA6F, offset: 0x584AA6, size: 0x8, addend: 0x0, symName: __ZN19JoltPhysicsServer3D31slider_joint_get_applied_torqueERKN5godot3RIDE, symObjAddr: 0xD364, symBinAddr: 0x1CF6D0, symSize: 0x29C }
  - { offsetInCU: 0x9CFA0, offset: 0x584FD7, size: 0x8, addend: 0x0, symName: __ZNK19JoltPhysicsServer3D31cone_twist_joint_get_jolt_paramERKN5godot3RIDENS_23ConeTwistJointParamJoltE, symObjAddr: 0xD600, symBinAddr: 0xE78EC, symSize: 0x1CC }
  - { offsetInCU: 0x9D2D1, offset: 0x585308, size: 0x8, addend: 0x0, symName: __ZN19JoltPhysicsServer3D31cone_twist_joint_set_jolt_paramERKN5godot3RIDENS_23ConeTwistJointParamJoltEd, symObjAddr: 0xD7CC, symBinAddr: 0xEABAC, symSize: 0x1EC }
  - { offsetInCU: 0x9D621, offset: 0x585658, size: 0x8, addend: 0x0, symName: __ZNK19JoltPhysicsServer3D30cone_twist_joint_get_jolt_flagERKN5godot3RIDENS_22ConeTwistJointFlagJoltE, symObjAddr: 0xD9B8, symBinAddr: 0xE7AD0, symSize: 0x1CC }
  - { offsetInCU: 0x9D952, offset: 0x585989, size: 0x8, addend: 0x0, symName: __ZN19JoltPhysicsServer3D30cone_twist_joint_set_jolt_flagERKN5godot3RIDENS_22ConeTwistJointFlagJoltEb, symObjAddr: 0xDB84, symBinAddr: 0x1CBCFC, symSize: 0x1EC }
  - { offsetInCU: 0x9DCA2, offset: 0x585CD9, size: 0x8, addend: 0x0, symName: __ZN19JoltPhysicsServer3D34cone_twist_joint_get_applied_forceERKN5godot3RIDE, symObjAddr: 0xDD70, symBinAddr: 0xE7CB4, symSize: 0x264 }
  - { offsetInCU: 0x9E13F, offset: 0x586176, size: 0x8, addend: 0x0, symName: __ZN19JoltPhysicsServer3D35cone_twist_joint_get_applied_torqueERKN5godot3RIDE, symObjAddr: 0xDFD4, symBinAddr: 0xEDB3C, symSize: 0x26C }
  - { offsetInCU: 0x9E6CD, offset: 0x586704, size: 0x8, addend: 0x0, symName: __ZNK19JoltPhysicsServer3D33generic_6dof_joint_get_jolt_paramERKN5godot3RIDENS0_7Vector34AxisENS_23G6DOFJointAxisParamJoltE, symObjAddr: 0xE240, symBinAddr: 0xE83AC, symSize: 0x1E0 }
  - { offsetInCU: 0x9EA10, offset: 0x586A47, size: 0x8, addend: 0x0, symName: __ZN19JoltPhysicsServer3D33generic_6dof_joint_set_jolt_paramERKN5godot3RIDENS0_7Vector34AxisENS_23G6DOFJointAxisParamJoltEd, symObjAddr: 0xE420, symBinAddr: 0x1CFE28, symSize: 0x1EC }
  - { offsetInCU: 0x9ED66, offset: 0x586D9D, size: 0x8, addend: 0x0, symName: __ZNK19JoltPhysicsServer3D32generic_6dof_joint_get_jolt_flagERKN5godot3RIDENS0_7Vector34AxisENS_22G6DOFJointAxisFlagJoltE, symObjAddr: 0xE60C, symBinAddr: 0xE8760, symSize: 0x1E0 }
  - { offsetInCU: 0x9F0A9, offset: 0x5870E0, size: 0x8, addend: 0x0, symName: __ZN19JoltPhysicsServer3D32generic_6dof_joint_set_jolt_flagERKN5godot3RIDENS0_7Vector34AxisENS_22G6DOFJointAxisFlagJoltEb, symObjAddr: 0xE7EC, symBinAddr: 0x1D1AE4, symSize: 0x1F4 }
  - { offsetInCU: 0x9F40B, offset: 0x587442, size: 0x8, addend: 0x0, symName: __ZN19JoltPhysicsServer3D36generic_6dof_joint_get_applied_forceERKN5godot3RIDE, symObjAddr: 0xE9E0, symBinAddr: 0xE8C50, symSize: 0x29C }
  - { offsetInCU: 0x9F99C, offset: 0x5879D3, size: 0x8, addend: 0x0, symName: __ZN19JoltPhysicsServer3D37generic_6dof_joint_get_applied_torqueERKN5godot3RIDE, symObjAddr: 0xEC7C, symBinAddr: 0x1CBEE8, symSize: 0x294 }
  - { offsetInCU: 0xA0E7E, offset: 0x588EB5, size: 0x8, addend: 0x0, symName: __ZN19JoltPhysicsServer3DC2Ev, symObjAddr: 0xEF9C, symBinAddr: 0x1D0014, symSize: 0x364 }
  - { offsetInCU: 0xA248E, offset: 0x58A4C5, size: 0x8, addend: 0x0, symName: __ZN19JoltPhysicsServer3DD2Ev, symObjAddr: 0xF304, symBinAddr: 0xE917C, symSize: 0x294 }
  - { offsetInCU: 0xA2B7F, offset: 0x58ABB6, size: 0x8, addend: 0x0, symName: __ZN12RID_PtrOwnerI15JoltJointImpl3DED2Ev, symObjAddr: 0x38784, symBinAddr: 0x2155EC, symSize: 0x190 }
  - { offsetInCU: 0xA333B, offset: 0x58B372, size: 0x8, addend: 0x0, symName: __ZN12RID_PtrOwnerI15JoltShapeImpl3DED2Ev, symObjAddr: 0x385F4, symBinAddr: 0x1121A8, symSize: 0x190 }
  - { offsetInCU: 0xA3AF7, offset: 0x58BB2E, size: 0x8, addend: 0x0, symName: __ZN12RID_PtrOwnerI18JoltSoftBodyImpl3DED2Ev, symObjAddr: 0x38464, symBinAddr: 0x214E40, symSize: 0x190 }
  - { offsetInCU: 0xA42B3, offset: 0x58C2EA, size: 0x8, addend: 0x0, symName: __ZN12RID_PtrOwnerI14JoltBodyImpl3DED2Ev, symObjAddr: 0x382D4, symBinAddr: 0x111FF8, symSize: 0x190 }
  - { offsetInCU: 0xA4A6F, offset: 0x58CAA6, size: 0x8, addend: 0x0, symName: __ZN12RID_PtrOwnerI14JoltAreaImpl3DED2Ev, symObjAddr: 0x38144, symBinAddr: 0x214AD8, symSize: 0x190 }
  - { offsetInCU: 0xA522B, offset: 0x58D262, size: 0x8, addend: 0x0, symName: __ZN12RID_PtrOwnerI11JoltSpace3DED2Ev, symObjAddr: 0x37E0C, symBinAddr: 0x2144F4, symSize: 0x190 }
  - { offsetInCU: 0xA59E7, offset: 0x58DA1E, size: 0x8, addend: 0x0, symName: __ZN19JoltPhysicsServer3DD1Ev, symObjAddr: 0xF598, symBinAddr: 0x1D1CD8, symSize: 0x4 }
  - { offsetInCU: 0xA5A0A, offset: 0x58DA41, size: 0x8, addend: 0x0, symName: __ZN19JoltPhysicsServer3DD1Ev, symObjAddr: 0xF598, symBinAddr: 0x1D1CD8, symSize: 0x4 }
  - { offsetInCU: 0xA5A32, offset: 0x58DA69, size: 0x8, addend: 0x0, symName: __ZN19JoltPhysicsServer3DD0Ev, symObjAddr: 0xF59C, symBinAddr: 0xE95F4, symSize: 0x14 }
  - { offsetInCU: 0xA5F1F, offset: 0x58DF56, size: 0x8, addend: 0x0, symName: __ZN19JoltPhysicsServer3D28_world_boundary_shape_createEv, symObjAddr: 0xF638, symBinAddr: 0xEA934, symSize: 0x22C }
  - { offsetInCU: 0xA6572, offset: 0x58E5A9, size: 0x8, addend: 0x0, symName: __ZNSt3__112__hash_tableINS_17__hash_value_typeIxP15JoltShapeImpl3DEENS_22__unordered_map_hasherIxS4_N7HashMapIxS3_N5godot20HashMapHasherDefaultENS7_24HashMapComparatorDefaultIxEEE6HasherENSB_10ComparatorELb1EEENS_21__unordered_map_equalIxS4_SD_SC_Lb1EEENS_9allocatorIS4_EEE25__emplace_unique_key_argsIxJRKNS_21piecewise_construct_tENS_5tupleIJRKxEEENSO_IJEEEEEENS_4pairINS_15__hash_iteratorIPNS_11__hash_nodeIS4_PvEEEEbEERKT_DpOT0_, symObjAddr: 0x38914, symBinAddr: 0x112640, symSize: 0x4B4 }
  - { offsetInCU: 0xA7079, offset: 0x58F0B0, size: 0x8, addend: 0x0, symName: __ZN19JoltPhysicsServer3D28_separation_ray_shape_createEv, symObjAddr: 0xF864, symBinAddr: 0xE9758, symSize: 0x230 }
  - { offsetInCU: 0xA77E0, offset: 0x58F817, size: 0x8, addend: 0x0, symName: __ZN19JoltPhysicsServer3D20_sphere_shape_createEv, symObjAddr: 0xFA94, symBinAddr: 0xEAE64, symSize: 0x22C }
  - { offsetInCU: 0xA7F55, offset: 0x58FF8C, size: 0x8, addend: 0x0, symName: __ZN19JoltPhysicsServer3D17_box_shape_createEv, symObjAddr: 0xFCC0, symBinAddr: 0xE9A44, symSize: 0x23C }
  - { offsetInCU: 0xA8709, offset: 0x590740, size: 0x8, addend: 0x0, symName: __ZN19JoltPhysicsServer3D21_capsule_shape_createEv, symObjAddr: 0xFEFC, symBinAddr: 0xEB5B4, symSize: 0x228 }
  - { offsetInCU: 0xA8E8C, offset: 0x590EC3, size: 0x8, addend: 0x0, symName: __ZN19JoltPhysicsServer3D22_cylinder_shape_createEv, symObjAddr: 0x10124, symBinAddr: 0xE9E3C, symSize: 0x234 }
  - { offsetInCU: 0xA9601, offset: 0x591638, size: 0x8, addend: 0x0, symName: __ZN19JoltPhysicsServer3D28_convex_polygon_shape_createEv, symObjAddr: 0x10358, symBinAddr: 0xEA078, symSize: 0x250 }
  - { offsetInCU: 0xA9E09, offset: 0x591E40, size: 0x8, addend: 0x0, symName: __ZN19JoltPhysicsServer3D29_concave_polygon_shape_createEv, symObjAddr: 0x105A8, symBinAddr: 0xEA314, symSize: 0x248 }
  - { offsetInCU: 0xAA645, offset: 0x59267C, size: 0x8, addend: 0x0, symName: __ZN19JoltPhysicsServer3D23_heightmap_shape_createEv, symObjAddr: 0x107F0, symBinAddr: 0xEC33C, symSize: 0x248 }
  - { offsetInCU: 0xAACA3, offset: 0x592CDA, size: 0x8, addend: 0x0, symName: __ZN19JoltPhysicsServer3D20_custom_shape_createEv, symObjAddr: 0x10A38, symBinAddr: 0xEA708, symSize: 0x64 }
  - { offsetInCU: 0xAAF60, offset: 0x592F97, size: 0x8, addend: 0x0, symName: __ZN19JoltPhysicsServer3D15_shape_set_dataERKN5godot3RIDERKNS0_7VariantE, symObjAddr: 0x10A9C, symBinAddr: 0xECB24, symSize: 0x18C }
  - { offsetInCU: 0xAB23C, offset: 0x593273, size: 0x8, addend: 0x0, symName: __ZN19JoltPhysicsServer3D29_shape_set_custom_solver_biasERKN5godot3RIDEd, symObjAddr: 0x10C28, symBinAddr: 0x6E5CC, symSize: 0x190 }
  - { offsetInCU: 0xAB50C, offset: 0x593543, size: 0x8, addend: 0x0, symName: __ZNK19JoltPhysicsServer3D15_shape_get_typeERKN5godot3RIDE, symObjAddr: 0x10DB8, symBinAddr: 0x3504C, symSize: 0x18C }
  - { offsetInCU: 0xAB7D6, offset: 0x59380D, size: 0x8, addend: 0x0, symName: __ZNK19JoltPhysicsServer3D15_shape_get_dataERKN5godot3RIDE, symObjAddr: 0x10F44, symBinAddr: 0x6E7A8, symSize: 0x1A4 }
  - { offsetInCU: 0xABAEA, offset: 0x593B21, size: 0x8, addend: 0x0, symName: __ZN19JoltPhysicsServer3D17_shape_set_marginERKN5godot3RIDEd, symObjAddr: 0x110E8, symBinAddr: 0x1D1CDC, symSize: 0x198 }
  - { offsetInCU: 0xABDC6, offset: 0x593DFD, size: 0x8, addend: 0x0, symName: __ZNK19JoltPhysicsServer3D17_shape_get_marginERKN5godot3RIDE, symObjAddr: 0x11280, symBinAddr: 0xEB7DC, symSize: 0x194 }
  - { offsetInCU: 0xAC08F, offset: 0x5940C6, size: 0x8, addend: 0x0, symName: __ZNK19JoltPhysicsServer3D29_shape_get_custom_solver_biasERKN5godot3RIDE, symObjAddr: 0x11414, symBinAddr: 0xED2E4, symSize: 0x188 }
  - { offsetInCU: 0xACBAB, offset: 0x594BE2, size: 0x8, addend: 0x0, symName: __ZN19JoltPhysicsServer3D13_space_createEv, symObjAddr: 0x1159C, symBinAddr: 0xEB9B8, symSize: 0x878 }
  - { offsetInCU: 0xAE4B9, offset: 0x5964F0, size: 0x8, addend: 0x0, symName: __ZN19JoltPhysicsServer3D17_space_set_activeERKN5godot3RIDEb, symObjAddr: 0x11E14, symBinAddr: 0x1D86F0, symSize: 0x7B0 }
  - { offsetInCU: 0xAF522, offset: 0x597559, size: 0x8, addend: 0x0, symName: __ZNK19JoltPhysicsServer3D16_space_is_activeERKN5godot3RIDE, symObjAddr: 0x125C4, symBinAddr: 0xEC584, symSize: 0x29C }
  - { offsetInCU: 0xAF97C, offset: 0x5979B3, size: 0x8, addend: 0x0, symName: __ZN19JoltPhysicsServer3D16_space_set_paramERKN5godot3RIDENS0_15PhysicsServer3D14SpaceParameterEd, symObjAddr: 0x12860, symBinAddr: 0xED53C, symSize: 0x198 }
  - { offsetInCU: 0xAFC5D, offset: 0x597C94, size: 0x8, addend: 0x0, symName: __ZNK19JoltPhysicsServer3D16_space_get_paramERKN5godot3RIDENS0_15PhysicsServer3D14SpaceParameterE, symObjAddr: 0x129F8, symBinAddr: 0xECCB0, symSize: 0x18C }
  - { offsetInCU: 0xAFF2B, offset: 0x597F62, size: 0x8, addend: 0x0, symName: __ZN19JoltPhysicsServer3D23_space_get_direct_stateERKN5godot3RIDE, symObjAddr: 0x12B84, symBinAddr: 0x1DA564, symSize: 0x184 }
  - { offsetInCU: 0xB01EC, offset: 0x598223, size: 0x8, addend: 0x0, symName: __ZN19JoltPhysicsServer3D25_space_set_debug_contactsERKN5godot3RIDEi, symObjAddr: 0x12D08, symBinAddr: 0xECEC0, symSize: 0x1AC }
  - { offsetInCU: 0xB05A9, offset: 0x5985E0, size: 0x8, addend: 0x0, symName: __ZNK19JoltPhysicsServer3D19_space_get_contactsERKN5godot3RIDE, symObjAddr: 0x12EB4, symBinAddr: 0x70B30, symSize: 0x1BC }
  - { offsetInCU: 0xB09A1, offset: 0x5989D8, size: 0x8, addend: 0x0, symName: __ZNK19JoltPhysicsServer3D24_space_get_contact_countERKN5godot3RIDE, symObjAddr: 0x13070, symBinAddr: 0xED09C, symSize: 0x190 }
  - { offsetInCU: 0xB1384, offset: 0x5993BB, size: 0x8, addend: 0x0, symName: __ZN19JoltPhysicsServer3D12_area_createEv, symObjAddr: 0x13200, symBinAddr: 0x354C4, symSize: 0x7B0 }
  - { offsetInCU: 0xB285B, offset: 0x59A892, size: 0x8, addend: 0x0, symName: __ZN19JoltPhysicsServer3D15_area_set_spaceERKN5godot3RIDES3_, symObjAddr: 0x139B0, symBinAddr: 0x6FE34, symSize: 0x374 }
  - { offsetInCU: 0xB2E71, offset: 0x59AEA8, size: 0x8, addend: 0x0, symName: __ZNK19JoltPhysicsServer3D15_area_get_spaceERKN5godot3RIDE, symObjAddr: 0x13D24, symBinAddr: 0x20CA8, symSize: 0x1BC }
  - { offsetInCU: 0xB320D, offset: 0x59B244, size: 0x8, addend: 0x0, symName: __ZN19JoltPhysicsServer3D15_area_add_shapeERKN5godot3RIDES3_RKNS0_11Transform3DEb, symObjAddr: 0x13EE0, symBinAddr: 0x701F4, symSize: 0x300 }
  - { offsetInCU: 0xB3785, offset: 0x59B7BC, size: 0x8, addend: 0x0, symName: __ZN19JoltPhysicsServer3D15_area_set_shapeERKN5godot3RIDEiS3_, symObjAddr: 0x141E0, symBinAddr: 0x1DB514, symSize: 0x2E4 }
  - { offsetInCU: 0xB3CEB, offset: 0x59BD22, size: 0x8, addend: 0x0, symName: __ZN19JoltPhysicsServer3D25_area_set_shape_transformERKN5godot3RIDEiRKNS0_11Transform3DE, symObjAddr: 0x144C4, symBinAddr: 0xED8F8, symSize: 0x1AC }
  - { offsetInCU: 0xB401F, offset: 0x59C056, size: 0x8, addend: 0x0, symName: __ZNK19JoltPhysicsServer3D21_area_get_shape_countERKN5godot3RIDE, symObjAddr: 0x14670, symBinAddr: 0x1DB928, symSize: 0x19C }
  - { offsetInCU: 0xB4354, offset: 0x59C38B, size: 0x8, addend: 0x0, symName: __ZNK19JoltPhysicsServer3D15_area_get_shapeERKN5godot3RIDEi, symObjAddr: 0x1480C, symBinAddr: 0x70CEC, symSize: 0x274 }
  - { offsetInCU: 0xB48C6, offset: 0x59C8FD, size: 0x8, addend: 0x0, symName: __ZNK19JoltPhysicsServer3D25_area_get_shape_transformERKN5godot3RIDEi, symObjAddr: 0x14A80, symBinAddr: 0x1DC314, symSize: 0x1C8 }
  - { offsetInCU: 0xB4D21, offset: 0x59CD58, size: 0x8, addend: 0x0, symName: __ZN19JoltPhysicsServer3D18_area_remove_shapeERKN5godot3RIDEi, symObjAddr: 0x14C48, symBinAddr: 0xEF038, symSize: 0x184 }
  - { offsetInCU: 0xB4FF7, offset: 0x59D02E, size: 0x8, addend: 0x0, symName: __ZN19JoltPhysicsServer3D18_area_clear_shapesERKN5godot3RIDE, symObjAddr: 0x14DCC, symBinAddr: 0x1CC17C, symSize: 0x250 }
  - { offsetInCU: 0xB55D0, offset: 0x59D607, size: 0x8, addend: 0x0, symName: __ZN19JoltPhysicsServer3D24_area_set_shape_disabledERKN5godot3RIDEib, symObjAddr: 0x1501C, symBinAddr: 0xEFD14, symSize: 0x240 }
  - { offsetInCU: 0xB5A0F, offset: 0x59DA46, size: 0x8, addend: 0x0, symName: __ZN19JoltPhysicsServer3D31_area_attach_object_instance_idERKN5godot3RIDEy, symObjAddr: 0x1525C, symBinAddr: 0xEFF60, symSize: 0x3DC }
  - { offsetInCU: 0xB63D8, offset: 0x59E40F, size: 0x8, addend: 0x0, symName: __ZNK19JoltPhysicsServer3D28_area_get_object_instance_idERKN5godot3RIDE, symObjAddr: 0x15638, symBinAddr: 0xF0388, symSize: 0x3D4 }
  - { offsetInCU: 0xB6D72, offset: 0x59EDA9, size: 0x8, addend: 0x0, symName: __ZN19JoltPhysicsServer3D15_area_set_paramERKN5godot3RIDENS0_15PhysicsServer3D13AreaParameterERKNS0_7VariantE, symObjAddr: 0x15A0C, symBinAddr: 0x1DC788, symSize: 0x3E8 }
  - { offsetInCU: 0xB7710, offset: 0x59F747, size: 0x8, addend: 0x0, symName: __ZN19JoltPhysicsServer3D19_area_set_transformERKN5godot3RIDERKNS0_11Transform3DE, symObjAddr: 0x15DF4, symBinAddr: 0x1CC3CC, symSize: 0x184 }
  - { offsetInCU: 0xB79E6, offset: 0x59FA1D, size: 0x8, addend: 0x0, symName: __ZNK19JoltPhysicsServer3D15_area_get_paramERKN5godot3RIDENS0_15PhysicsServer3D13AreaParameterE, symObjAddr: 0x15F78, symBinAddr: 0x1DD374, symSize: 0x400 }
  - { offsetInCU: 0xB83B8, offset: 0x5A03EF, size: 0x8, addend: 0x0, symName: __ZNK19JoltPhysicsServer3D19_area_get_transformERKN5godot3RIDE, symObjAddr: 0x16378, symBinAddr: 0xF15D8, symSize: 0x270 }
  - { offsetInCU: 0xB89A9, offset: 0x5A09E0, size: 0x8, addend: 0x0, symName: __ZN19JoltPhysicsServer3D24_area_set_collision_maskERKN5godot3RIDEj, symObjAddr: 0x165E8, symBinAddr: 0xF1894, symSize: 0x1A4 }
  - { offsetInCU: 0xB8CB9, offset: 0x5A0CF0, size: 0x8, addend: 0x0, symName: __ZNK19JoltPhysicsServer3D24_area_get_collision_maskERKN5godot3RIDE, symObjAddr: 0x1678C, symBinAddr: 0xF1A58, symSize: 0x188 }
  - { offsetInCU: 0xB8F9A, offset: 0x5A0FD1, size: 0x8, addend: 0x0, symName: __ZN19JoltPhysicsServer3D25_area_set_collision_layerERKN5godot3RIDEj, symObjAddr: 0x16914, symBinAddr: 0x36110, symSize: 0x1A4 }
  - { offsetInCU: 0xB92AA, offset: 0x5A12E1, size: 0x8, addend: 0x0, symName: __ZNK19JoltPhysicsServer3D25_area_get_collision_layerERKN5godot3RIDE, symObjAddr: 0x16AB8, symBinAddr: 0x1DDD8C, symSize: 0x188 }
  - { offsetInCU: 0xB958B, offset: 0x5A15C2, size: 0x8, addend: 0x0, symName: __ZN19JoltPhysicsServer3D21_area_set_monitorableERKN5godot3RIDEb, symObjAddr: 0x16C40, symBinAddr: 0x1DE158, symSize: 0x1C8 }
  - { offsetInCU: 0xB9908, offset: 0x5A193F, size: 0x8, addend: 0x0, symName: __ZN19JoltPhysicsServer3D26_area_set_monitor_callbackERKN5godot3RIDERKNS0_8CallableE, symObjAddr: 0x16E08, symBinAddr: 0xF23C4, symSize: 0x184 }
  - { offsetInCU: 0xB9BDE, offset: 0x5A1C15, size: 0x8, addend: 0x0, symName: __ZN19JoltPhysicsServer3D31_area_set_area_monitor_callbackERKN5godot3RIDERKNS0_8CallableE, symObjAddr: 0x16F8C, symBinAddr: 0x1DE798, symSize: 0x184 }
  - { offsetInCU: 0xB9ED6, offset: 0x5A1F0D, size: 0x8, addend: 0x0, symName: __ZN19JoltPhysicsServer3D22_area_set_ray_pickableERKN5godot3RIDEb, symObjAddr: 0x17110, symBinAddr: 0xF2570, symSize: 0x184 }
  - { offsetInCU: 0xBA90B, offset: 0x5A2942, size: 0x8, addend: 0x0, symName: __ZN19JoltPhysicsServer3D12_body_createEv, symObjAddr: 0x17294, symBinAddr: 0x1DEAEC, symSize: 0x7E8 }
  - { offsetInCU: 0xBBC63, offset: 0x5A3C9A, size: 0x8, addend: 0x0, symName: __ZN19JoltPhysicsServer3D15_body_set_spaceERKN5godot3RIDES3_, symObjAddr: 0x17A7C, symBinAddr: 0xF2718, symSize: 0x374 }
  - { offsetInCU: 0xBC248, offset: 0x5A427F, size: 0x8, addend: 0x0, symName: __ZNK19JoltPhysicsServer3D15_body_get_spaceERKN5godot3RIDE, symObjAddr: 0x17DF0, symBinAddr: 0x1DF458, symSize: 0x1BC }
  - { offsetInCU: 0xBC5E4, offset: 0x5A461B, size: 0x8, addend: 0x0, symName: __ZN19JoltPhysicsServer3D14_body_set_modeERKN5godot3RIDENS0_15PhysicsServer3D8BodyModeE, symObjAddr: 0x17FAC, symBinAddr: 0xF2AE0, symSize: 0x184 }
  - { offsetInCU: 0xBC8D0, offset: 0x5A4907, size: 0x8, addend: 0x0, symName: __ZNK19JoltPhysicsServer3D14_body_get_modeERKN5godot3RIDE, symObjAddr: 0x18130, symBinAddr: 0x1DF7E0, symSize: 0x188 }
  - { offsetInCU: 0xBCBB1, offset: 0x5A4BE8, size: 0x8, addend: 0x0, symName: __ZN19JoltPhysicsServer3D15_body_add_shapeERKN5godot3RIDES3_RKNS0_11Transform3DEb, symObjAddr: 0x182B8, symBinAddr: 0xF2C74, symSize: 0x300 }
  - { offsetInCU: 0xBD129, offset: 0x5A5160, size: 0x8, addend: 0x0, symName: __ZN19JoltPhysicsServer3D15_body_set_shapeERKN5godot3RIDEiS3_, symObjAddr: 0x185B8, symBinAddr: 0x1DFAF0, symSize: 0x2E4 }
  - { offsetInCU: 0xBD68F, offset: 0x5A56C6, size: 0x8, addend: 0x0, symName: __ZN19JoltPhysicsServer3D25_body_set_shape_transformERKN5godot3RIDEiRKNS0_11Transform3DE, symObjAddr: 0x1889C, symBinAddr: 0xF3108, symSize: 0x1AC }
  - { offsetInCU: 0xBD977, offset: 0x5A59AE, size: 0x8, addend: 0x0, symName: __ZNK19JoltPhysicsServer3D21_body_get_shape_countERKN5godot3RIDE, symObjAddr: 0x18A48, symBinAddr: 0x1E0254, symSize: 0x19C }
  - { offsetInCU: 0xBDC96, offset: 0x5A5CCD, size: 0x8, addend: 0x0, symName: __ZNK19JoltPhysicsServer3D15_body_get_shapeERKN5godot3RIDEi, symObjAddr: 0x18BE4, symBinAddr: 0xF34F0, symSize: 0x274 }
  - { offsetInCU: 0xBE11A, offset: 0x5A6151, size: 0x8, addend: 0x0, symName: __ZNK19JoltPhysicsServer3D25_body_get_shape_transformERKN5godot3RIDEi, symObjAddr: 0x18E58, symBinAddr: 0x1E0628, symSize: 0x1C8 }
  - { offsetInCU: 0xBE575, offset: 0x5A65AC, size: 0x8, addend: 0x0, symName: __ZN19JoltPhysicsServer3D18_body_remove_shapeERKN5godot3RIDEi, symObjAddr: 0x19020, symBinAddr: 0xF37F0, symSize: 0x184 }
  - { offsetInCU: 0xBE84B, offset: 0x5A6882, size: 0x8, addend: 0x0, symName: __ZN19JoltPhysicsServer3D18_body_clear_shapesERKN5godot3RIDE, symObjAddr: 0x191A4, symBinAddr: 0x1E08D4, symSize: 0x250 }
  - { offsetInCU: 0xBEE24, offset: 0x5A6E5B, size: 0x8, addend: 0x0, symName: __ZN19JoltPhysicsServer3D24_body_set_shape_disabledERKN5godot3RIDEib, symObjAddr: 0x193F4, symBinAddr: 0xF3A54, symSize: 0x240 }
  - { offsetInCU: 0xBF396, offset: 0x5A73CD, size: 0x8, addend: 0x0, symName: __ZN19JoltPhysicsServer3D31_body_attach_object_instance_idERKN5godot3RIDEy, symObjAddr: 0x19634, symBinAddr: 0x1E0D98, symSize: 0x2B0 }
  - { offsetInCU: 0xBF8A7, offset: 0x5A78DE, size: 0x8, addend: 0x0, symName: __ZNK19JoltPhysicsServer3D28_body_get_object_instance_idERKN5godot3RIDE, symObjAddr: 0x198E4, symBinAddr: 0xF3EF8, symSize: 0x188 }
  - { offsetInCU: 0xBFB88, offset: 0x5A7BBF, size: 0x8, addend: 0x0, symName: __ZN19JoltPhysicsServer3D47_body_set_enable_continuous_collision_detectionERKN5godot3RIDEb, symObjAddr: 0x19A6C, symBinAddr: 0x1E121C, symSize: 0x1AC }
  - { offsetInCU: 0xBFEC5, offset: 0x5A7EFC, size: 0x8, addend: 0x0, symName: __ZNK19JoltPhysicsServer3D47_body_is_continuous_collision_detection_enabledERKN5godot3RIDE, symObjAddr: 0x19C18, symBinAddr: 0xF43C0, symSize: 0x244 }
  - { offsetInCU: 0xC03C2, offset: 0x5A83F9, size: 0x8, addend: 0x0, symName: __ZN19JoltPhysicsServer3D25_body_set_collision_layerERKN5godot3RIDEj, symObjAddr: 0x19E5C, symBinAddr: 0x1E1748, symSize: 0x1A4 }
  - { offsetInCU: 0xC06BC, offset: 0x5A86F3, size: 0x8, addend: 0x0, symName: __ZNK19JoltPhysicsServer3D25_body_get_collision_layerERKN5godot3RIDE, symObjAddr: 0x1A000, symBinAddr: 0xF4898, symSize: 0x188 }
  - { offsetInCU: 0xC099D, offset: 0x5A89D4, size: 0x8, addend: 0x0, symName: __ZN19JoltPhysicsServer3D24_body_set_collision_maskERKN5godot3RIDEj, symObjAddr: 0x1A188, symBinAddr: 0x1E281C, symSize: 0x1A4 }
  - { offsetInCU: 0xC0C97, offset: 0x5A8CCE, size: 0x8, addend: 0x0, symName: __ZNK19JoltPhysicsServer3D24_body_get_collision_maskERKN5godot3RIDE, symObjAddr: 0x1A32C, symBinAddr: 0xF4B70, symSize: 0x188 }
  - { offsetInCU: 0xC0F9B, offset: 0x5A8FD2, size: 0x8, addend: 0x0, symName: __ZN19JoltPhysicsServer3D28_body_set_collision_priorityERKN5godot3RIDEd, symObjAddr: 0x1A4B4, symBinAddr: 0x1E2C10, symSize: 0x194 }
  - { offsetInCU: 0xC12AD, offset: 0x5A92E4, size: 0x8, addend: 0x0, symName: __ZNK19JoltPhysicsServer3D28_body_get_collision_priorityERKN5godot3RIDE, symObjAddr: 0x1A648, symBinAddr: 0xF4DB4, symSize: 0x18C }
  - { offsetInCU: 0xC158E, offset: 0x5A95C5, size: 0x8, addend: 0x0, symName: __ZN19JoltPhysicsServer3D20_body_set_user_flagsERKN5godot3RIDEj, symObjAddr: 0x1A7D4, symBinAddr: 0x1E2FE4, symSize: 0x2C }
  - { offsetInCU: 0xC15D2, offset: 0x5A9609, size: 0x8, addend: 0x0, symName: __ZN19JoltPhysicsServer3D20_body_set_user_flagsERKN5godot3RIDEj, symObjAddr: 0x1A7D4, symBinAddr: 0x1E2FE4, symSize: 0x2C }
  - { offsetInCU: 0xC1623, offset: 0x5A965A, size: 0x8, addend: 0x0, symName: __ZNK19JoltPhysicsServer3D20_body_get_user_flagsERKN5godot3RIDE, symObjAddr: 0x1A800, symBinAddr: 0xF50FC, symSize: 0x8 }
  - { offsetInCU: 0xC1657, offset: 0x5A968E, size: 0x8, addend: 0x0, symName: __ZN19JoltPhysicsServer3D15_body_set_paramERKN5godot3RIDENS0_15PhysicsServer3D13BodyParameterERKNS0_7VariantE, symObjAddr: 0x1A808, symBinAddr: 0x1E3350, symSize: 0x198 }
  - { offsetInCU: 0xC193F, offset: 0x5A9976, size: 0x8, addend: 0x0, symName: __ZNK19JoltPhysicsServer3D15_body_get_paramERKN5godot3RIDENS0_15PhysicsServer3D13BodyParameterE, symObjAddr: 0x1A9A0, symBinAddr: 0xF5164, symSize: 0x1B0 }
  - { offsetInCU: 0xC1C5F, offset: 0x5A9C96, size: 0x8, addend: 0x0, symName: __ZN19JoltPhysicsServer3D27_body_reset_mass_propertiesERKN5godot3RIDE, symObjAddr: 0x1AB50, symBinAddr: 0x1E36E8, symSize: 0x1A0 }
  - { offsetInCU: 0xC1F9A, offset: 0x5A9FD1, size: 0x8, addend: 0x0, symName: __ZN19JoltPhysicsServer3D15_body_set_stateERKN5godot3RIDENS0_15PhysicsServer3D9BodyStateERKNS0_7VariantE, symObjAddr: 0x1ACF0, symBinAddr: 0xF53F4, symSize: 0x198 }
  - { offsetInCU: 0xC2282, offset: 0x5AA2B9, size: 0x8, addend: 0x0, symName: __ZNK19JoltPhysicsServer3D15_body_get_stateERKN5godot3RIDENS0_15PhysicsServer3D9BodyStateE, symObjAddr: 0x1AE88, symBinAddr: 0x1E3B88, symSize: 0x1B0 }
  - { offsetInCU: 0xC25A2, offset: 0x5AA5D9, size: 0x8, addend: 0x0, symName: __ZN19JoltPhysicsServer3D27_body_apply_central_impulseERKN5godot3RIDERKNS0_7Vector3E, symObjAddr: 0x1B038, symBinAddr: 0xF57F0, symSize: 0x184 }
  - { offsetInCU: 0xC2878, offset: 0x5AA8AF, size: 0x8, addend: 0x0, symName: __ZN19JoltPhysicsServer3D19_body_apply_impulseERKN5godot3RIDERKNS0_7Vector3ES6_, symObjAddr: 0x1B1BC, symBinAddr: 0x1E3F0C, symSize: 0x198 }
  - { offsetInCU: 0xC2B60, offset: 0x5AAB97, size: 0x8, addend: 0x0, symName: __ZN19JoltPhysicsServer3D26_body_apply_torque_impulseERKN5godot3RIDERKNS0_7Vector3E, symObjAddr: 0x1B354, symBinAddr: 0xF5CB4, symSize: 0x184 }
  - { offsetInCU: 0xC2E36, offset: 0x5AAE6D, size: 0x8, addend: 0x0, symName: __ZN19JoltPhysicsServer3D25_body_apply_central_forceERKN5godot3RIDERKNS0_7Vector3E, symObjAddr: 0x1B4D8, symBinAddr: 0x1E4424, symSize: 0x184 }
  - { offsetInCU: 0xC310C, offset: 0x5AB143, size: 0x8, addend: 0x0, symName: __ZN19JoltPhysicsServer3D17_body_apply_forceERKN5godot3RIDERKNS0_7Vector3ES6_, symObjAddr: 0x1B65C, symBinAddr: 0xF60CC, symSize: 0x198 }
  - { offsetInCU: 0xC33F4, offset: 0x5AB42B, size: 0x8, addend: 0x0, symName: __ZN19JoltPhysicsServer3D18_body_apply_torqueERKN5godot3RIDERKNS0_7Vector3E, symObjAddr: 0x1B7F4, symBinAddr: 0x1E4A8C, symSize: 0x184 }
  - { offsetInCU: 0xC36CA, offset: 0x5AB701, size: 0x8, addend: 0x0, symName: __ZN19JoltPhysicsServer3D32_body_add_constant_central_forceERKN5godot3RIDERKNS0_7Vector3E, symObjAddr: 0x1B978, symBinAddr: 0xF63B4, symSize: 0x1F0 }
  - { offsetInCU: 0xC3AAC, offset: 0x5ABAE3, size: 0x8, addend: 0x0, symName: __ZN19JoltPhysicsServer3D24_body_add_constant_forceERKN5godot3RIDERKNS0_7Vector3ES6_, symObjAddr: 0x1BB68, symBinAddr: 0x1E4E60, symSize: 0x198 }
  - { offsetInCU: 0xC3D94, offset: 0x5ABDCB, size: 0x8, addend: 0x0, symName: __ZN19JoltPhysicsServer3D25_body_add_constant_torqueERKN5godot3RIDERKNS0_7Vector3E, symObjAddr: 0x1BD00, symBinAddr: 0xF6660, symSize: 0x1F0 }
  - { offsetInCU: 0xC4176, offset: 0x5AC1AD, size: 0x8, addend: 0x0, symName: __ZN19JoltPhysicsServer3D24_body_set_constant_forceERKN5godot3RIDERKNS0_7Vector3E, symObjAddr: 0x1BEF0, symBinAddr: 0x1E5238, symSize: 0x1E4 }
  - { offsetInCU: 0xC4530, offset: 0x5AC567, size: 0x8, addend: 0x0, symName: __ZNK19JoltPhysicsServer3D24_body_get_constant_forceERKN5godot3RIDE, symObjAddr: 0x1C0D4, symBinAddr: 0xF6A0C, symSize: 0x198 }
  - { offsetInCU: 0xC4811, offset: 0x5AC848, size: 0x8, addend: 0x0, symName: __ZN19JoltPhysicsServer3D25_body_set_constant_torqueERKN5godot3RIDERKNS0_7Vector3E, symObjAddr: 0x1C26C, symBinAddr: 0x1E575C, symSize: 0x1E4 }
  - { offsetInCU: 0xC4BCB, offset: 0x5ACC02, size: 0x8, addend: 0x0, symName: __ZNK19JoltPhysicsServer3D25_body_get_constant_torqueERKN5godot3RIDE, symObjAddr: 0x1C450, symBinAddr: 0xF6C04, symSize: 0x198 }
  - { offsetInCU: 0xC4EAC, offset: 0x5ACEE3, size: 0x8, addend: 0x0, symName: __ZN19JoltPhysicsServer3D23_body_set_axis_velocityERKN5godot3RIDERKNS0_7Vector3E, symObjAddr: 0x1C5E8, symBinAddr: 0x1E6C10, symSize: 0x184 }
  - { offsetInCU: 0xC5182, offset: 0x5AD1B9, size: 0x8, addend: 0x0, symName: __ZN19JoltPhysicsServer3D19_body_set_axis_lockERKN5godot3RIDENS0_15PhysicsServer3D8BodyAxisEb, symObjAddr: 0x1C76C, symBinAddr: 0xF6FAC, symSize: 0x1DC }
  - { offsetInCU: 0xC554A, offset: 0x5AD581, size: 0x8, addend: 0x0, symName: __ZNK19JoltPhysicsServer3D20_body_is_axis_lockedERKN5godot3RIDENS0_15PhysicsServer3D8BodyAxisE, symObjAddr: 0x1C948, symBinAddr: 0x1E7700, symSize: 0x194 }
  - { offsetInCU: 0xC5846, offset: 0x5AD87D, size: 0x8, addend: 0x0, symName: __ZN19JoltPhysicsServer3D29_body_add_collision_exceptionERKN5godot3RIDES3_, symObjAddr: 0x1CADC, symBinAddr: 0xF7508, symSize: 0x190 }
  - { offsetInCU: 0xC5BAD, offset: 0x5ADBE4, size: 0x8, addend: 0x0, symName: __ZN19JoltPhysicsServer3D32_body_remove_collision_exceptionERKN5godot3RIDES3_, symObjAddr: 0x1CC6C, symBinAddr: 0x1E82D0, symSize: 0x184 }
  - { offsetInCU: 0xC5EBC, offset: 0x5ADEF3, size: 0x8, addend: 0x0, symName: __ZNK19JoltPhysicsServer3D30_body_get_collision_exceptionsERKN5godot3RIDE, symObjAddr: 0x1CDF0, symBinAddr: 0xF78E8, symSize: 0x24C }
  - { offsetInCU: 0xC6390, offset: 0x5AE3C7, size: 0x8, addend: 0x0, symName: __ZN19JoltPhysicsServer3D31_body_set_max_contacts_reportedERKN5godot3RIDEi, symObjAddr: 0x1D03C, symBinAddr: 0xF7C00, symSize: 0x184 }
  - { offsetInCU: 0xC66B2, offset: 0x5AE6E9, size: 0x8, addend: 0x0, symName: __ZNK19JoltPhysicsServer3D31_body_get_max_contacts_reportedERKN5godot3RIDE, symObjAddr: 0x1D1C0, symBinAddr: 0xF7DD0, symSize: 0x19C }
  - { offsetInCU: 0xC69D2, offset: 0x5AEA09, size: 0x8, addend: 0x0, symName: __ZN19JoltPhysicsServer3D43_body_set_contacts_reported_depth_thresholdERKN5godot3RIDEd, symObjAddr: 0x1D35C, symBinAddr: 0x1EA00C, symSize: 0x2C }
  - { offsetInCU: 0xC6A16, offset: 0x5AEA4D, size: 0x8, addend: 0x0, symName: __ZN19JoltPhysicsServer3D43_body_set_contacts_reported_depth_thresholdERKN5godot3RIDEd, symObjAddr: 0x1D35C, symBinAddr: 0x1EA00C, symSize: 0x2C }
  - { offsetInCU: 0xC6A67, offset: 0x5AEA9E, size: 0x8, addend: 0x0, symName: __ZNK19JoltPhysicsServer3D43_body_get_contacts_reported_depth_thresholdERKN5godot3RIDE, symObjAddr: 0x1D388, symBinAddr: 0xF81A8, symSize: 0x8 }
  - { offsetInCU: 0xC6A9B, offset: 0x5AEAD2, size: 0x8, addend: 0x0, symName: __ZN19JoltPhysicsServer3D32_body_set_omit_force_integrationERKN5godot3RIDEb, symObjAddr: 0x1D390, symBinAddr: 0x1EA120, symSize: 0x184 }
  - { offsetInCU: 0xC6D87, offset: 0x5AEDBE, size: 0x8, addend: 0x0, symName: __ZNK19JoltPhysicsServer3D35_body_is_omitting_force_integrationERKN5godot3RIDE, symObjAddr: 0x1D514, symBinAddr: 0xF837C, symSize: 0x190 }
  - { offsetInCU: 0xC708D, offset: 0x5AF0C4, size: 0x8, addend: 0x0, symName: __ZN19JoltPhysicsServer3D29_body_set_state_sync_callbackERKN5godot3RIDERKNS0_8CallableE, symObjAddr: 0x1D6A4, symBinAddr: 0x1EA388, symSize: 0x1B8 }
  - { offsetInCU: 0xC7427, offset: 0x5AF45E, size: 0x8, addend: 0x0, symName: __ZN19JoltPhysicsServer3D36_body_set_force_integration_callbackERKN5godot3RIDERKNS0_8CallableERKNS0_7VariantE, symObjAddr: 0x1D85C, symBinAddr: 0xF85EC, symSize: 0x21C }
  - { offsetInCU: 0xC7830, offset: 0x5AF867, size: 0x8, addend: 0x0, symName: __ZN19JoltPhysicsServer3D22_body_set_ray_pickableERKN5godot3RIDEb, symObjAddr: 0x1DA78, symBinAddr: 0x1EA768, symSize: 0x184 }
  - { offsetInCU: 0xC7B24, offset: 0x5AFB5B, size: 0x8, addend: 0x0, symName: __ZNK19JoltPhysicsServer3D17_body_test_motionERKN5godot3RIDERKNS0_11Transform3DERKNS0_7Vector3EdibbPNS0_36PhysicsServer3DExtensionMotionResultE, symObjAddr: 0x1DBFC, symBinAddr: 0xF89EC, symSize: 0x220 }
  - { offsetInCU: 0xC7ED4, offset: 0x5AFF0B, size: 0x8, addend: 0x0, symName: __ZN19JoltPhysicsServer3D22_body_get_direct_stateERKN5godot3RIDE, symObjAddr: 0x1DE1C, symBinAddr: 0x1EAB8C, symSize: 0x160 }
  - { offsetInCU: 0xC87C2, offset: 0x5B07F9, size: 0x8, addend: 0x0, symName: __ZN19JoltPhysicsServer3D17_soft_body_createEv, symObjAddr: 0x1DF7C, symBinAddr: 0xF8CF0, symSize: 0x730 }
  - { offsetInCU: 0xC9801, offset: 0x5B1838, size: 0x8, addend: 0x0, symName: __ZN19JoltPhysicsServer3D34_soft_body_update_rendering_serverERKN5godot3RIDEPNS0_37PhysicsServer3DRenderingServerHandlerE, symObjAddr: 0x1E6AC, symBinAddr: 0x1EAF40, symSize: 0x184 }
  - { offsetInCU: 0xC9AD7, offset: 0x5B1B0E, size: 0x8, addend: 0x0, symName: __ZN19JoltPhysicsServer3D20_soft_body_set_spaceERKN5godot3RIDES3_, symObjAddr: 0x1E830, symBinAddr: 0xF9504, symSize: 0x374 }
  - { offsetInCU: 0xCA0BC, offset: 0x5B20F3, size: 0x8, addend: 0x0, symName: __ZNK19JoltPhysicsServer3D20_soft_body_get_spaceERKN5godot3RIDE, symObjAddr: 0x1EBA4, symBinAddr: 0x1EB244, symSize: 0x1BC }
  - { offsetInCU: 0xCA458, offset: 0x5B248F, size: 0x8, addend: 0x0, symName: __ZN19JoltPhysicsServer3D19_soft_body_set_meshERKN5godot3RIDES3_, symObjAddr: 0x1ED60, symBinAddr: 0xF995C, symSize: 0x184 }
  - { offsetInCU: 0xCA767, offset: 0x5B279E, size: 0x8, addend: 0x0, symName: __ZNK19JoltPhysicsServer3D21_soft_body_get_boundsERKN5godot3RIDE, symObjAddr: 0x1EEE4, symBinAddr: 0x1EB7F8, symSize: 0x190 }
  - { offsetInCU: 0xCAA9C, offset: 0x5B2AD3, size: 0x8, addend: 0x0, symName: __ZN19JoltPhysicsServer3D30_soft_body_set_collision_layerERKN5godot3RIDEj, symObjAddr: 0x1F074, symBinAddr: 0xF9BC4, symSize: 0x1A4 }
  - { offsetInCU: 0xCAD96, offset: 0x5B2DCD, size: 0x8, addend: 0x0, symName: __ZNK19JoltPhysicsServer3D30_soft_body_get_collision_layerERKN5godot3RIDE, symObjAddr: 0x1F218, symBinAddr: 0x1EBF04, symSize: 0x188 }
  - { offsetInCU: 0xCB077, offset: 0x5B30AE, size: 0x8, addend: 0x0, symName: __ZN19JoltPhysicsServer3D29_soft_body_set_collision_maskERKN5godot3RIDEj, symObjAddr: 0x1F3A0, symBinAddr: 0xF9E4C, symSize: 0x1A4 }
  - { offsetInCU: 0xCB371, offset: 0x5B33A8, size: 0x8, addend: 0x0, symName: __ZNK19JoltPhysicsServer3D29_soft_body_get_collision_maskERKN5godot3RIDE, symObjAddr: 0x1F544, symBinAddr: 0x1EC258, symSize: 0x188 }
  - { offsetInCU: 0xCB652, offset: 0x5B3689, size: 0x8, addend: 0x0, symName: __ZN19JoltPhysicsServer3D34_soft_body_add_collision_exceptionERKN5godot3RIDES3_, symObjAddr: 0x1F6CC, symBinAddr: 0xFA0D4, symSize: 0x190 }
  - { offsetInCU: 0xCB9B7, offset: 0x5B39EE, size: 0x8, addend: 0x0, symName: __ZN19JoltPhysicsServer3D37_soft_body_remove_collision_exceptionERKN5godot3RIDES3_, symObjAddr: 0x1F85C, symBinAddr: 0x1EC5B4, symSize: 0x184 }
  - { offsetInCU: 0xCBC8D, offset: 0x5B3CC4, size: 0x8, addend: 0x0, symName: __ZNK19JoltPhysicsServer3D35_soft_body_get_collision_exceptionsERKN5godot3RIDE, symObjAddr: 0x1F9E0, symBinAddr: 0xFA6F4, symSize: 0x24C }
  - { offsetInCU: 0xCC161, offset: 0x5B4198, size: 0x8, addend: 0x0, symName: __ZN19JoltPhysicsServer3D20_soft_body_set_stateERKN5godot3RIDENS0_15PhysicsServer3D9BodyStateERKNS0_7VariantE, symObjAddr: 0x1FC2C, symBinAddr: 0x376B4, symSize: 0x198 }
  - { offsetInCU: 0xCC449, offset: 0x5B4480, size: 0x8, addend: 0x0, symName: __ZNK19JoltPhysicsServer3D20_soft_body_get_stateERKN5godot3RIDENS0_15PhysicsServer3D9BodyStateE, symObjAddr: 0x1FDC4, symBinAddr: 0x1EC9B4, symSize: 0x1B0 }
  - { offsetInCU: 0xCC769, offset: 0x5B47A0, size: 0x8, addend: 0x0, symName: __ZN19JoltPhysicsServer3D24_soft_body_set_transformERKN5godot3RIDERKNS0_11Transform3DE, symObjAddr: 0x1FF74, symBinAddr: 0x1ECC04, symSize: 0x184 }
  - { offsetInCU: 0xCCA62, offset: 0x5B4A99, size: 0x8, addend: 0x0, symName: __ZN19JoltPhysicsServer3D27_soft_body_set_ray_pickableERKN5godot3RIDEb, symObjAddr: 0x200F8, symBinAddr: 0xFA9C8, symSize: 0x184 }
  - { offsetInCU: 0xCCD56, offset: 0x5B4D8D, size: 0x8, addend: 0x0, symName: __ZN19JoltPhysicsServer3D35_soft_body_set_simulation_precisionERKN5godot3RIDEi, symObjAddr: 0x2027C, symBinAddr: 0x1ECF14, symSize: 0x184 }
  - { offsetInCU: 0xCD042, offset: 0x5B5079, size: 0x8, addend: 0x0, symName: __ZNK19JoltPhysicsServer3D35_soft_body_get_simulation_precisionERKN5godot3RIDE, symObjAddr: 0x20400, symBinAddr: 0xFAB64, symSize: 0x188 }
  - { offsetInCU: 0xCD323, offset: 0x5B535A, size: 0x8, addend: 0x0, symName: __ZN19JoltPhysicsServer3D25_soft_body_set_total_massERKN5godot3RIDEd, symObjAddr: 0x20588, symBinAddr: 0x1ED268, symSize: 0x1B8 }
  - { offsetInCU: 0xCD652, offset: 0x5B5689, size: 0x8, addend: 0x0, symName: __ZNK19JoltPhysicsServer3D25_soft_body_get_total_massERKN5godot3RIDE, symObjAddr: 0x20740, symBinAddr: 0xFAD00, symSize: 0x18C }
  - { offsetInCU: 0xCD933, offset: 0x5B596A, size: 0x8, addend: 0x0, symName: __ZN19JoltPhysicsServer3D31_soft_body_set_linear_stiffnessERKN5godot3RIDEd, symObjAddr: 0x208CC, symBinAddr: 0x1ED5A8, symSize: 0x1A8 }
  - { offsetInCU: 0xCDC61, offset: 0x5B5C98, size: 0x8, addend: 0x0, symName: __ZNK19JoltPhysicsServer3D31_soft_body_get_linear_stiffnessERKN5godot3RIDE, symObjAddr: 0x20A74, symBinAddr: 0xFB06C, symSize: 0x18C }
  - { offsetInCU: 0xCDF42, offset: 0x5B5F79, size: 0x8, addend: 0x0, symName: __ZN19JoltPhysicsServer3D35_soft_body_set_pressure_coefficientERKN5godot3RIDEd, symObjAddr: 0x20C00, symBinAddr: 0x1EDAA4, symSize: 0x1B8 }
  - { offsetInCU: 0xCE271, offset: 0x5B62A8, size: 0x8, addend: 0x0, symName: __ZNK19JoltPhysicsServer3D35_soft_body_get_pressure_coefficientERKN5godot3RIDE, symObjAddr: 0x20DB8, symBinAddr: 0xFB224, symSize: 0x18C }
  - { offsetInCU: 0xCE552, offset: 0x5B6589, size: 0x8, addend: 0x0, symName: __ZN19JoltPhysicsServer3D34_soft_body_set_damping_coefficientERKN5godot3RIDEd, symObjAddr: 0x20F44, symBinAddr: 0x1EE03C, symSize: 0x190 }
  - { offsetInCU: 0xCE83E, offset: 0x5B6875, size: 0x8, addend: 0x0, symName: __ZNK19JoltPhysicsServer3D34_soft_body_get_damping_coefficientERKN5godot3RIDE, symObjAddr: 0x210D4, symBinAddr: 0xFB8D0, symSize: 0x18C }
  - { offsetInCU: 0xCEB1F, offset: 0x5B6B56, size: 0x8, addend: 0x0, symName: __ZN19JoltPhysicsServer3D31_soft_body_set_drag_coefficientERKN5godot3RIDEd, symObjAddr: 0x21260, symBinAddr: 0x1EE398, symSize: 0x17C }
  - { offsetInCU: 0xCEDF0, offset: 0x5B6E27, size: 0x8, addend: 0x0, symName: __ZNK19JoltPhysicsServer3D31_soft_body_get_drag_coefficientERKN5godot3RIDE, symObjAddr: 0x213DC, symBinAddr: 0xFBA7C, symSize: 0x188 }
  - { offsetInCU: 0xCF0B3, offset: 0x5B70EA, size: 0x8, addend: 0x0, symName: __ZN19JoltPhysicsServer3D21_soft_body_move_pointERKN5godot3RIDEiRKNS0_7Vector3E, symObjAddr: 0x21564, symBinAddr: 0x1EE830, symSize: 0x198 }
  - { offsetInCU: 0xCF39B, offset: 0x5B73D2, size: 0x8, addend: 0x0, symName: __ZNK19JoltPhysicsServer3D36_soft_body_get_point_global_positionERKN5godot3RIDEi, symObjAddr: 0x216FC, symBinAddr: 0xFBE00, symSize: 0x198 }
  - { offsetInCU: 0xCF670, offset: 0x5B76A7, size: 0x8, addend: 0x0, symName: __ZN19JoltPhysicsServer3D35_soft_body_remove_all_pinned_pointsERKN5godot3RIDE, symObjAddr: 0x21894, symBinAddr: 0x1EEB9C, symSize: 0x1EC }
  - { offsetInCU: 0xCFC1F, offset: 0x5B7C56, size: 0x8, addend: 0x0, symName: __ZN19JoltPhysicsServer3D20_soft_body_pin_pointERKN5godot3RIDEib, symObjAddr: 0x21A80, symBinAddr: 0xFC2AC, symSize: 0x1D4 }
  - { offsetInCU: 0xD0061, offset: 0x5B8098, size: 0x8, addend: 0x0, symName: __ZNK19JoltPhysicsServer3D26_soft_body_is_point_pinnedERKN5godot3RIDEi, symObjAddr: 0x21C54, symBinAddr: 0x1EEF48, symSize: 0x18C }
  - { offsetInCU: 0xD0A21, offset: 0x5B8A58, size: 0x8, addend: 0x0, symName: __ZN19JoltPhysicsServer3D13_joint_createEv, symObjAddr: 0x21DE0, symBinAddr: 0xFC508, symSize: 0x6C8 }
  - { offsetInCU: 0xD1BA2, offset: 0x5B9BD9, size: 0x8, addend: 0x0, symName: __ZN19JoltPhysicsServer3D12_joint_clearERKN5godot3RIDE, symObjAddr: 0x224A8, symBinAddr: 0x1EF368, symSize: 0x474 }
  - { offsetInCU: 0xD2771, offset: 0x5BA7A8, size: 0x8, addend: 0x0, symName: __ZN19JoltPhysicsServer3D15_joint_make_pinERKN5godot3RIDES3_RKNS0_7Vector3ES3_S6_, symObjAddr: 0x2291C, symBinAddr: 0xFCC18, symSize: 0x610 }
  - { offsetInCU: 0xD3318, offset: 0x5BB34F, size: 0x8, addend: 0x0, symName: __ZN19JoltPhysicsServer3D20_pin_joint_set_paramERKN5godot3RIDENS0_15PhysicsServer3D13PinJointParamEd, symObjAddr: 0x22F2C, symBinAddr: 0x1EFC70, symSize: 0x1E8 }
  - { offsetInCU: 0xD3668, offset: 0x5BB69F, size: 0x8, addend: 0x0, symName: __ZNK19JoltPhysicsServer3D20_pin_joint_get_paramERKN5godot3RIDENS0_15PhysicsServer3D13PinJointParamE, symObjAddr: 0x23114, symBinAddr: 0xFD324, symSize: 0x1C8 }
  - { offsetInCU: 0xD3999, offset: 0x5BB9D0, size: 0x8, addend: 0x0, symName: __ZN19JoltPhysicsServer3D22_pin_joint_set_local_aERKN5godot3RIDERKNS0_7Vector3E, symObjAddr: 0x232DC, symBinAddr: 0x1F01F4, symSize: 0x1F8 }
  - { offsetInCU: 0xD3D6F, offset: 0x5BBDA6, size: 0x8, addend: 0x0, symName: __ZNK19JoltPhysicsServer3D22_pin_joint_get_local_aERKN5godot3RIDE, symObjAddr: 0x234D4, symBinAddr: 0xFD6A8, symSize: 0x1CC }
  - { offsetInCU: 0xD40AC, offset: 0x5BC0E3, size: 0x8, addend: 0x0, symName: __ZN19JoltPhysicsServer3D22_pin_joint_set_local_bERKN5godot3RIDERKNS0_7Vector3E, symObjAddr: 0x236A0, symBinAddr: 0x1F072C, symSize: 0x1F8 }
  - { offsetInCU: 0xD4482, offset: 0x5BC4B9, size: 0x8, addend: 0x0, symName: __ZNK19JoltPhysicsServer3D22_pin_joint_get_local_bERKN5godot3RIDE, symObjAddr: 0x23898, symBinAddr: 0xFDA04, symSize: 0x1CC }
  - { offsetInCU: 0xD47BF, offset: 0x5BC7F6, size: 0x8, addend: 0x0, symName: __ZN19JoltPhysicsServer3D17_joint_make_hingeERKN5godot3RIDES3_RKNS0_11Transform3DES3_S6_, symObjAddr: 0x23A64, symBinAddr: 0x1F0D48, symSize: 0x610 }
  - { offsetInCU: 0xD5366, offset: 0x5BD39D, size: 0x8, addend: 0x0, symName: __ZN19JoltPhysicsServer3D24_joint_make_hinge_simpleERKN5godot3RIDES3_RKNS0_7Vector3ES6_S3_S6_S6_, symObjAddr: 0x24074, symBinAddr: 0xFDDE0, symSize: 0x34 }
  - { offsetInCU: 0xD53EB, offset: 0x5BD422, size: 0x8, addend: 0x0, symName: __ZN19JoltPhysicsServer3D24_joint_make_hinge_simpleERKN5godot3RIDES3_RKNS0_7Vector3ES6_S3_S6_S6_, symObjAddr: 0x24074, symBinAddr: 0xFDDE0, symSize: 0x34 }
  - { offsetInCU: 0xD5445, offset: 0x5BD47C, size: 0x8, addend: 0x0, symName: __ZN19JoltPhysicsServer3D22_hinge_joint_set_paramERKN5godot3RIDENS0_15PhysicsServer3D15HingeJointParamEd, symObjAddr: 0x240A8, symBinAddr: 0x1F15AC, symSize: 0x1EC }
  - { offsetInCU: 0xD5795, offset: 0x5BD7CC, size: 0x8, addend: 0x0, symName: __ZNK19JoltPhysicsServer3D22_hinge_joint_get_paramERKN5godot3RIDENS0_15PhysicsServer3D15HingeJointParamE, symObjAddr: 0x24294, symBinAddr: 0xFE120, symSize: 0x1CC }
  - { offsetInCU: 0xD5AC6, offset: 0x5BDAFD, size: 0x8, addend: 0x0, symName: __ZN19JoltPhysicsServer3D21_hinge_joint_set_flagERKN5godot3RIDENS0_15PhysicsServer3D14HingeJointFlagEb, symObjAddr: 0x24460, symBinAddr: 0x1F1AEC, symSize: 0x1EC }
  - { offsetInCU: 0xD5E16, offset: 0x5BDE4D, size: 0x8, addend: 0x0, symName: __ZNK19JoltPhysicsServer3D21_hinge_joint_get_flagERKN5godot3RIDENS0_15PhysicsServer3D14HingeJointFlagE, symObjAddr: 0x2464C, symBinAddr: 0xFE53C, symSize: 0x1CC }
  - { offsetInCU: 0xD6147, offset: 0x5BE17E, size: 0x8, addend: 0x0, symName: __ZN19JoltPhysicsServer3D18_joint_make_sliderERKN5godot3RIDES3_RKNS0_11Transform3DES3_S6_, symObjAddr: 0x24818, symBinAddr: 0x1F2008, symSize: 0x610 }
  - { offsetInCU: 0xD6CEE, offset: 0x5BED25, size: 0x8, addend: 0x0, symName: __ZN19JoltPhysicsServer3D23_slider_joint_set_paramERKN5godot3RIDENS0_15PhysicsServer3D16SliderJointParamEd, symObjAddr: 0x24E28, symBinAddr: 0xFE854, symSize: 0x1EC }
  - { offsetInCU: 0xD703E, offset: 0x5BF075, size: 0x8, addend: 0x0, symName: __ZNK19JoltPhysicsServer3D23_slider_joint_get_paramERKN5godot3RIDENS0_15PhysicsServer3D16SliderJointParamE, symObjAddr: 0x25014, symBinAddr: 0x1F2874, symSize: 0x1CC }
  - { offsetInCU: 0xD736F, offset: 0x5BF3A6, size: 0x8, addend: 0x0, symName: __ZN19JoltPhysicsServer3D22_joint_make_cone_twistERKN5godot3RIDES3_RKNS0_11Transform3DES3_S6_, symObjAddr: 0x251E0, symBinAddr: 0xFEC7C, symSize: 0x610 }
  - { offsetInCU: 0xD7F16, offset: 0x5BFF4D, size: 0x8, addend: 0x0, symName: __ZN19JoltPhysicsServer3D27_cone_twist_joint_set_paramERKN5godot3RIDENS0_15PhysicsServer3D19ConeTwistJointParamEd, symObjAddr: 0x257F0, symBinAddr: 0xFF2C4, symSize: 0x1EC }
  - { offsetInCU: 0xD8266, offset: 0x5C029D, size: 0x8, addend: 0x0, symName: __ZNK19JoltPhysicsServer3D27_cone_twist_joint_get_paramERKN5godot3RIDENS0_15PhysicsServer3D19ConeTwistJointParamE, symObjAddr: 0x259DC, symBinAddr: 0xFF4FC, symSize: 0x1CC }
  - { offsetInCU: 0xD8597, offset: 0x5C05CE, size: 0x8, addend: 0x0, symName: __ZN19JoltPhysicsServer3D24_joint_make_generic_6dofERKN5godot3RIDES3_RKNS0_11Transform3DES3_S6_, symObjAddr: 0x25BA8, symBinAddr: 0x1F3140, symSize: 0x610 }
  - { offsetInCU: 0xD913E, offset: 0x5C1175, size: 0x8, addend: 0x0, symName: __ZN19JoltPhysicsServer3D29_generic_6dof_joint_set_paramERKN5godot3RIDENS0_7Vector34AxisENS0_15PhysicsServer3D19G6DOFJointAxisParamEd, symObjAddr: 0x261B8, symBinAddr: 0xFF7A8, symSize: 0x1EC }
  - { offsetInCU: 0xD9494, offset: 0x5C14CB, size: 0x8, addend: 0x0, symName: __ZNK19JoltPhysicsServer3D29_generic_6dof_joint_get_paramERKN5godot3RIDENS0_7Vector34AxisENS0_15PhysicsServer3D19G6DOFJointAxisParamE, symObjAddr: 0x263A4, symBinAddr: 0x1F3A50, symSize: 0x1E0 }
  - { offsetInCU: 0xD97D7, offset: 0x5C180E, size: 0x8, addend: 0x0, symName: __ZN19JoltPhysicsServer3D28_generic_6dof_joint_set_flagERKN5godot3RIDENS0_7Vector34AxisENS0_15PhysicsServer3D18G6DOFJointAxisFlagEb, symObjAddr: 0x26584, symBinAddr: 0xFFBF8, symSize: 0x1F4 }
  - { offsetInCU: 0xD9B39, offset: 0x5C1B70, size: 0x8, addend: 0x0, symName: __ZNK19JoltPhysicsServer3D28_generic_6dof_joint_get_flagERKN5godot3RIDENS0_7Vector34AxisENS0_15PhysicsServer3D18G6DOFJointAxisFlagE, symObjAddr: 0x26778, symBinAddr: 0x1F3EC4, symSize: 0x1E0 }
  - { offsetInCU: 0xD9E7C, offset: 0x5C1EB3, size: 0x8, addend: 0x0, symName: __ZNK19JoltPhysicsServer3D15_joint_get_typeERKN5godot3RIDE, symObjAddr: 0x26958, symBinAddr: 0xFFFFC, symSize: 0x18C }
  - { offsetInCU: 0xDA14B, offset: 0x5C2182, size: 0x8, addend: 0x0, symName: __ZN19JoltPhysicsServer3D26_joint_set_solver_priorityERKN5godot3RIDEi, symObjAddr: 0x26AE4, symBinAddr: 0x1F42F8, symSize: 0x184 }
  - { offsetInCU: 0xDA421, offset: 0x5C2458, size: 0x8, addend: 0x0, symName: __ZNK19JoltPhysicsServer3D26_joint_get_solver_priorityERKN5godot3RIDE, symObjAddr: 0x26C68, symBinAddr: 0x100608, symSize: 0x188 }
  - { offsetInCU: 0xDA6E4, offset: 0x5C271B, size: 0x8, addend: 0x0, symName: __ZN19JoltPhysicsServer3D40_joint_disable_collisions_between_bodiesERKN5godot3RIDEb, symObjAddr: 0x26DF0, symBinAddr: 0x1F47D0, symSize: 0x184 }
  - { offsetInCU: 0xDA9D0, offset: 0x5C2A07, size: 0x8, addend: 0x0, symName: __ZNK19JoltPhysicsServer3D44_joint_is_disabled_collisions_between_bodiesERKN5godot3RIDE, symObjAddr: 0x26F74, symBinAddr: 0x1009E0, symSize: 0x190 }
  - { offsetInCU: 0xDBB13, offset: 0x5C3B4A, size: 0x8, addend: 0x0, symName: __ZN19JoltPhysicsServer3D9_free_ridERKN5godot3RIDE, symObjAddr: 0x27104, symBinAddr: 0x1F4C84, symSize: 0x1528 }
  - { offsetInCU: 0xDF6D9, offset: 0x5C7710, size: 0x8, addend: 0x0, symName: __ZNSt3__112__hash_tableINS_17__hash_value_typeIxP14JoltAreaImpl3DEENS_22__unordered_map_hasherIxS4_N7HashMapIxS3_N5godot20HashMapHasherDefaultENS7_24HashMapComparatorDefaultIxEEE6HasherENSB_10ComparatorELb1EEENS_21__unordered_map_equalIxS4_SD_SC_Lb1EEENS_9allocatorIS4_EEE14__erase_uniqueIxEEmRKT_, symObjAddr: 0x38DC8, symBinAddr: 0x21589C, symSize: 0x1F0 }
  - { offsetInCU: 0xDF722, offset: 0x5C7759, size: 0x8, addend: 0x0, symName: __ZNSt3__112__hash_tableINS_17__hash_value_typeIxP14JoltAreaImpl3DEENS_22__unordered_map_hasherIxS4_N7HashMapIxS3_N5godot20HashMapHasherDefaultENS7_24HashMapComparatorDefaultIxEEE6HasherENSB_10ComparatorELb1EEENS_21__unordered_map_equalIxS4_SD_SC_Lb1EEENS_9allocatorIS4_EEE14__erase_uniqueIxEEmRKT_, symObjAddr: 0x38DC8, symBinAddr: 0x21589C, symSize: 0x1F0 }
  - { offsetInCU: 0xDF750, offset: 0x5C7787, size: 0x8, addend: 0x0, symName: __ZNSt3__112__hash_tableINS_17__hash_value_typeIxP14JoltAreaImpl3DEENS_22__unordered_map_hasherIxS4_N7HashMapIxS3_N5godot20HashMapHasherDefaultENS7_24HashMapComparatorDefaultIxEEE6HasherENSB_10ComparatorELb1EEENS_21__unordered_map_equalIxS4_SD_SC_Lb1EEENS_9allocatorIS4_EEE14__erase_uniqueIxEEmRKT_, symObjAddr: 0x38DC8, symBinAddr: 0x21589C, symSize: 0x1F0 }
  - { offsetInCU: 0xDF76C, offset: 0x5C77A3, size: 0x8, addend: 0x0, symName: __ZNSt3__112__hash_tableINS_17__hash_value_typeIxP14JoltAreaImpl3DEENS_22__unordered_map_hasherIxS4_N7HashMapIxS3_N5godot20HashMapHasherDefaultENS7_24HashMapComparatorDefaultIxEEE6HasherENSB_10ComparatorELb1EEENS_21__unordered_map_equalIxS4_SD_SC_Lb1EEENS_9allocatorIS4_EEE14__erase_uniqueIxEEmRKT_, symObjAddr: 0x38DC8, symBinAddr: 0x21589C, symSize: 0x1F0 }
  - { offsetInCU: 0xDFB1E, offset: 0x5C7B55, size: 0x8, addend: 0x0, symName: __ZN19JoltPhysicsServer3D11_set_activeEb, symObjAddr: 0x2862C, symBinAddr: 0x100CBC, symSize: 0x8 }
  - { offsetInCU: 0xDFB69, offset: 0x5C7BA0, size: 0x8, addend: 0x0, symName: __ZN19JoltPhysicsServer3D5_initEv, symObjAddr: 0x28634, symBinAddr: 0x1F68F4, symSize: 0x34 }
  - { offsetInCU: 0xDFBBE, offset: 0x5C7BF5, size: 0x8, addend: 0x0, symName: __ZN19JoltPhysicsServer3D5_stepEd, symObjAddr: 0x28668, symBinAddr: 0x100F00, symSize: 0x54 }
  - { offsetInCU: 0xDFC51, offset: 0x5C7C88, size: 0x8, addend: 0x0, symName: __ZN19JoltPhysicsServer3D14_flush_queriesEv, symObjAddr: 0x286BC, symBinAddr: 0x1F6F08, symSize: 0x58 }
  - { offsetInCU: 0xDFDE9, offset: 0x5C7E20, size: 0x8, addend: 0x0, symName: __ZN19JoltPhysicsServer3D7_finishEv, symObjAddr: 0x28714, symBinAddr: 0x1010E4, symSize: 0x128 }
  - { offsetInCU: 0xDFFF0, offset: 0x5C8027, size: 0x8, addend: 0x0, symName: __ZNK19JoltPhysicsServer3D20_is_flushing_queriesEv, symObjAddr: 0x2883C, symBinAddr: 0x1F7278, symSize: 0x8 }
  - { offsetInCU: 0xE001B, offset: 0x5C8052, size: 0x8, addend: 0x0, symName: __ZN19JoltPhysicsServer3D17_get_process_infoEN5godot15PhysicsServer3D11ProcessInfoE, symObjAddr: 0x28844, symBinAddr: 0x1012F0, symSize: 0x8 }
  - { offsetInCU: 0xE004F, offset: 0x5C8086, size: 0x8, addend: 0x0, symName: __ZNK19JoltPhysicsServer3D23_get_bindings_callbacksEv, symObjAddr: 0x28900, symBinAddr: 0x1013DC, symSize: 0xC }
  - { offsetInCU: 0xE0076, offset: 0x5C80AD, size: 0x8, addend: 0x0, symName: __ZN19JoltPhysicsServer3D14_notificationvEib, symObjAddr: 0x2890C, symBinAddr: 0x1F8030, symSize: 0x4 }
  - { offsetInCU: 0xE00BE, offset: 0x5C80F5, size: 0x8, addend: 0x0, symName: __ZN19JoltPhysicsServer3D5_syncEv, symObjAddr: 0x28910, symBinAddr: 0x1014CC, symSize: 0x4 }
  - { offsetInCU: 0xE00E3, offset: 0x5C811A, size: 0x8, addend: 0x0, symName: __ZN19JoltPhysicsServer3D9_end_syncEv, symObjAddr: 0x28914, symBinAddr: 0x1F84F8, symSize: 0x4 }
  - { offsetInCU: 0xE0108, offset: 0x5C813F, size: 0x8, addend: 0x0, symName: __ZNK5godot11MethodBindTIJRKNS_6StringEEE17gen_argument_typeEi, symObjAddr: 0x28918, symBinAddr: 0x101570, symSize: 0x10 }
  - { offsetInCU: 0xE0169, offset: 0x5C81A0, size: 0x8, addend: 0x0, symName: __ZNK5godot11MethodBindTIJRKNS_6StringEEE22gen_argument_type_infoEi, symObjAddr: 0x28928, symBinAddr: 0x1F8764, symSize: 0x1B8 }
  - { offsetInCU: 0xE0734, offset: 0x5C876B, size: 0x8, addend: 0x0, symName: __ZNK5godot11MethodBindTIJRKNS_6StringEEE21get_argument_metadataEi, symObjAddr: 0x28AE0, symBinAddr: 0x101664, symSize: 0x8 }
  - { offsetInCU: 0xE082F, offset: 0x5C8866, size: 0x8, addend: 0x0, symName: __ZNK5godot11MethodBindTIJRKNS_6StringEEE4callEPvPKPKvxR20GDExtensionCallError, symObjAddr: 0x28AE8, symBinAddr: 0x1F8DE0, symSize: 0x288 }
  - { offsetInCU: 0xE0D95, offset: 0x5C8DCC, size: 0x8, addend: 0x0, symName: __ZNK5godot11MethodBindTIJRKNS_6StringEEE7ptrcallEPvPKPKvS5_, symObjAddr: 0x28D70, symBinAddr: 0x101710, symSize: 0xA0 }
  - { offsetInCU: 0xE0F64, offset: 0x5C8F9B, size: 0x8, addend: 0x0, symName: __ZN5godot11MethodBindTIJRKNS_6StringEEED1Ev, symObjAddr: 0x28E10, symBinAddr: 0x1F92E8, symSize: 0xE0 }
  - { offsetInCU: 0xE1452, offset: 0x5C9489, size: 0x8, addend: 0x0, symName: __ZN5godot11MethodBindTIJRKNS_6StringEEED0Ev, symObjAddr: 0x28EF0, symBinAddr: 0x1F9550, symSize: 0xE0 }
  - { offsetInCU: 0xE1954, offset: 0x5C998B, size: 0x8, addend: 0x0, symName: __ZNK5godot11MethodBindTIJRKNS_3RIDERKNS_6StringEEE17gen_argument_typeEi, symObjAddr: 0x29218, symBinAddr: 0x101B24, symSize: 0x24 }
  - { offsetInCU: 0xE1993, offset: 0x5C99CA, size: 0x8, addend: 0x0, symName: __ZNK5godot11MethodBindTIJRKNS_3RIDERKNS_6StringEEE22gen_argument_type_infoEi, symObjAddr: 0x2923C, symBinAddr: 0x1F9BF4, symSize: 0x1B8 }
  - { offsetInCU: 0xE1F6D, offset: 0x5C9FA4, size: 0x8, addend: 0x0, symName: __ZNK5godot11MethodBindTIJRKNS_3RIDERKNS_6StringEEE21get_argument_metadataEi, symObjAddr: 0x293F4, symBinAddr: 0x101C3C, symSize: 0x8 }
  - { offsetInCU: 0xE2033, offset: 0x5CA06A, size: 0x8, addend: 0x0, symName: __ZNK5godot11MethodBindTIJRKNS_3RIDERKNS_6StringEEE4callEPvPKPKvxR20GDExtensionCallError, symObjAddr: 0x293FC, symBinAddr: 0x1FA100, symSize: 0x3F0 }
  - { offsetInCU: 0xE2943, offset: 0x5CA97A, size: 0x8, addend: 0x0, symName: __ZNK5godot11MethodBindTIJRKNS_3RIDERKNS_6StringEEE7ptrcallEPvPKPKvS8_, symObjAddr: 0x297EC, symBinAddr: 0x101C68, symSize: 0xC8 }
  - { offsetInCU: 0xE2BB1, offset: 0x5CABE8, size: 0x8, addend: 0x0, symName: __ZN5godot11MethodBindTIJRKNS_3RIDERKNS_6StringEEED1Ev, symObjAddr: 0x298B4, symBinAddr: 0x1FA8AC, symSize: 0xE0 }
  - { offsetInCU: 0xE309F, offset: 0x5CB0D6, size: 0x8, addend: 0x0, symName: __ZN5godot11MethodBindTIJRKNS_3RIDERKNS_6StringEEED0Ev, symObjAddr: 0x29994, symBinAddr: 0x101D4C, symSize: 0xE0 }
  - { offsetInCU: 0xE35A1, offset: 0x5CB5D8, size: 0x8, addend: 0x0, symName: __ZNK5godot13MethodBindTRCIbJRKNS_3RIDEEE17gen_argument_typeEi, symObjAddr: 0x29CBC, symBinAddr: 0x102010, symSize: 0x10 }
  - { offsetInCU: 0xE35DB, offset: 0x5CB612, size: 0x8, addend: 0x0, symName: __ZNK5godot13MethodBindTRCIbJRKNS_3RIDEEE22gen_argument_type_infoEi, symObjAddr: 0x29CCC, symBinAddr: 0x1FB54C, symSize: 0x250 }
  - { offsetInCU: 0xE3D5B, offset: 0x5CBD92, size: 0x8, addend: 0x0, symName: __ZNK5godot13MethodBindTRCIbJRKNS_3RIDEEE21get_argument_metadataEi, symObjAddr: 0x29F1C, symBinAddr: 0x10216C, symSize: 0x8 }
  - { offsetInCU: 0xE3D8B, offset: 0x5CBDC2, size: 0x8, addend: 0x0, symName: __ZNK5godot13MethodBindTRCIbJRKNS_3RIDEEE4callEPvPKPKvxR20GDExtensionCallError, symObjAddr: 0x29F24, symBinAddr: 0x1FB8BC, symSize: 0x2AC }
  - { offsetInCU: 0xE439C, offset: 0x5CC3D3, size: 0x8, addend: 0x0, symName: __ZNK5godot13MethodBindTRCIbJRKNS_3RIDEEE7ptrcallEPvPKPKvS5_, symObjAddr: 0x2A1D0, symBinAddr: 0x1023D8, symSize: 0x98 }
  - { offsetInCU: 0xE4530, offset: 0x5CC567, size: 0x8, addend: 0x0, symName: __ZN5godot13MethodBindTRCIbJRKNS_3RIDEEED1Ev, symObjAddr: 0x2A268, symBinAddr: 0x1FBFAC, symSize: 0xE0 }
  - { offsetInCU: 0xE4A1E, offset: 0x5CCA55, size: 0x8, addend: 0x0, symName: __ZN5godot13MethodBindTRCIbJRKNS_3RIDEEED0Ev, symObjAddr: 0x2A348, symBinAddr: 0x1027B0, symSize: 0xE0 }
  - { offsetInCU: 0xE4F19, offset: 0x5CCF50, size: 0x8, addend: 0x0, symName: __ZNK5godot11MethodBindTIJRKNS_3RIDEbEE17gen_argument_typeEi, symObjAddr: 0x2A428, symBinAddr: 0x1FC40C, symSize: 0x20 }
  - { offsetInCU: 0xE4F4C, offset: 0x5CCF83, size: 0x8, addend: 0x0, symName: __ZNK5godot11MethodBindTIJRKNS_3RIDEbEE22gen_argument_type_infoEi, symObjAddr: 0x2A448, symBinAddr: 0x102B24, symSize: 0x1B8 }
  - { offsetInCU: 0xE5518, offset: 0x5CD54F, size: 0x8, addend: 0x0, symName: __ZNK5godot11MethodBindTIJRKNS_3RIDEbEE21get_argument_metadataEi, symObjAddr: 0x2A600, symBinAddr: 0x1FCA20, symSize: 0x8 }
  - { offsetInCU: 0xE5599, offset: 0x5CD5D0, size: 0x8, addend: 0x0, symName: __ZNK5godot11MethodBindTIJRKNS_3RIDEbEE4callEPvPKPKvxR20GDExtensionCallError, symObjAddr: 0x2A608, symBinAddr: 0x102E2C, symSize: 0x3E0 }
  - { offsetInCU: 0xE5E35, offset: 0x5CDE6C, size: 0x8, addend: 0x0, symName: __ZNK5godot11MethodBindTIJRKNS_3RIDEbEE7ptrcallEPvPKPKvS5_, symObjAddr: 0x2A9E8, symBinAddr: 0x1FCBAC, symSize: 0xA4 }
  - { offsetInCU: 0xE5FCD, offset: 0x5CE004, size: 0x8, addend: 0x0, symName: __ZN5godot11MethodBindTIJRKNS_3RIDEbEED1Ev, symObjAddr: 0x2AA8C, symBinAddr: 0x1032C8, symSize: 0xE0 }
  - { offsetInCU: 0xE64BB, offset: 0x5CE4F2, size: 0x8, addend: 0x0, symName: __ZN5godot11MethodBindTIJRKNS_3RIDEbEED0Ev, symObjAddr: 0x2AB6C, symBinAddr: 0x1FCD78, symSize: 0xE0 }
  - { offsetInCU: 0xE6A18, offset: 0x5CEA4F, size: 0x8, addend: 0x0, symName: __ZNK5godot12MethodBindTRIiJRKNS_3RIDEEE17gen_argument_typeEi, symObjAddr: 0x2AEE0, symBinAddr: 0x1FD098, symSize: 0x14 }
  - { offsetInCU: 0xE6A52, offset: 0x5CEA89, size: 0x8, addend: 0x0, symName: __ZNK5godot12MethodBindTRIiJRKNS_3RIDEEE22gen_argument_type_infoEi, symObjAddr: 0x2AEF4, symBinAddr: 0x103858, symSize: 0x250 }
  - { offsetInCU: 0xE71D2, offset: 0x5CF209, size: 0x8, addend: 0x0, symName: __ZNK5godot12MethodBindTRIiJRKNS_3RIDEEE21get_argument_metadataEi, symObjAddr: 0x2B144, symBinAddr: 0x1FDB7C, symSize: 0xC }
  - { offsetInCU: 0xE722B, offset: 0x5CF262, size: 0x8, addend: 0x0, symName: __ZNK5godot12MethodBindTRIiJRKNS_3RIDEEE4callEPvPKPKvxR20GDExtensionCallError, symObjAddr: 0x2B150, symBinAddr: 0x103CB8, symSize: 0x2B0 }
  - { offsetInCU: 0xE787C, offset: 0x5CF8B3, size: 0x8, addend: 0x0, symName: __ZNK5godot12MethodBindTRIiJRKNS_3RIDEEE7ptrcallEPvPKPKvS5_, symObjAddr: 0x2B400, symBinAddr: 0x1FDCDC, symSize: 0x9C }
  - { offsetInCU: 0xE7A17, offset: 0x5CFA4E, size: 0x8, addend: 0x0, symName: __ZN5godot12MethodBindTRIiJRKNS_3RIDEEED1Ev, symObjAddr: 0x2B49C, symBinAddr: 0x1042E8, symSize: 0xE0 }
  - { offsetInCU: 0xE7F05, offset: 0x5CFF3C, size: 0x8, addend: 0x0, symName: __ZN5godot12MethodBindTRIiJRKNS_3RIDEEED0Ev, symObjAddr: 0x2B57C, symBinAddr: 0x1FDFBC, symSize: 0xE0 }
  - { offsetInCU: 0xE8462, offset: 0x5D0499, size: 0x8, addend: 0x0, symName: __ZNK5godot11MethodBindTIJRKNS_3RIDEiEE17gen_argument_typeEi, symObjAddr: 0x2B90C, symBinAddr: 0x104A74, symSize: 0x24 }
  - { offsetInCU: 0xE8495, offset: 0x5D04CC, size: 0x8, addend: 0x0, symName: __ZNK5godot11MethodBindTIJRKNS_3RIDEiEE22gen_argument_type_infoEi, symObjAddr: 0x2B930, symBinAddr: 0x104AE0, symSize: 0x1B8 }
  - { offsetInCU: 0xE8A66, offset: 0x5D0A9D, size: 0x8, addend: 0x0, symName: __ZNK5godot11MethodBindTIJRKNS_3RIDEiEE21get_argument_metadataEi, symObjAddr: 0x2BAE8, symBinAddr: 0x1FE7DC, symSize: 0x10 }
  - { offsetInCU: 0xE8A9C, offset: 0x5D0AD3, size: 0x8, addend: 0x0, symName: __ZNK5godot11MethodBindTIJRKNS_3RIDEiEE21get_argument_metadataEi, symObjAddr: 0x2BAE8, symBinAddr: 0x1FE7DC, symSize: 0x10 }
  - { offsetInCU: 0xE8AD2, offset: 0x5D0B09, size: 0x8, addend: 0x0, symName: __ZNK5godot11MethodBindTIJRKNS_3RIDEiEE21get_argument_metadataEi, symObjAddr: 0x2BAE8, symBinAddr: 0x1FE7DC, symSize: 0x10 }
  - { offsetInCU: 0xE8B3F, offset: 0x5D0B76, size: 0x8, addend: 0x0, symName: __ZNK5godot11MethodBindTIJRKNS_3RIDEiEE4callEPvPKPKvxR20GDExtensionCallError, symObjAddr: 0x2BAF8, symBinAddr: 0x104DE8, symSize: 0x3DC }
  - { offsetInCU: 0xE93F9, offset: 0x5D1430, size: 0x8, addend: 0x0, symName: __ZNK5godot11MethodBindTIJRKNS_3RIDEiEE7ptrcallEPvPKPKvS5_, symObjAddr: 0x2BED4, symBinAddr: 0x1FEC04, symSize: 0x9C }
  - { offsetInCU: 0xE958F, offset: 0x5D15C6, size: 0x8, addend: 0x0, symName: __ZN5godot11MethodBindTIJRKNS_3RIDEiEED1Ev, symObjAddr: 0x2BF70, symBinAddr: 0x105280, symSize: 0xE0 }
  - { offsetInCU: 0xE9A7D, offset: 0x5D1AB4, size: 0x8, addend: 0x0, symName: __ZN5godot11MethodBindTIJRKNS_3RIDEiEED0Ev, symObjAddr: 0x2C050, symBinAddr: 0x79384, symSize: 0xE0 }
  - { offsetInCU: 0xE9FDA, offset: 0x5D2011, size: 0x8, addend: 0x0, symName: __ZNK5godot12MethodBindTRIfJRKNS_3RIDEEE17gen_argument_typeEi, symObjAddr: 0x2C3C4, symBinAddr: 0x1FEDC4, symSize: 0x14 }
  - { offsetInCU: 0xEA014, offset: 0x5D204B, size: 0x8, addend: 0x0, symName: __ZNK5godot12MethodBindTRIfJRKNS_3RIDEEE22gen_argument_type_infoEi, symObjAddr: 0x2C3D8, symBinAddr: 0x105810, symSize: 0x250 }
  - { offsetInCU: 0xEA794, offset: 0x5D27CB, size: 0x8, addend: 0x0, symName: __ZNK5godot12MethodBindTRIfJRKNS_3RIDEEE21get_argument_metadataEi, symObjAddr: 0x2C628, symBinAddr: 0x1FF294, symSize: 0xC }
  - { offsetInCU: 0xEA7ED, offset: 0x5D2824, size: 0x8, addend: 0x0, symName: __ZNK5godot12MethodBindTRIfJRKNS_3RIDEEE4callEPvPKPKvxR20GDExtensionCallError, symObjAddr: 0x2C634, symBinAddr: 0x105C70, symSize: 0x2B0 }
  - { offsetInCU: 0xEAE3D, offset: 0x5D2E74, size: 0x8, addend: 0x0, symName: __ZNK5godot12MethodBindTRIfJRKNS_3RIDEEE7ptrcallEPvPKPKvS5_, symObjAddr: 0x2C8E4, symBinAddr: 0x39B98, symSize: 0x9C }
  - { offsetInCU: 0xEAFDA, offset: 0x5D3011, size: 0x8, addend: 0x0, symName: __ZN5godot12MethodBindTRIfJRKNS_3RIDEEED1Ev, symObjAddr: 0x2C980, symBinAddr: 0x1062A0, symSize: 0xE0 }
  - { offsetInCU: 0xEB4C8, offset: 0x5D34FF, size: 0x8, addend: 0x0, symName: __ZN5godot12MethodBindTRIfJRKNS_3RIDEEED0Ev, symObjAddr: 0x2CA60, symBinAddr: 0x1FF2A0, symSize: 0xE0 }
  - { offsetInCU: 0xEB9C3, offset: 0x5D39FA, size: 0x8, addend: 0x0, symName: __ZNK5godot13MethodBindTRCIdJRKNS_3RIDEN19JoltPhysicsServer3D19HingeJointParamJoltEEE17gen_argument_typeEi, symObjAddr: 0x2CB40, symBinAddr: 0x1065D0, symSize: 0x28 }
  - { offsetInCU: 0xEB9FD, offset: 0x5D3A34, size: 0x8, addend: 0x0, symName: __ZNK5godot13MethodBindTRCIdJRKNS_3RIDEN19JoltPhysicsServer3D19HingeJointParamJoltEEE22gen_argument_type_infoEi, symObjAddr: 0x2CB68, symBinAddr: 0x39C34, symSize: 0x254 }
  - { offsetInCU: 0xEC18C, offset: 0x5D41C3, size: 0x8, addend: 0x0, symName: __ZNK5godot13MethodBindTRCIdJRKNS_3RIDEN19JoltPhysicsServer3D19HingeJointParamJoltEEE21get_argument_metadataEi, symObjAddr: 0x2CDBC, symBinAddr: 0x1068E4, symSize: 0xC }
  - { offsetInCU: 0xEC210, offset: 0x5D4247, size: 0x8, addend: 0x0, symName: __ZNK5godot13MethodBindTRCIdJRKNS_3RIDEN19JoltPhysicsServer3D19HingeJointParamJoltEEE4callEPvPKPKvxR20GDExtensionCallError, symObjAddr: 0x2CDC8, symBinAddr: 0x200054, symSize: 0x41C }
  - { offsetInCU: 0xECBD1, offset: 0x5D4C08, size: 0x8, addend: 0x0, symName: __ZNK5godot13MethodBindTRCIdJRKNS_3RIDEN19JoltPhysicsServer3D19HingeJointParamJoltEEE7ptrcallEPvPKPKvS7_, symObjAddr: 0x2D1E4, symBinAddr: 0x106A6C, symSize: 0xA4 }
  - { offsetInCU: 0xECD8A, offset: 0x5D4DC1, size: 0x8, addend: 0x0, symName: __ZN5godot13MethodBindTRCIdJRKNS_3RIDEN19JoltPhysicsServer3D19HingeJointParamJoltEEED1Ev, symObjAddr: 0x2D288, symBinAddr: 0x200C6C, symSize: 0xE0 }
  - { offsetInCU: 0xED278, offset: 0x5D52AF, size: 0x8, addend: 0x0, symName: __ZN5godot13MethodBindTRCIdJRKNS_3RIDEN19JoltPhysicsServer3D19HingeJointParamJoltEEED0Ev, symObjAddr: 0x2D368, symBinAddr: 0x106D74, symSize: 0xE0 }
  - { offsetInCU: 0xED784, offset: 0x5D57BB, size: 0x8, addend: 0x0, symName: __ZNK5godot11MethodBindTIJRKNS_3RIDEN19JoltPhysicsServer3D19HingeJointParamJoltEdEE17gen_argument_typeEi, symObjAddr: 0x2D6D8, symBinAddr: 0x107194, symSize: 0x2C }
  - { offsetInCU: 0xED7BA, offset: 0x5D57F1, size: 0x8, addend: 0x0, symName: __ZNK5godot11MethodBindTIJRKNS_3RIDEN19JoltPhysicsServer3D19HingeJointParamJoltEdEE17gen_argument_typeEi, symObjAddr: 0x2D6D8, symBinAddr: 0x107194, symSize: 0x2C }
  - { offsetInCU: 0xED7F0, offset: 0x5D5827, size: 0x8, addend: 0x0, symName: __ZNK5godot11MethodBindTIJRKNS_3RIDEN19JoltPhysicsServer3D19HingeJointParamJoltEdEE17gen_argument_typeEi, symObjAddr: 0x2D6D8, symBinAddr: 0x107194, symSize: 0x2C }
  - { offsetInCU: 0xED848, offset: 0x5D587F, size: 0x8, addend: 0x0, symName: __ZNK5godot11MethodBindTIJRKNS_3RIDEN19JoltPhysicsServer3D19HingeJointParamJoltEdEE22gen_argument_type_infoEi, symObjAddr: 0x2D704, symBinAddr: 0x2019A8, symSize: 0x1C8 }
  - { offsetInCU: 0xEDE22, offset: 0x5D5E59, size: 0x8, addend: 0x0, symName: __ZNK5godot11MethodBindTIJRKNS_3RIDEN19JoltPhysicsServer3D19HingeJointParamJoltEdEE21get_argument_metadataEi, symObjAddr: 0x2D8CC, symBinAddr: 0x1073D4, symSize: 0x10 }
  - { offsetInCU: 0xEDE58, offset: 0x5D5E8F, size: 0x8, addend: 0x0, symName: __ZNK5godot11MethodBindTIJRKNS_3RIDEN19JoltPhysicsServer3D19HingeJointParamJoltEdEE21get_argument_metadataEi, symObjAddr: 0x2D8CC, symBinAddr: 0x1073D4, symSize: 0x10 }
  - { offsetInCU: 0xEDE8E, offset: 0x5D5EC5, size: 0x8, addend: 0x0, symName: __ZNK5godot11MethodBindTIJRKNS_3RIDEN19JoltPhysicsServer3D19HingeJointParamJoltEdEE21get_argument_metadataEi, symObjAddr: 0x2D8CC, symBinAddr: 0x1073D4, symSize: 0x10 }
  - { offsetInCU: 0xEDF40, offset: 0x5D5F77, size: 0x8, addend: 0x0, symName: __ZNK5godot11MethodBindTIJRKNS_3RIDEN19JoltPhysicsServer3D19HingeJointParamJoltEdEE4callEPvPKPKvxR20GDExtensionCallError, symObjAddr: 0x2D8DC, symBinAddr: 0x1FF380, symSize: 0x554 }
  - { offsetInCU: 0xEEB45, offset: 0x5D6B7C, size: 0x8, addend: 0x0, symName: __ZNK5godot11MethodBindTIJRKNS_3RIDEN19JoltPhysicsServer3D19HingeJointParamJoltEdEE7ptrcallEPvPKPKvS7_, symObjAddr: 0x2DE30, symBinAddr: 0x1074C8, symSize: 0xA0 }
  - { offsetInCU: 0xEECF8, offset: 0x5D6D2F, size: 0x8, addend: 0x0, symName: __ZN5godot11MethodBindTIJRKNS_3RIDEN19JoltPhysicsServer3D19HingeJointParamJoltEdEED1Ev, symObjAddr: 0x2DED0, symBinAddr: 0x1FF8D4, symSize: 0xE0 }
  - { offsetInCU: 0xEF1E6, offset: 0x5D721D, size: 0x8, addend: 0x0, symName: __ZN5godot11MethodBindTIJRKNS_3RIDEN19JoltPhysicsServer3D19HingeJointParamJoltEdEED0Ev, symObjAddr: 0x2DFB0, symBinAddr: 0x10764C, symSize: 0xE0 }
  - { offsetInCU: 0xEF6E1, offset: 0x5D7718, size: 0x8, addend: 0x0, symName: __ZNK5godot13MethodBindTRCIbJRKNS_3RIDEN19JoltPhysicsServer3D18HingeJointFlagJoltEEE17gen_argument_typeEi, symObjAddr: 0x2E090, symBinAddr: 0x202B20, symSize: 0x20 }
  - { offsetInCU: 0xEF714, offset: 0x5D774B, size: 0x8, addend: 0x0, symName: __ZNK5godot13MethodBindTRCIbJRKNS_3RIDEN19JoltPhysicsServer3D18HingeJointFlagJoltEEE22gen_argument_type_infoEi, symObjAddr: 0x2E0B0, symBinAddr: 0x107810, symSize: 0x254 }
  - { offsetInCU: 0xEFEA3, offset: 0x5D7EDA, size: 0x8, addend: 0x0, symName: __ZNK5godot13MethodBindTRCIbJRKNS_3RIDEN19JoltPhysicsServer3D18HingeJointFlagJoltEEE21get_argument_metadataEi, symObjAddr: 0x2E304, symBinAddr: 0x107AB0, symSize: 0x8 }
  - { offsetInCU: 0xEFF24, offset: 0x5D7F5B, size: 0x8, addend: 0x0, symName: __ZNK5godot13MethodBindTRCIbJRKNS_3RIDEN19JoltPhysicsServer3D18HingeJointFlagJoltEEE4callEPvPKPKvxR20GDExtensionCallError, symObjAddr: 0x2E30C, symBinAddr: 0x107C4C, symSize: 0x418 }
  - { offsetInCU: 0xF08AD, offset: 0x5D88E4, size: 0x8, addend: 0x0, symName: __ZNK5godot13MethodBindTRCIbJRKNS_3RIDEN19JoltPhysicsServer3D18HingeJointFlagJoltEEE7ptrcallEPvPKPKvS7_, symObjAddr: 0x2E724, symBinAddr: 0x224C4, symSize: 0xA4 }
  - { offsetInCU: 0xF0A5E, offset: 0x5D8A95, size: 0x8, addend: 0x0, symName: __ZN5godot13MethodBindTRCIbJRKNS_3RIDEN19JoltPhysicsServer3D18HingeJointFlagJoltEEED1Ev, symObjAddr: 0x2E7C8, symBinAddr: 0x17F0C, symSize: 0xE0 }
  - { offsetInCU: 0xF0F4C, offset: 0x5D8F83, size: 0x8, addend: 0x0, symName: __ZN5godot13MethodBindTRCIbJRKNS_3RIDEN19JoltPhysicsServer3D18HingeJointFlagJoltEEED0Ev, symObjAddr: 0x2E8A8, symBinAddr: 0x1084B4, symSize: 0xE0 }
  - { offsetInCU: 0xF1447, offset: 0x5D947E, size: 0x8, addend: 0x0, symName: __ZNK5godot11MethodBindTIJRKNS_3RIDEN19JoltPhysicsServer3D18HingeJointFlagJoltEbEE17gen_argument_typeEi, symObjAddr: 0x2EC18, symBinAddr: 0x203998, symSize: 0x28 }
  - { offsetInCU: 0xF147D, offset: 0x5D94B4, size: 0x8, addend: 0x0, symName: __ZNK5godot11MethodBindTIJRKNS_3RIDEN19JoltPhysicsServer3D18HingeJointFlagJoltEbEE17gen_argument_typeEi, symObjAddr: 0x2EC18, symBinAddr: 0x203998, symSize: 0x28 }
  - { offsetInCU: 0xF14B3, offset: 0x5D94EA, size: 0x8, addend: 0x0, symName: __ZNK5godot11MethodBindTIJRKNS_3RIDEN19JoltPhysicsServer3D18HingeJointFlagJoltEbEE17gen_argument_typeEi, symObjAddr: 0x2EC18, symBinAddr: 0x203998, symSize: 0x28 }
  - { offsetInCU: 0xF150B, offset: 0x5D9542, size: 0x8, addend: 0x0, symName: __ZNK5godot11MethodBindTIJRKNS_3RIDEN19JoltPhysicsServer3D18HingeJointFlagJoltEbEE22gen_argument_type_infoEi, symObjAddr: 0x2EC40, symBinAddr: 0x1082E0, symSize: 0x1C8 }
  - { offsetInCU: 0xF1AE5, offset: 0x5D9B1C, size: 0x8, addend: 0x0, symName: __ZNK5godot11MethodBindTIJRKNS_3RIDEN19JoltPhysicsServer3D18HingeJointFlagJoltEbEE21get_argument_metadataEi, symObjAddr: 0x2EE08, symBinAddr: 0x108594, symSize: 0x8 }
  - { offsetInCU: 0xF1B15, offset: 0x5D9B4C, size: 0x8, addend: 0x0, symName: __ZNK5godot11MethodBindTIJRKNS_3RIDEN19JoltPhysicsServer3D18HingeJointFlagJoltEbEE4callEPvPKPKvxR20GDExtensionCallError, symObjAddr: 0x2EE10, symBinAddr: 0x10859C, symSize: 0x558 }
  - { offsetInCU: 0xF2705, offset: 0x5DA73C, size: 0x8, addend: 0x0, symName: __ZNK5godot11MethodBindTIJRKNS_3RIDEN19JoltPhysicsServer3D18HingeJointFlagJoltEbEE7ptrcallEPvPKPKvS7_, symObjAddr: 0x2F368, symBinAddr: 0x108B6C, symSize: 0xA8 }
  - { offsetInCU: 0xF28B8, offset: 0x5DA8EF, size: 0x8, addend: 0x0, symName: __ZN5godot11MethodBindTIJRKNS_3RIDEN19JoltPhysicsServer3D18HingeJointFlagJoltEbEED1Ev, symObjAddr: 0x2F410, symBinAddr: 0x2044B8, symSize: 0xE0 }
  - { offsetInCU: 0xF2DA6, offset: 0x5DADDD, size: 0x8, addend: 0x0, symName: __ZN5godot11MethodBindTIJRKNS_3RIDEN19JoltPhysicsServer3D18HingeJointFlagJoltEbEED0Ev, symObjAddr: 0x2F4F0, symBinAddr: 0x2046AC, symSize: 0xE0 }
  - { offsetInCU: 0xF32A1, offset: 0x5DB2D8, size: 0x8, addend: 0x0, symName: __ZNK5godot13MethodBindTRCIdJRKNS_3RIDEN19JoltPhysicsServer3D20SliderJointParamJoltEEE17gen_argument_typeEi, symObjAddr: 0x2F5D0, symBinAddr: 0x108D10, symSize: 0x28 }
  - { offsetInCU: 0xF32D4, offset: 0x5DB30B, size: 0x8, addend: 0x0, symName: __ZNK5godot13MethodBindTRCIdJRKNS_3RIDEN19JoltPhysicsServer3D20SliderJointParamJoltEEE22gen_argument_type_infoEi, symObjAddr: 0x2F5F8, symBinAddr: 0x204C90, symSize: 0x254 }
  - { offsetInCU: 0xF3A63, offset: 0x5DBA9A, size: 0x8, addend: 0x0, symName: __ZNK5godot13MethodBindTRCIdJRKNS_3RIDEN19JoltPhysicsServer3D20SliderJointParamJoltEEE21get_argument_metadataEi, symObjAddr: 0x2F84C, symBinAddr: 0x108EE4, symSize: 0xC }
  - { offsetInCU: 0xF3AE7, offset: 0x5DBB1E, size: 0x8, addend: 0x0, symName: __ZNK5godot13MethodBindTRCIdJRKNS_3RIDEN19JoltPhysicsServer3D20SliderJointParamJoltEEE4callEPvPKPKvxR20GDExtensionCallError, symObjAddr: 0x2F858, symBinAddr: 0x205000, symSize: 0x41C }
  - { offsetInCU: 0xF4486, offset: 0x5DC4BD, size: 0x8, addend: 0x0, symName: __ZNK5godot13MethodBindTRCIdJRKNS_3RIDEN19JoltPhysicsServer3D20SliderJointParamJoltEEE7ptrcallEPvPKPKvS7_, symObjAddr: 0x2FC74, symBinAddr: 0x108FCC, symSize: 0xA4 }
  - { offsetInCU: 0xF463F, offset: 0x5DC676, size: 0x8, addend: 0x0, symName: __ZN5godot13MethodBindTRCIdJRKNS_3RIDEN19JoltPhysicsServer3D20SliderJointParamJoltEEED1Ev, symObjAddr: 0x2FD18, symBinAddr: 0x205968, symSize: 0xE0 }
  - { offsetInCU: 0xF4B2D, offset: 0x5DCB64, size: 0x8, addend: 0x0, symName: __ZN5godot13MethodBindTRCIdJRKNS_3RIDEN19JoltPhysicsServer3D20SliderJointParamJoltEEED0Ev, symObjAddr: 0x2FDF8, symBinAddr: 0x1094BC, symSize: 0xE0 }
  - { offsetInCU: 0xF5028, offset: 0x5DD05F, size: 0x8, addend: 0x0, symName: __ZNK5godot11MethodBindTIJRKNS_3RIDEN19JoltPhysicsServer3D20SliderJointParamJoltEdEE17gen_argument_typeEi, symObjAddr: 0x30168, symBinAddr: 0x109734, symSize: 0x2C }
  - { offsetInCU: 0xF505E, offset: 0x5DD095, size: 0x8, addend: 0x0, symName: __ZNK5godot11MethodBindTIJRKNS_3RIDEN19JoltPhysicsServer3D20SliderJointParamJoltEdEE17gen_argument_typeEi, symObjAddr: 0x30168, symBinAddr: 0x109734, symSize: 0x2C }
  - { offsetInCU: 0xF5094, offset: 0x5DD0CB, size: 0x8, addend: 0x0, symName: __ZNK5godot11MethodBindTIJRKNS_3RIDEN19JoltPhysicsServer3D20SliderJointParamJoltEdEE17gen_argument_typeEi, symObjAddr: 0x30168, symBinAddr: 0x109734, symSize: 0x2C }
  - { offsetInCU: 0xF50EC, offset: 0x5DD123, size: 0x8, addend: 0x0, symName: __ZNK5godot11MethodBindTIJRKNS_3RIDEN19JoltPhysicsServer3D20SliderJointParamJoltEdEE22gen_argument_type_infoEi, symObjAddr: 0x30194, symBinAddr: 0x206544, symSize: 0x1C8 }
  - { offsetInCU: 0xF56C6, offset: 0x5DD6FD, size: 0x8, addend: 0x0, symName: __ZNK5godot11MethodBindTIJRKNS_3RIDEN19JoltPhysicsServer3D20SliderJointParamJoltEdEE21get_argument_metadataEi, symObjAddr: 0x3035C, symBinAddr: 0x109A64, symSize: 0x10 }
  - { offsetInCU: 0xF56FC, offset: 0x5DD733, size: 0x8, addend: 0x0, symName: __ZNK5godot11MethodBindTIJRKNS_3RIDEN19JoltPhysicsServer3D20SliderJointParamJoltEdEE21get_argument_metadataEi, symObjAddr: 0x3035C, symBinAddr: 0x109A64, symSize: 0x10 }
  - { offsetInCU: 0xF5732, offset: 0x5DD769, size: 0x8, addend: 0x0, symName: __ZNK5godot11MethodBindTIJRKNS_3RIDEN19JoltPhysicsServer3D20SliderJointParamJoltEdEE21get_argument_metadataEi, symObjAddr: 0x3035C, symBinAddr: 0x109A64, symSize: 0x10 }
  - { offsetInCU: 0xF574E, offset: 0x5DD785, size: 0x8, addend: 0x0, symName: __ZNK5godot11MethodBindTIJRKNS_3RIDEN19JoltPhysicsServer3D20SliderJointParamJoltEdEE4callEPvPKPKvxR20GDExtensionCallError, symObjAddr: 0x3036C, symBinAddr: 0x206838, symSize: 0x554 }
  - { offsetInCU: 0xF633E, offset: 0x5DE375, size: 0x8, addend: 0x0, symName: __ZNK5godot11MethodBindTIJRKNS_3RIDEN19JoltPhysicsServer3D20SliderJointParamJoltEdEE7ptrcallEPvPKPKvS7_, symObjAddr: 0x308C0, symBinAddr: 0x109AE0, symSize: 0xA0 }
  - { offsetInCU: 0xF64F1, offset: 0x5DE528, size: 0x8, addend: 0x0, symName: __ZN5godot11MethodBindTIJRKNS_3RIDEN19JoltPhysicsServer3D20SliderJointParamJoltEdEED1Ev, symObjAddr: 0x30960, symBinAddr: 0x2073C4, symSize: 0xE0 }
  - { offsetInCU: 0xF69DF, offset: 0x5DEA16, size: 0x8, addend: 0x0, symName: __ZN5godot11MethodBindTIJRKNS_3RIDEN19JoltPhysicsServer3D20SliderJointParamJoltEdEED0Ev, symObjAddr: 0x30A40, symBinAddr: 0x109BA8, symSize: 0xE0 }
  - { offsetInCU: 0xF6EDA, offset: 0x5DEF11, size: 0x8, addend: 0x0, symName: __ZNK5godot13MethodBindTRCIbJRKNS_3RIDEN19JoltPhysicsServer3D19SliderJointFlagJoltEEE17gen_argument_typeEi, symObjAddr: 0x30B20, symBinAddr: 0x2076DC, symSize: 0x20 }
  - { offsetInCU: 0xF6F0D, offset: 0x5DEF44, size: 0x8, addend: 0x0, symName: __ZNK5godot13MethodBindTRCIbJRKNS_3RIDEN19JoltPhysicsServer3D19SliderJointFlagJoltEEE22gen_argument_type_infoEi, symObjAddr: 0x30B40, symBinAddr: 0x10A11C, symSize: 0x254 }
  - { offsetInCU: 0xF769C, offset: 0x5DF6D3, size: 0x8, addend: 0x0, symName: __ZNK5godot13MethodBindTRCIbJRKNS_3RIDEN19JoltPhysicsServer3D19SliderJointFlagJoltEEE21get_argument_metadataEi, symObjAddr: 0x30D94, symBinAddr: 0x207A98, symSize: 0x8 }
  - { offsetInCU: 0xF771D, offset: 0x5DF754, size: 0x8, addend: 0x0, symName: __ZNK5godot13MethodBindTRCIbJRKNS_3RIDEN19JoltPhysicsServer3D19SliderJointFlagJoltEEE4callEPvPKPKvxR20GDExtensionCallError, symObjAddr: 0x30D9C, symBinAddr: 0x10A804, symSize: 0x418 }
  - { offsetInCU: 0xF80A6, offset: 0x5E00DD, size: 0x8, addend: 0x0, symName: __ZNK5godot13MethodBindTRCIbJRKNS_3RIDEN19JoltPhysicsServer3D19SliderJointFlagJoltEEE7ptrcallEPvPKPKvS7_, symObjAddr: 0x311B4, symBinAddr: 0x207E4C, symSize: 0xA4 }
  - { offsetInCU: 0xF8257, offset: 0x5E028E, size: 0x8, addend: 0x0, symName: __ZN5godot13MethodBindTRCIbJRKNS_3RIDEN19JoltPhysicsServer3D19SliderJointFlagJoltEEED1Ev, symObjAddr: 0x31258, symBinAddr: 0x10AE44, symSize: 0xE0 }
  - { offsetInCU: 0xF8745, offset: 0x5E077C, size: 0x8, addend: 0x0, symName: __ZN5godot13MethodBindTRCIbJRKNS_3RIDEN19JoltPhysicsServer3D19SliderJointFlagJoltEEED0Ev, symObjAddr: 0x31338, symBinAddr: 0x208184, symSize: 0xE0 }
  - { offsetInCU: 0xF8C40, offset: 0x5E0C77, size: 0x8, addend: 0x0, symName: __ZNK5godot11MethodBindTIJRKNS_3RIDEN19JoltPhysicsServer3D19SliderJointFlagJoltEbEE17gen_argument_typeEi, symObjAddr: 0x316A8, symBinAddr: 0x208740, symSize: 0x28 }
  - { offsetInCU: 0xF8C76, offset: 0x5E0CAD, size: 0x8, addend: 0x0, symName: __ZNK5godot11MethodBindTIJRKNS_3RIDEN19JoltPhysicsServer3D19SliderJointFlagJoltEbEE17gen_argument_typeEi, symObjAddr: 0x316A8, symBinAddr: 0x208740, symSize: 0x28 }
  - { offsetInCU: 0xF8CAC, offset: 0x5E0CE3, size: 0x8, addend: 0x0, symName: __ZNK5godot11MethodBindTIJRKNS_3RIDEN19JoltPhysicsServer3D19SliderJointFlagJoltEbEE17gen_argument_typeEi, symObjAddr: 0x316A8, symBinAddr: 0x208740, symSize: 0x28 }
  - { offsetInCU: 0xF8D04, offset: 0x5E0D3B, size: 0x8, addend: 0x0, symName: __ZNK5godot11MethodBindTIJRKNS_3RIDEN19JoltPhysicsServer3D19SliderJointFlagJoltEbEE22gen_argument_type_infoEi, symObjAddr: 0x316D0, symBinAddr: 0x10B3C8, symSize: 0x1C8 }
  - { offsetInCU: 0xF92DE, offset: 0x5E1315, size: 0x8, addend: 0x0, symName: __ZNK5godot11MethodBindTIJRKNS_3RIDEN19JoltPhysicsServer3D19SliderJointFlagJoltEbEE21get_argument_metadataEi, symObjAddr: 0x31898, symBinAddr: 0x20893C, symSize: 0x8 }
  - { offsetInCU: 0xF930E, offset: 0x5E1345, size: 0x8, addend: 0x0, symName: __ZNK5godot11MethodBindTIJRKNS_3RIDEN19JoltPhysicsServer3D19SliderJointFlagJoltEbEE4callEPvPKPKvxR20GDExtensionCallError, symObjAddr: 0x318A0, symBinAddr: 0x10B74C, symSize: 0x558 }
  - { offsetInCU: 0xF9EFE, offset: 0x5E1F35, size: 0x8, addend: 0x0, symName: __ZNK5godot11MethodBindTIJRKNS_3RIDEN19JoltPhysicsServer3D19SliderJointFlagJoltEbEE7ptrcallEPvPKPKvS7_, symObjAddr: 0x31DF8, symBinAddr: 0x208FE0, symSize: 0xA8 }
  - { offsetInCU: 0xFA0B1, offset: 0x5E20E8, size: 0x8, addend: 0x0, symName: __ZN5godot11MethodBindTIJRKNS_3RIDEN19JoltPhysicsServer3D19SliderJointFlagJoltEbEED1Ev, symObjAddr: 0x31EA0, symBinAddr: 0x10BD30, symSize: 0xE0 }
  - { offsetInCU: 0xFA59F, offset: 0x5E25D6, size: 0x8, addend: 0x0, symName: __ZN5godot11MethodBindTIJRKNS_3RIDEN19JoltPhysicsServer3D19SliderJointFlagJoltEbEED0Ev, symObjAddr: 0x31F80, symBinAddr: 0x2094B8, symSize: 0xE0 }
  - { offsetInCU: 0xFAA9A, offset: 0x5E2AD1, size: 0x8, addend: 0x0, symName: __ZNK5godot13MethodBindTRCIdJRKNS_3RIDEN19JoltPhysicsServer3D23ConeTwistJointParamJoltEEE17gen_argument_typeEi, symObjAddr: 0x32060, symBinAddr: 0x10BEF0, symSize: 0x28 }
  - { offsetInCU: 0xFAACD, offset: 0x5E2B04, size: 0x8, addend: 0x0, symName: __ZNK5godot13MethodBindTRCIdJRKNS_3RIDEN19JoltPhysicsServer3D23ConeTwistJointParamJoltEEE22gen_argument_type_infoEi, symObjAddr: 0x32088, symBinAddr: 0x209A60, symSize: 0x254 }
  - { offsetInCU: 0xFB25C, offset: 0x5E3293, size: 0x8, addend: 0x0, symName: __ZNK5godot13MethodBindTRCIdJRKNS_3RIDEN19JoltPhysicsServer3D23ConeTwistJointParamJoltEEE21get_argument_metadataEi, symObjAddr: 0x322DC, symBinAddr: 0x10C17C, symSize: 0xC }
  - { offsetInCU: 0xFB2E0, offset: 0x5E3317, size: 0x8, addend: 0x0, symName: __ZNK5godot13MethodBindTRCIdJRKNS_3RIDEN19JoltPhysicsServer3D23ConeTwistJointParamJoltEEE4callEPvPKPKvxR20GDExtensionCallError, symObjAddr: 0x322E8, symBinAddr: 0x20A074, symSize: 0x41C }
  - { offsetInCU: 0xFBC7F, offset: 0x5E3CB6, size: 0x8, addend: 0x0, symName: __ZNK5godot13MethodBindTRCIdJRKNS_3RIDEN19JoltPhysicsServer3D23ConeTwistJointParamJoltEEE7ptrcallEPvPKPKvS7_, symObjAddr: 0x32704, symBinAddr: 0x10C4C8, symSize: 0xA4 }
  - { offsetInCU: 0xFBE38, offset: 0x5E3E6F, size: 0x8, addend: 0x0, symName: __ZN5godot13MethodBindTRCIdJRKNS_3RIDEN19JoltPhysicsServer3D23ConeTwistJointParamJoltEEED1Ev, symObjAddr: 0x327A8, symBinAddr: 0x20A864, symSize: 0xE0 }
  - { offsetInCU: 0xFC326, offset: 0x5E435D, size: 0x8, addend: 0x0, symName: __ZN5godot13MethodBindTRCIdJRKNS_3RIDEN19JoltPhysicsServer3D23ConeTwistJointParamJoltEEED0Ev, symObjAddr: 0x32888, symBinAddr: 0x10C930, symSize: 0xE0 }
  - { offsetInCU: 0xFC821, offset: 0x5E4858, size: 0x8, addend: 0x0, symName: __ZNK5godot11MethodBindTIJRKNS_3RIDEN19JoltPhysicsServer3D23ConeTwistJointParamJoltEdEE17gen_argument_typeEi, symObjAddr: 0x32BF8, symBinAddr: 0x10CB60, symSize: 0x2C }
  - { offsetInCU: 0xFC857, offset: 0x5E488E, size: 0x8, addend: 0x0, symName: __ZNK5godot11MethodBindTIJRKNS_3RIDEN19JoltPhysicsServer3D23ConeTwistJointParamJoltEdEE17gen_argument_typeEi, symObjAddr: 0x32BF8, symBinAddr: 0x10CB60, symSize: 0x2C }
  - { offsetInCU: 0xFC88D, offset: 0x5E48C4, size: 0x8, addend: 0x0, symName: __ZNK5godot11MethodBindTIJRKNS_3RIDEN19JoltPhysicsServer3D23ConeTwistJointParamJoltEdEE17gen_argument_typeEi, symObjAddr: 0x32BF8, symBinAddr: 0x10CB60, symSize: 0x2C }
  - { offsetInCU: 0xFC8E5, offset: 0x5E491C, size: 0x8, addend: 0x0, symName: __ZNK5godot11MethodBindTIJRKNS_3RIDEN19JoltPhysicsServer3D23ConeTwistJointParamJoltEdEE22gen_argument_type_infoEi, symObjAddr: 0x32C24, symBinAddr: 0x20B46C, symSize: 0x1C8 }
  - { offsetInCU: 0xFCEBF, offset: 0x5E4EF6, size: 0x8, addend: 0x0, symName: __ZNK5godot11MethodBindTIJRKNS_3RIDEN19JoltPhysicsServer3D23ConeTwistJointParamJoltEdEE21get_argument_metadataEi, symObjAddr: 0x32DEC, symBinAddr: 0x10CC48, symSize: 0x10 }
  - { offsetInCU: 0xFCEF5, offset: 0x5E4F2C, size: 0x8, addend: 0x0, symName: __ZNK5godot11MethodBindTIJRKNS_3RIDEN19JoltPhysicsServer3D23ConeTwistJointParamJoltEdEE21get_argument_metadataEi, symObjAddr: 0x32DEC, symBinAddr: 0x10CC48, symSize: 0x10 }
  - { offsetInCU: 0xFCF2B, offset: 0x5E4F62, size: 0x8, addend: 0x0, symName: __ZNK5godot11MethodBindTIJRKNS_3RIDEN19JoltPhysicsServer3D23ConeTwistJointParamJoltEdEE21get_argument_metadataEi, symObjAddr: 0x32DEC, symBinAddr: 0x10CC48, symSize: 0x10 }
  - { offsetInCU: 0xFCF47, offset: 0x5E4F7E, size: 0x8, addend: 0x0, symName: __ZNK5godot11MethodBindTIJRKNS_3RIDEN19JoltPhysicsServer3D23ConeTwistJointParamJoltEdEE4callEPvPKPKvxR20GDExtensionCallError, symObjAddr: 0x32DFC, symBinAddr: 0x20B808, symSize: 0x554 }
  - { offsetInCU: 0xFDB37, offset: 0x5E5B6E, size: 0x8, addend: 0x0, symName: __ZNK5godot11MethodBindTIJRKNS_3RIDEN19JoltPhysicsServer3D23ConeTwistJointParamJoltEdEE7ptrcallEPvPKPKvS7_, symObjAddr: 0x33350, symBinAddr: 0x10CCD0, symSize: 0xA0 }
  - { offsetInCU: 0xFDCEA, offset: 0x5E5D21, size: 0x8, addend: 0x0, symName: __ZN5godot11MethodBindTIJRKNS_3RIDEN19JoltPhysicsServer3D23ConeTwistJointParamJoltEdEED1Ev, symObjAddr: 0x333F0, symBinAddr: 0x20C3F8, symSize: 0xE0 }
  - { offsetInCU: 0xFE1D8, offset: 0x5E620F, size: 0x8, addend: 0x0, symName: __ZN5godot11MethodBindTIJRKNS_3RIDEN19JoltPhysicsServer3D23ConeTwistJointParamJoltEdEED0Ev, symObjAddr: 0x334D0, symBinAddr: 0x10D004, symSize: 0xE0 }
  - { offsetInCU: 0xFE6D3, offset: 0x5E670A, size: 0x8, addend: 0x0, symName: __ZNK5godot13MethodBindTRCIbJRKNS_3RIDEN19JoltPhysicsServer3D22ConeTwistJointFlagJoltEEE17gen_argument_typeEi, symObjAddr: 0x335B0, symBinAddr: 0x20CA20, symSize: 0x20 }
  - { offsetInCU: 0xFE706, offset: 0x5E673D, size: 0x8, addend: 0x0, symName: __ZNK5godot13MethodBindTRCIbJRKNS_3RIDEN19JoltPhysicsServer3D22ConeTwistJointFlagJoltEEE22gen_argument_type_infoEi, symObjAddr: 0x335D0, symBinAddr: 0x10D234, symSize: 0x254 }
  - { offsetInCU: 0xFEE95, offset: 0x5E6ECC, size: 0x8, addend: 0x0, symName: __ZNK5godot13MethodBindTRCIbJRKNS_3RIDEN19JoltPhysicsServer3D22ConeTwistJointFlagJoltEEE21get_argument_metadataEi, symObjAddr: 0x33824, symBinAddr: 0x20CE58, symSize: 0x8 }
  - { offsetInCU: 0xFEF16, offset: 0x5E6F4D, size: 0x8, addend: 0x0, symName: __ZNK5godot13MethodBindTRCIbJRKNS_3RIDEN19JoltPhysicsServer3D22ConeTwistJointFlagJoltEEE4callEPvPKPKvxR20GDExtensionCallError, symObjAddr: 0x3382C, symBinAddr: 0x10D544, symSize: 0x418 }
  - { offsetInCU: 0xFF89F, offset: 0x5E78D6, size: 0x8, addend: 0x0, symName: __ZNK5godot13MethodBindTRCIbJRKNS_3RIDEN19JoltPhysicsServer3D22ConeTwistJointFlagJoltEEE7ptrcallEPvPKPKvS7_, symObjAddr: 0x33C44, symBinAddr: 0x20D28C, symSize: 0xA4 }
  - { offsetInCU: 0xFFA50, offset: 0x5E7A87, size: 0x8, addend: 0x0, symName: __ZN5godot13MethodBindTRCIbJRKNS_3RIDEN19JoltPhysicsServer3D22ConeTwistJointFlagJoltEEED1Ev, symObjAddr: 0x33CE8, symBinAddr: 0x10DB18, symSize: 0xE0 }
  - { offsetInCU: 0xFFF3E, offset: 0x5E7F75, size: 0x8, addend: 0x0, symName: __ZN5godot13MethodBindTRCIbJRKNS_3RIDEN19JoltPhysicsServer3D22ConeTwistJointFlagJoltEEED0Ev, symObjAddr: 0x33DC8, symBinAddr: 0x10DC00, symSize: 0xE0 }
  - { offsetInCU: 0x100439, offset: 0x5E8470, size: 0x8, addend: 0x0, symName: __ZNK5godot11MethodBindTIJRKNS_3RIDEN19JoltPhysicsServer3D22ConeTwistJointFlagJoltEbEE17gen_argument_typeEi, symObjAddr: 0x34138, symBinAddr: 0x20DDF0, symSize: 0x28 }
  - { offsetInCU: 0x10046F, offset: 0x5E84A6, size: 0x8, addend: 0x0, symName: __ZNK5godot11MethodBindTIJRKNS_3RIDEN19JoltPhysicsServer3D22ConeTwistJointFlagJoltEbEE17gen_argument_typeEi, symObjAddr: 0x34138, symBinAddr: 0x20DDF0, symSize: 0x28 }
  - { offsetInCU: 0x1004A5, offset: 0x5E84DC, size: 0x8, addend: 0x0, symName: __ZNK5godot11MethodBindTIJRKNS_3RIDEN19JoltPhysicsServer3D22ConeTwistJointFlagJoltEbEE17gen_argument_typeEi, symObjAddr: 0x34138, symBinAddr: 0x20DDF0, symSize: 0x28 }
  - { offsetInCU: 0x1004FD, offset: 0x5E8534, size: 0x8, addend: 0x0, symName: __ZNK5godot11MethodBindTIJRKNS_3RIDEN19JoltPhysicsServer3D22ConeTwistJointFlagJoltEbEE22gen_argument_type_infoEi, symObjAddr: 0x34160, symBinAddr: 0x10E1E4, symSize: 0x1C8 }
  - { offsetInCU: 0x100AD7, offset: 0x5E8B0E, size: 0x8, addend: 0x0, symName: __ZNK5godot11MethodBindTIJRKNS_3RIDEN19JoltPhysicsServer3D22ConeTwistJointFlagJoltEbEE21get_argument_metadataEi, symObjAddr: 0x34328, symBinAddr: 0x20E0AC, symSize: 0x8 }
  - { offsetInCU: 0x100B07, offset: 0x5E8B3E, size: 0x8, addend: 0x0, symName: __ZNK5godot11MethodBindTIJRKNS_3RIDEN19JoltPhysicsServer3D22ConeTwistJointFlagJoltEbEE4callEPvPKPKvxR20GDExtensionCallError, symObjAddr: 0x34330, symBinAddr: 0x10E610, symSize: 0x558 }
  - { offsetInCU: 0x1016F7, offset: 0x5E972E, size: 0x8, addend: 0x0, symName: __ZNK5godot11MethodBindTIJRKNS_3RIDEN19JoltPhysicsServer3D22ConeTwistJointFlagJoltEbEE7ptrcallEPvPKPKvS7_, symObjAddr: 0x34888, symBinAddr: 0x20E5A4, symSize: 0xA8 }
  - { offsetInCU: 0x1018AA, offset: 0x5E98E1, size: 0x8, addend: 0x0, symName: __ZN5godot11MethodBindTIJRKNS_3RIDEN19JoltPhysicsServer3D22ConeTwistJointFlagJoltEbEED1Ev, symObjAddr: 0x34930, symBinAddr: 0x10EEA8, symSize: 0xE0 }
  - { offsetInCU: 0x101D98, offset: 0x5E9DCF, size: 0x8, addend: 0x0, symName: __ZN5godot11MethodBindTIJRKNS_3RIDEN19JoltPhysicsServer3D22ConeTwistJointFlagJoltEbEED0Ev, symObjAddr: 0x34A10, symBinAddr: 0x20EA74, symSize: 0xE0 }
  - { offsetInCU: 0x102293, offset: 0x5EA2CA, size: 0x8, addend: 0x0, symName: __ZNK5godot13MethodBindTRCIdJRKNS_3RIDENS_7Vector34AxisEN19JoltPhysicsServer3D23G6DOFJointAxisParamJoltEEE17gen_argument_typeEi, symObjAddr: 0x34AF0, symBinAddr: 0x10F21C, symSize: 0x2C }
  - { offsetInCU: 0x102339, offset: 0x5EA370, size: 0x8, addend: 0x0, symName: __ZNK5godot13MethodBindTRCIdJRKNS_3RIDENS_7Vector34AxisEN19JoltPhysicsServer3D23G6DOFJointAxisParamJoltEEE22gen_argument_type_infoEi, symObjAddr: 0x34B1C, symBinAddr: 0x20F018, symSize: 0x264 }
  - { offsetInCU: 0x102AD6, offset: 0x5EAB0D, size: 0x8, addend: 0x0, symName: __ZNK5godot13MethodBindTRCIdJRKNS_3RIDENS_7Vector34AxisEN19JoltPhysicsServer3D23G6DOFJointAxisParamJoltEEE21get_argument_metadataEi, symObjAddr: 0x34D80, symBinAddr: 0x10F3E8, symSize: 0xC }
  - { offsetInCU: 0x102BAB, offset: 0x5EABE2, size: 0x8, addend: 0x0, symName: __ZNK5godot13MethodBindTRCIdJRKNS_3RIDENS_7Vector34AxisEN19JoltPhysicsServer3D23G6DOFJointAxisParamJoltEEE4callEPvPKPKvxR20GDExtensionCallError, symObjAddr: 0x34D8C, symBinAddr: 0x20F798, symSize: 0x58C }
  - { offsetInCU: 0x1038CB, offset: 0x5EB902, size: 0x8, addend: 0x0, symName: __ZNK5godot13MethodBindTRCIdJRKNS_3RIDENS_7Vector34AxisEN19JoltPhysicsServer3D23G6DOFJointAxisParamJoltEEE7ptrcallEPvPKPKvS9_, symObjAddr: 0x35318, symBinAddr: 0x10F540, symSize: 0xA8 }
  - { offsetInCU: 0x103AA1, offset: 0x5EBAD8, size: 0x8, addend: 0x0, symName: __ZN5godot13MethodBindTRCIdJRKNS_3RIDENS_7Vector34AxisEN19JoltPhysicsServer3D23G6DOFJointAxisParamJoltEEED1Ev, symObjAddr: 0x353C0, symBinAddr: 0x21000C, symSize: 0xE0 }
  - { offsetInCU: 0x103F8F, offset: 0x5EBFC6, size: 0x8, addend: 0x0, symName: __ZN5godot13MethodBindTRCIdJRKNS_3RIDENS_7Vector34AxisEN19JoltPhysicsServer3D23G6DOFJointAxisParamJoltEEED0Ev, symObjAddr: 0x354A0, symBinAddr: 0x10F824, symSize: 0xE0 }
  - { offsetInCU: 0x10449D, offset: 0x5EC4D4, size: 0x8, addend: 0x0, symName: __ZNK5godot11MethodBindTIJRKNS_3RIDENS_7Vector34AxisEN19JoltPhysicsServer3D23G6DOFJointAxisParamJoltEdEE17gen_argument_typeEi, symObjAddr: 0x35AA0, symBinAddr: 0x2109A8, symSize: 0x2C }
  - { offsetInCU: 0x1044D3, offset: 0x5EC50A, size: 0x8, addend: 0x0, symName: __ZNK5godot11MethodBindTIJRKNS_3RIDENS_7Vector34AxisEN19JoltPhysicsServer3D23G6DOFJointAxisParamJoltEdEE17gen_argument_typeEi, symObjAddr: 0x35AA0, symBinAddr: 0x2109A8, symSize: 0x2C }
  - { offsetInCU: 0x104509, offset: 0x5EC540, size: 0x8, addend: 0x0, symName: __ZNK5godot11MethodBindTIJRKNS_3RIDENS_7Vector34AxisEN19JoltPhysicsServer3D23G6DOFJointAxisParamJoltEdEE17gen_argument_typeEi, symObjAddr: 0x35AA0, symBinAddr: 0x2109A8, symSize: 0x2C }
  - { offsetInCU: 0x104561, offset: 0x5EC598, size: 0x8, addend: 0x0, symName: __ZNK5godot11MethodBindTIJRKNS_3RIDENS_7Vector34AxisEN19JoltPhysicsServer3D23G6DOFJointAxisParamJoltEdEE22gen_argument_type_infoEi, symObjAddr: 0x35ACC, symBinAddr: 0x10FD24, symSize: 0x1D8 }
  - { offsetInCU: 0x104B49, offset: 0x5ECB80, size: 0x8, addend: 0x0, symName: __ZNK5godot11MethodBindTIJRKNS_3RIDENS_7Vector34AxisEN19JoltPhysicsServer3D23G6DOFJointAxisParamJoltEdEE21get_argument_metadataEi, symObjAddr: 0x35CA4, symBinAddr: 0x210F04, symSize: 0x10 }
  - { offsetInCU: 0x104B7F, offset: 0x5ECBB6, size: 0x8, addend: 0x0, symName: __ZNK5godot11MethodBindTIJRKNS_3RIDENS_7Vector34AxisEN19JoltPhysicsServer3D23G6DOFJointAxisParamJoltEdEE21get_argument_metadataEi, symObjAddr: 0x35CA4, symBinAddr: 0x210F04, symSize: 0x10 }
  - { offsetInCU: 0x104BB5, offset: 0x5ECBEC, size: 0x8, addend: 0x0, symName: __ZNK5godot11MethodBindTIJRKNS_3RIDENS_7Vector34AxisEN19JoltPhysicsServer3D23G6DOFJointAxisParamJoltEdEE21get_argument_metadataEi, symObjAddr: 0x35CA4, symBinAddr: 0x210F04, symSize: 0x10 }
  - { offsetInCU: 0x104C16, offset: 0x5ECC4D, size: 0x8, addend: 0x0, symName: __ZNK5godot11MethodBindTIJRKNS_3RIDENS_7Vector34AxisEN19JoltPhysicsServer3D23G6DOFJointAxisParamJoltEdEE4callEPvPKPKvxR20GDExtensionCallError, symObjAddr: 0x35CB4, symBinAddr: 0x10FFE0, symSize: 0x6AC }
  - { offsetInCU: 0x105B87, offset: 0x5EDBBE, size: 0x8, addend: 0x0, symName: __ZNK5godot11MethodBindTIJRKNS_3RIDENS_7Vector34AxisEN19JoltPhysicsServer3D23G6DOFJointAxisParamJoltEdEE7ptrcallEPvPKPKvS9_, symObjAddr: 0x36360, symBinAddr: 0x2111D0, symSize: 0xA8 }
  - { offsetInCU: 0x105D57, offset: 0x5EDD8E, size: 0x8, addend: 0x0, symName: __ZN5godot11MethodBindTIJRKNS_3RIDENS_7Vector34AxisEN19JoltPhysicsServer3D23G6DOFJointAxisParamJoltEdEED1Ev, symObjAddr: 0x36408, symBinAddr: 0x110770, symSize: 0xE0 }
  - { offsetInCU: 0x106245, offset: 0x5EE27C, size: 0x8, addend: 0x0, symName: __ZN5godot11MethodBindTIJRKNS_3RIDENS_7Vector34AxisEN19JoltPhysicsServer3D23G6DOFJointAxisParamJoltEdEED0Ev, symObjAddr: 0x364E8, symBinAddr: 0x211654, symSize: 0xE0 }
  - { offsetInCU: 0x106740, offset: 0x5EE777, size: 0x8, addend: 0x0, symName: __ZNK5godot13MethodBindTRCIbJRKNS_3RIDENS_7Vector34AxisEN19JoltPhysicsServer3D22G6DOFJointAxisFlagJoltEEE17gen_argument_typeEi, symObjAddr: 0x365C8, symBinAddr: 0x110934, symSize: 0x2C }
  - { offsetInCU: 0x1067E6, offset: 0x5EE81D, size: 0x8, addend: 0x0, symName: __ZNK5godot13MethodBindTRCIbJRKNS_3RIDENS_7Vector34AxisEN19JoltPhysicsServer3D22G6DOFJointAxisFlagJoltEEE22gen_argument_type_infoEi, symObjAddr: 0x365F4, symBinAddr: 0x211AF0, symSize: 0x264 }
  - { offsetInCU: 0x106F83, offset: 0x5EEFBA, size: 0x8, addend: 0x0, symName: __ZNK5godot13MethodBindTRCIbJRKNS_3RIDENS_7Vector34AxisEN19JoltPhysicsServer3D22G6DOFJointAxisFlagJoltEEE21get_argument_metadataEi, symObjAddr: 0x36858, symBinAddr: 0x110A44, symSize: 0x8 }
  - { offsetInCU: 0x107004, offset: 0x5EF03B, size: 0x8, addend: 0x0, symName: __ZNK5godot13MethodBindTRCIbJRKNS_3RIDENS_7Vector34AxisEN19JoltPhysicsServer3D22G6DOFJointAxisFlagJoltEEE4callEPvPKPKvxR20GDExtensionCallError, symObjAddr: 0x36860, symBinAddr: 0x211FBC, symSize: 0x588 }
  - { offsetInCU: 0x107CF9, offset: 0x5EFD30, size: 0x8, addend: 0x0, symName: __ZNK5godot13MethodBindTRCIbJRKNS_3RIDENS_7Vector34AxisEN19JoltPhysicsServer3D22G6DOFJointAxisFlagJoltEEE7ptrcallEPvPKPKvS9_, symObjAddr: 0x36DE8, symBinAddr: 0x110B30, symSize: 0xA8 }
  - { offsetInCU: 0x107EC7, offset: 0x5EFEFE, size: 0x8, addend: 0x0, symName: __ZN5godot13MethodBindTRCIbJRKNS_3RIDENS_7Vector34AxisEN19JoltPhysicsServer3D22G6DOFJointAxisFlagJoltEEED1Ev, symObjAddr: 0x36E90, symBinAddr: 0x212A08, symSize: 0xE0 }
  - { offsetInCU: 0x1083B5, offset: 0x5F03EC, size: 0x8, addend: 0x0, symName: __ZN5godot13MethodBindTRCIbJRKNS_3RIDENS_7Vector34AxisEN19JoltPhysicsServer3D22G6DOFJointAxisFlagJoltEEED0Ev, symObjAddr: 0x36F70, symBinAddr: 0x110CBC, symSize: 0xE0 }
  - { offsetInCU: 0x1088B0, offset: 0x5F08E7, size: 0x8, addend: 0x0, symName: __ZNK5godot11MethodBindTIJRKNS_3RIDENS_7Vector34AxisEN19JoltPhysicsServer3D22G6DOFJointAxisFlagJoltEbEE17gen_argument_typeEi, symObjAddr: 0x372E0, symBinAddr: 0x7C0C4, symSize: 0x2C }
  - { offsetInCU: 0x1088E6, offset: 0x5F091D, size: 0x8, addend: 0x0, symName: __ZNK5godot11MethodBindTIJRKNS_3RIDENS_7Vector34AxisEN19JoltPhysicsServer3D22G6DOFJointAxisFlagJoltEbEE17gen_argument_typeEi, symObjAddr: 0x372E0, symBinAddr: 0x7C0C4, symSize: 0x2C }
  - { offsetInCU: 0x10891C, offset: 0x5F0953, size: 0x8, addend: 0x0, symName: __ZNK5godot11MethodBindTIJRKNS_3RIDENS_7Vector34AxisEN19JoltPhysicsServer3D22G6DOFJointAxisFlagJoltEbEE17gen_argument_typeEi, symObjAddr: 0x372E0, symBinAddr: 0x7C0C4, symSize: 0x2C }
  - { offsetInCU: 0x108974, offset: 0x5F09AB, size: 0x8, addend: 0x0, symName: __ZNK5godot11MethodBindTIJRKNS_3RIDENS_7Vector34AxisEN19JoltPhysicsServer3D22G6DOFJointAxisFlagJoltEbEE22gen_argument_type_infoEi, symObjAddr: 0x3730C, symBinAddr: 0x21333C, symSize: 0x1D8 }
  - { offsetInCU: 0x108F5C, offset: 0x5F0F93, size: 0x8, addend: 0x0, symName: __ZNK5godot11MethodBindTIJRKNS_3RIDENS_7Vector34AxisEN19JoltPhysicsServer3D22G6DOFJointAxisFlagJoltEbEE21get_argument_metadataEi, symObjAddr: 0x374E4, symBinAddr: 0x1115FC, symSize: 0x8 }
  - { offsetInCU: 0x108F8C, offset: 0x5F0FC3, size: 0x8, addend: 0x0, symName: __ZNK5godot11MethodBindTIJRKNS_3RIDENS_7Vector34AxisEN19JoltPhysicsServer3D22G6DOFJointAxisFlagJoltEbEE4callEPvPKPKvxR20GDExtensionCallError, symObjAddr: 0x374EC, symBinAddr: 0x213704, symSize: 0x6B0 }
  - { offsetInCU: 0x109EFD, offset: 0x5F1F34, size: 0x8, addend: 0x0, symName: __ZNK5godot11MethodBindTIJRKNS_3RIDENS_7Vector34AxisEN19JoltPhysicsServer3D22G6DOFJointAxisFlagJoltEbEE7ptrcallEPvPKPKvS9_, symObjAddr: 0x37B9C, symBinAddr: 0x111708, symSize: 0xB0 }
  - { offsetInCU: 0x10A0CF, offset: 0x5F2106, size: 0x8, addend: 0x0, symName: __ZN5godot11MethodBindTIJRKNS_3RIDENS_7Vector34AxisEN19JoltPhysicsServer3D22G6DOFJointAxisFlagJoltEbEED1Ev, symObjAddr: 0x37C4C, symBinAddr: 0x21402C, symSize: 0xE0 }
  - { offsetInCU: 0x10A5BD, offset: 0x5F25F4, size: 0x8, addend: 0x0, symName: __ZN5godot11MethodBindTIJRKNS_3RIDENS_7Vector34AxisEN19JoltPhysicsServer3D22G6DOFJointAxisFlagJoltEbEED0Ev, symObjAddr: 0x37D2C, symBinAddr: 0x1117CC, symSize: 0xE0 }
  - { offsetInCU: 0x6448, offset: 0x600866, size: 0x8, addend: 0x0, symName: __ZN5godot7vformatIJPKcNS_6StringES3_EEES3_RKS3_DpKT_, symObjAddr: 0x2BD0, symBinAddr: 0x21DDE0, symSize: 0x2DC }
  - { offsetInCU: 0x72EB, offset: 0x601709, size: 0x8, addend: 0x0, symName: __ZN19JoltProjectSettings26areas_detect_static_bodiesEv, symObjAddr: 0x17A8, symBinAddr: 0x116634, symSize: 0x6C }
  - { offsetInCU: 0x730D, offset: 0x60172B, size: 0x8, addend: 0x0, symName: __ZZN19JoltProjectSettings26areas_detect_static_bodiesEvE5value.llvm.2609349050422865206, symObjAddr: 0xDD0C8, symBinAddr: 0x36D668, symSize: 0x0 }
  - { offsetInCU: 0x7326, offset: 0x601744, size: 0x8, addend: 0x0, symName: __ZN19JoltProjectSettings25use_enhanced_edge_removalEv, symObjAddr: 0x1880, symBinAddr: 0x21D874, symSize: 0x6C }
  - { offsetInCU: 0x7348, offset: 0x601766, size: 0x8, addend: 0x0, symName: __ZZN19JoltProjectSettings25use_enhanced_edge_removalEvE5value.llvm.2609349050422865206, symObjAddr: 0xDD0E8, symBinAddr: 0x364F18, symSize: 0x0 }
  - { offsetInCU: 0x7361, offset: 0x60177F, size: 0x8, addend: 0x0, symName: __ZN19JoltProjectSettings14get_max_bodiesEv, symObjAddr: 0x23CC, symBinAddr: 0x21DA04, symSize: 0x6C }
  - { offsetInCU: 0x7385, offset: 0x6017A3, size: 0x8, addend: 0x0, symName: __ZZN19JoltProjectSettings14get_max_bodiesEvE5value.llvm.2609349050422865206, symObjAddr: 0xDD218, symBinAddr: 0x36E268, symSize: 0x0 }
  - { offsetInCU: 0x73A0, offset: 0x6017BE, size: 0x8, addend: 0x0, symName: __ZN12_GLOBAL__N_116register_settingERKN5godot6StringERKNS0_7VariantEbNS0_12PropertyHintES3_, symObjAddr: 0x26BC, symBinAddr: 0x116C80, symSize: 0x514 }
  - { offsetInCU: 0x73C6, offset: 0x6017E4, size: 0x8, addend: 0x0, symName: __ZZN12_GLOBAL__N_116register_settingERKN5godot6StringERKNS0_7VariantEbNS0_12PropertyHintES3_E5order, symObjAddr: 0x4CC8, symBinAddr: 0x363A28, symSize: 0x0 }
  - { offsetInCU: 0x8177, offset: 0x602595, size: 0x8, addend: 0x0, symName: __ZN12_GLOBAL__N_113SLEEP_ENABLEDE.llvm.2609349050422865206, symObjAddr: 0x4030, symBinAddr: 0x307C6C, symSize: 0x0 }
  - { offsetInCU: 0x8191, offset: 0x6025AF, size: 0x8, addend: 0x0, symName: __ZN12_GLOBAL__N_124SLEEP_VELOCITY_THRESHOLDE.llvm.2609349050422865206, symObjAddr: 0x404E, symBinAddr: 0x307D0E, symSize: 0x0 }
  - { offsetInCU: 0x81AB, offset: 0x6025C9, size: 0x8, addend: 0x0, symName: __ZN12_GLOBAL__N_120SLEEP_TIME_THRESHOLDE.llvm.2609349050422865206, symObjAddr: 0x40A4, symBinAddr: 0x307F54, symSize: 0x0 }
  - { offsetInCU: 0x81C5, offset: 0x6025E3, size: 0x8, addend: 0x0, symName: __ZN12_GLOBAL__N_113SHAPE_MARGINSE.llvm.2609349050422865206, symObjAddr: 0x4140, symBinAddr: 0x30823C, symSize: 0x0 }
  - { offsetInCU: 0x81DF, offset: 0x6025FD, size: 0x8, addend: 0x0, symName: __ZN12_GLOBAL__N_112EDGE_REMOVALE.llvm.2609349050422865206, symObjAddr: 0x416D, symBinAddr: 0x3082AD, symSize: 0x0 }
  - { offsetInCU: 0x81F9, offset: 0x602617, size: 0x8, addend: 0x0, symName: __ZN12_GLOBAL__N_119AREAS_DETECT_STATICE.llvm.2609349050422865206, symObjAddr: 0x41AB, symBinAddr: 0x3084B3, symSize: 0x0 }
  - { offsetInCU: 0x8213, offset: 0x602631, size: 0x8, addend: 0x0, symName: __ZN12_GLOBAL__N_118KINEMATIC_CONTACTSE.llvm.2609349050422865206, symObjAddr: 0x41E1, symBinAddr: 0x308601, symSize: 0x0 }
  - { offsetInCU: 0x822D, offset: 0x60264B, size: 0x8, addend: 0x0, symName: __ZN12_GLOBAL__N_122SOFT_BODY_POINT_MARGINE.llvm.2609349050422865206, symObjAddr: 0x421A, symBinAddr: 0x304B66, symSize: 0x0 }
  - { offsetInCU: 0x8247, offset: 0x602665, size: 0x8, addend: 0x0, symName: __ZN12_GLOBAL__N_116JOINT_WORLD_NODEE.llvm.2609349050422865206, symObjAddr: 0x42C4, symBinAddr: 0x308904, symSize: 0x0 }
  - { offsetInCU: 0x8261, offset: 0x60267F, size: 0x8, addend: 0x0, symName: __ZN12_GLOBAL__N_122CCD_MOVEMENT_THRESHOLDE.llvm.2609349050422865206, symObjAddr: 0x42E6, symBinAddr: 0x3089CE, symSize: 0x0 }
  - { offsetInCU: 0x827B, offset: 0x602699, size: 0x8, addend: 0x0, symName: __ZN12_GLOBAL__N_119CCD_MAX_PENETRATIONE.llvm.2609349050422865206, symObjAddr: 0x4364, symBinAddr: 0x308B90, symSize: 0x0 }
  - { offsetInCU: 0x8295, offset: 0x6026B3, size: 0x8, addend: 0x0, symName: __ZN12_GLOBAL__N_119RECOVERY_ITERATIONSE.llvm.2609349050422865206, symObjAddr: 0x4392, symBinAddr: 0x308C7A, symSize: 0x0 }
  - { offsetInCU: 0x82AF, offset: 0x6026CD, size: 0x8, addend: 0x0, symName: __ZN12_GLOBAL__N_115RECOVERY_AMOUNTE.llvm.2609349050422865206, symObjAddr: 0x4400, symBinAddr: 0x302EA0, symSize: 0x0 }
  - { offsetInCU: 0x82C9, offset: 0x6026E7, size: 0x8, addend: 0x0, symName: __ZN12_GLOBAL__N_119VELOCITY_ITERATIONSE.llvm.2609349050422865206, symObjAddr: 0x442B, symBinAddr: 0x308F23, symSize: 0x0 }
  - { offsetInCU: 0x82E3, offset: 0x602701, size: 0x8, addend: 0x0, symName: __ZN12_GLOBAL__N_119POSITION_ITERATIONSE.llvm.2609349050422865206, symObjAddr: 0x4498, symBinAddr: 0x309178, symSize: 0x0 }
  - { offsetInCU: 0x82FD, offset: 0x60271B, size: 0x8, addend: 0x0, symName: __ZN12_GLOBAL__N_119POSITION_CORRECTIONE.llvm.2609349050422865206, symObjAddr: 0x4504, symBinAddr: 0x3050C0, symSize: 0x0 }
  - { offsetInCU: 0x8317, offset: 0x602735, size: 0x8, addend: 0x0, symName: __ZN12_GLOBAL__N_121ACTIVE_EDGE_THRESHOLDE.llvm.2609349050422865206, symObjAddr: 0x452F, symBinAddr: 0x309287, symSize: 0x0 }
  - { offsetInCU: 0x8331, offset: 0x60274F, size: 0x8, addend: 0x0, symName: __ZN12_GLOBAL__N_125BOUNCE_VELOCITY_THRESHOLDE.llvm.2609349050422865206, symObjAddr: 0x45A4, symBinAddr: 0x3095D0, symSize: 0x0 }
  - { offsetInCU: 0x834B, offset: 0x602769, size: 0x8, addend: 0x0, symName: __ZN12_GLOBAL__N_116CONTACT_DISTANCEE.llvm.2609349050422865206, symObjAddr: 0x45D5, symBinAddr: 0x309601, symSize: 0x0 }
  - { offsetInCU: 0x8365, offset: 0x602783, size: 0x8, addend: 0x0, symName: __ZN12_GLOBAL__N_119CONTACT_PENETRATIONE.llvm.2609349050422865206, symObjAddr: 0x468C, symBinAddr: 0x3098EC, symSize: 0x0 }
  - { offsetInCU: 0x837F, offset: 0x60279D, size: 0x8, addend: 0x0, symName: __ZN12_GLOBAL__N_118PAIR_CACHE_ENABLEDE.llvm.2609349050422865206, symObjAddr: 0x46BF, symBinAddr: 0x30991F, symSize: 0x0 }
  - { offsetInCU: 0x8399, offset: 0x6027B7, size: 0x8, addend: 0x0, symName: __ZN12_GLOBAL__N_119PAIR_CACHE_DISTANCEE.llvm.2609349050422865206, symObjAddr: 0x46F2, symBinAddr: 0x309ACE, symSize: 0x0 }
  - { offsetInCU: 0x83B3, offset: 0x6027D1, size: 0x8, addend: 0x0, symName: __ZN12_GLOBAL__N_116PAIR_CACHE_ANGLEE.llvm.2609349050422865206, symObjAddr: 0x47BC, symBinAddr: 0x309D18, symSize: 0x0 }
  - { offsetInCU: 0x83CD, offset: 0x6027EB, size: 0x8, addend: 0x0, symName: __ZN12_GLOBAL__N_119MAX_LINEAR_VELOCITYE.llvm.2609349050422865206, symObjAddr: 0x4844, symBinAddr: 0x309EE0, symSize: 0x0 }
  - { offsetInCU: 0x83E7, offset: 0x602805, size: 0x8, addend: 0x0, symName: __ZN12_GLOBAL__N_120MAX_ANGULAR_VELOCITYE.llvm.2609349050422865206, symObjAddr: 0x48F4, symBinAddr: 0x30A14C, symSize: 0x0 }
  - { offsetInCU: 0x8401, offset: 0x60281F, size: 0x8, addend: 0x0, symName: __ZN12_GLOBAL__N_110MAX_BODIESE.llvm.2609349050422865206, symObjAddr: 0x49A8, symBinAddr: 0x30A3C8, symSize: 0x0 }
  - { offsetInCU: 0x841B, offset: 0x602839, size: 0x8, addend: 0x0, symName: __ZN12_GLOBAL__N_19MAX_PAIRSE.llvm.2609349050422865206, symObjAddr: 0x4A18, symBinAddr: 0x30A644, symSize: 0x0 }
  - { offsetInCU: 0x8435, offset: 0x602853, size: 0x8, addend: 0x0, symName: __ZN12_GLOBAL__N_112MAX_CONTACTSE.llvm.2609349050422865206, symObjAddr: 0x4A8C, symBinAddr: 0x30A740, symSize: 0x0 }
  - { offsetInCU: 0x844F, offset: 0x60286D, size: 0x8, addend: 0x0, symName: __ZN12_GLOBAL__N_115MAX_TEMP_MEMORYE.llvm.2609349050422865206, symObjAddr: 0x4B08, symBinAddr: 0x301264, symSize: 0x0 }
  - { offsetInCU: 0x8469, offset: 0x602887, size: 0x8, addend: 0x0, symName: __ZN12_GLOBAL__N_122RUN_ON_SEPARATE_THREADE.llvm.2609349050422865206, symObjAddr: 0x4BA0, symBinAddr: 0x30AB5C, symSize: 0x0 }
  - { offsetInCU: 0x8483, offset: 0x6028A1, size: 0x8, addend: 0x0, symName: __ZN12_GLOBAL__N_111MAX_THREADSE.llvm.2609349050422865206, symObjAddr: 0x4BC2, symBinAddr: 0x30AA5A, symSize: 0x0 }
  - { offsetInCU: 0x857D, offset: 0x60299B, size: 0x8, addend: 0x0, symName: __ZN12_GLOBAL__N_111get_settingIbEET_PKc.llvm.2609349050422865206, symObjAddr: 0x10D0, symBinAddr: 0x1160D8, symSize: 0x2C8 }
  - { offsetInCU: 0x8BF3, offset: 0x603011, size: 0x8, addend: 0x0, symName: __ZN12_GLOBAL__N_111get_settingIfEET_PKc.llvm.2609349050422865206, symObjAddr: 0x1404, symBinAddr: 0x21D348, symSize: 0x2CC }
  - { offsetInCU: 0x92B1, offset: 0x6036CF, size: 0x8, addend: 0x0, symName: __ZN12_GLOBAL__N_111get_settingIiEET_PKc.llvm.2609349050422865206, symObjAddr: 0x19CC, symBinAddr: 0x1167F0, symSize: 0x2C0 }
  - { offsetInCU: 0x9A90, offset: 0x603EAE, size: 0x8, addend: 0x0, symName: __ZN19JoltProjectSettings17register_settingsEv, symObjAddr: 0x0, symBinAddr: 0x21C088, symSize: 0x1064 }
  - { offsetInCU: 0x4273, offset: 0x60D47F, size: 0x8, addend: 0x0, symName: __ZN5godot7vformatIJNS_6StringES1_S1_EEES1_RKS1_DpKT_, symObjAddr: 0x844, symBinAddr: 0x11AB5C, symSize: 0x2B4 }
  - { offsetInCU: 0xA5E8, offset: 0x6137F4, size: 0x8, addend: 0x0, symName: __ZNK18JoltBoxShapeImpl3D8get_dataEv, symObjAddr: 0x0, symBinAddr: 0x22623C, symSize: 0x1C }
  - { offsetInCU: 0xA687, offset: 0x613893, size: 0x8, addend: 0x0, symName: __ZN18JoltBoxShapeImpl3D8set_dataERKN5godot7VariantE, symObjAddr: 0x1C, symBinAddr: 0x11A51C, symSize: 0x120 }
  - { offsetInCU: 0xA938, offset: 0x613B44, size: 0x8, addend: 0x0, symName: __ZN18JoltBoxShapeImpl3D10set_marginEf, symObjAddr: 0x13C, symBinAddr: 0x2263EC, symSize: 0xF0 }
  - { offsetInCU: 0xAB19, offset: 0x613D25, size: 0x8, addend: 0x0, symName: __ZNK18JoltBoxShapeImpl3D9to_stringEv, symObjAddr: 0x22C, symBinAddr: 0x11A808, symSize: 0x274 }
  - { offsetInCU: 0xB960, offset: 0x614B6C, size: 0x8, addend: 0x0, symName: __ZNK18JoltBoxShapeImpl3D6_buildEv, symObjAddr: 0x4A0, symBinAddr: 0x226A4C, symSize: 0x3A4 }
  - { offsetInCU: 0xC738, offset: 0x615944, size: 0x8, addend: 0x0, symName: __ZN18JoltBoxShapeImpl3DD1Ev, symObjAddr: 0xAF8, symBinAddr: 0x227084, symSize: 0x88 }
  - { offsetInCU: 0xCBE4, offset: 0x615DF0, size: 0x8, addend: 0x0, symName: __ZN18JoltBoxShapeImpl3DD0Ev, symObjAddr: 0xB80, symBinAddr: 0x11AFF4, symSize: 0x88 }
  - { offsetInCU: 0xD09B, offset: 0x6162A7, size: 0x8, addend: 0x0, symName: __ZNK18JoltBoxShapeImpl3D8get_typeEv, symObjAddr: 0xC08, symBinAddr: 0x2275FC, symSize: 0x8 }
  - { offsetInCU: 0xD0C2, offset: 0x6162CE, size: 0x8, addend: 0x0, symName: __ZNK18JoltBoxShapeImpl3D9is_convexEv, symObjAddr: 0xC10, symBinAddr: 0x11B3BC, symSize: 0x8 }
  - { offsetInCU: 0xD0E9, offset: 0x6162F5, size: 0x8, addend: 0x0, symName: __ZNK18JoltBoxShapeImpl3D10get_marginEv, symObjAddr: 0xC18, symBinAddr: 0x227A2C, symSize: 0x8 }
  - { offsetInCU: 0x9B4B, offset: 0x620A84, size: 0x8, addend: 0x0, symName: __ZNK22JoltCapsuleShapeImpl3D8get_dataEv, symObjAddr: 0x0, symBinAddr: 0x22F724, symSize: 0x1E4 }
  - { offsetInCU: 0xA1D3, offset: 0x62110C, size: 0x8, addend: 0x0, symName: __ZN22JoltCapsuleShapeImpl3D8set_dataERKN5godot7VariantE, symObjAddr: 0x1E4, symBinAddr: 0x11ED18, symSize: 0x3C0 }
  - { offsetInCU: 0xAD0B, offset: 0x621C44, size: 0x8, addend: 0x0, symName: __ZNK22JoltCapsuleShapeImpl3D9to_stringEv, symObjAddr: 0x5A4, symBinAddr: 0x22FE38, symSize: 0x26C }
  - { offsetInCU: 0xBAB3, offset: 0x6229EC, size: 0x8, addend: 0x0, symName: __ZNK22JoltCapsuleShapeImpl3D6_buildEv, symObjAddr: 0x810, symBinAddr: 0x11F228, symSize: 0x500 }
  - { offsetInCU: 0xCABE, offset: 0x6239F7, size: 0x8, addend: 0x0, symName: __ZN22JoltCapsuleShapeImpl3DD1Ev, symObjAddr: 0xD10, symBinAddr: 0x230348, symSize: 0x88 }
  - { offsetInCU: 0xCF6A, offset: 0x623EA3, size: 0x8, addend: 0x0, symName: __ZN22JoltCapsuleShapeImpl3DD0Ev, symObjAddr: 0xD98, symBinAddr: 0x11F7E4, symSize: 0x88 }
  - { offsetInCU: 0xD421, offset: 0x62435A, size: 0x8, addend: 0x0, symName: __ZNK22JoltCapsuleShapeImpl3D8get_typeEv, symObjAddr: 0xE20, symBinAddr: 0x2308C0, symSize: 0x8 }
  - { offsetInCU: 0xD448, offset: 0x624381, size: 0x8, addend: 0x0, symName: __ZNK22JoltCapsuleShapeImpl3D9is_convexEv, symObjAddr: 0xE28, symBinAddr: 0x11FA28, symSize: 0x8 }
  - { offsetInCU: 0xD46F, offset: 0x6243A8, size: 0x8, addend: 0x0, symName: __ZNK22JoltCapsuleShapeImpl3D10get_marginEv, symObjAddr: 0xE30, symBinAddr: 0x11FA7C, symSize: 0x8 }
  - { offsetInCU: 0xD494, offset: 0x6243CD, size: 0x8, addend: 0x0, symName: __ZN22JoltCapsuleShapeImpl3D10set_marginEf, symObjAddr: 0xE38, symBinAddr: 0x11FAD0, symSize: 0x4 }
  - { offsetInCU: 0xBD5E, offset: 0x630EF2, size: 0x8, addend: 0x0, symName: __ZNK29JoltConcavePolygonShapeImpl3D8get_dataEv, symObjAddr: 0x0, symBinAddr: 0x1232D4, symSize: 0x1D4 }
  - { offsetInCU: 0xC349, offset: 0x6314DD, size: 0x8, addend: 0x0, symName: __ZN29JoltConcavePolygonShapeImpl3D8set_dataERKN5godot7VariantE, symObjAddr: 0x1D4, symBinAddr: 0x23A27C, symSize: 0x3C0 }
  - { offsetInCU: 0xCF22, offset: 0x6320B6, size: 0x8, addend: 0x0, symName: __ZNK29JoltConcavePolygonShapeImpl3D9to_stringEv, symObjAddr: 0x594, symBinAddr: 0x12358C, symSize: 0x1EC }
  - { offsetInCU: 0xE299, offset: 0x63342D, size: 0x8, addend: 0x0, symName: __ZNK29JoltConcavePolygonShapeImpl3D6_buildEv, symObjAddr: 0x780, symBinAddr: 0x1237C4, symSize: 0xA18 }
  - { offsetInCU: 0x1095A, offset: 0x635AEE, size: 0x8, addend: 0x0, symName: __ZN29JoltConcavePolygonShapeImpl3DD1Ev, symObjAddr: 0x1198, symBinAddr: 0x124228, symSize: 0x98 }
  - { offsetInCU: 0x10E49, offset: 0x635FDD, size: 0x8, addend: 0x0, symName: __ZN29JoltConcavePolygonShapeImpl3DD0Ev, symObjAddr: 0x1230, symBinAddr: 0x23AF24, symSize: 0x98 }
  - { offsetInCU: 0x11343, offset: 0x6364D7, size: 0x8, addend: 0x0, symName: __ZNK29JoltConcavePolygonShapeImpl3D8get_typeEv, symObjAddr: 0x12C8, symBinAddr: 0x1243A4, symSize: 0x8 }
  - { offsetInCU: 0x1136A, offset: 0x6364FE, size: 0x8, addend: 0x0, symName: __ZNK29JoltConcavePolygonShapeImpl3D9is_convexEv, symObjAddr: 0x12D0, symBinAddr: 0x23B22C, symSize: 0x8 }
  - { offsetInCU: 0x11391, offset: 0x636525, size: 0x8, addend: 0x0, symName: __ZNK29JoltConcavePolygonShapeImpl3D10get_marginEv, symObjAddr: 0x12D8, symBinAddr: 0x124490, symSize: 0x8 }
  - { offsetInCU: 0x113B6, offset: 0x63654A, size: 0x8, addend: 0x0, symName: __ZN29JoltConcavePolygonShapeImpl3D10set_marginEf, symObjAddr: 0x12E0, symBinAddr: 0x23B974, symSize: 0x4 }
  - { offsetInCU: 0xA5E8, offset: 0x6426AE, size: 0x8, addend: 0x0, symName: __ZNK28JoltConvexPolygonShapeImpl3D8get_dataEv, symObjAddr: 0x0, symBinAddr: 0x24349C, symSize: 0x1C }
  - { offsetInCU: 0xA663, offset: 0x642729, size: 0x8, addend: 0x0, symName: __ZN28JoltConvexPolygonShapeImpl3D8set_dataERKN5godot7VariantE, symObjAddr: 0x1C, symBinAddr: 0x127B30, symSize: 0x158 }
  - { offsetInCU: 0xA9BA, offset: 0x642A80, size: 0x8, addend: 0x0, symName: __ZN28JoltConvexPolygonShapeImpl3D10set_marginEf, symObjAddr: 0x174, symBinAddr: 0x24397C, symSize: 0xF0 }
  - { offsetInCU: 0xAB9A, offset: 0x642C60, size: 0x8, addend: 0x0, symName: __ZNK28JoltConvexPolygonShapeImpl3D9to_stringEv, symObjAddr: 0x264, symBinAddr: 0x127D6C, symSize: 0x28C }
  - { offsetInCU: 0xBCEE, offset: 0x643DB4, size: 0x8, addend: 0x0, symName: __ZNK28JoltConvexPolygonShapeImpl3D6_buildEv, symObjAddr: 0x4F0, symBinAddr: 0x1A300, symSize: 0x57C }
  - { offsetInCU: 0xD10A, offset: 0x6451D0, size: 0x8, addend: 0x0, symName: __ZN28JoltConvexPolygonShapeImpl3DD1Ev, symObjAddr: 0xA6C, symBinAddr: 0x1280DC, symSize: 0x98 }
  - { offsetInCU: 0xD5F9, offset: 0x6456BF, size: 0x8, addend: 0x0, symName: __ZN28JoltConvexPolygonShapeImpl3DD0Ev, symObjAddr: 0xB04, symBinAddr: 0x2440F8, symSize: 0x98 }
  - { offsetInCU: 0xDAF3, offset: 0x645BB9, size: 0x8, addend: 0x0, symName: __ZNK28JoltConvexPolygonShapeImpl3D8get_typeEv, symObjAddr: 0xB9C, symBinAddr: 0x128258, symSize: 0x8 }
  - { offsetInCU: 0xDB1A, offset: 0x645BE0, size: 0x8, addend: 0x0, symName: __ZNK28JoltConvexPolygonShapeImpl3D9is_convexEv, symObjAddr: 0xBA4, symBinAddr: 0x2443B4, symSize: 0x8 }
  - { offsetInCU: 0xDB41, offset: 0x645C07, size: 0x8, addend: 0x0, symName: __ZNK28JoltConvexPolygonShapeImpl3D10get_marginEv, symObjAddr: 0xBAC, symBinAddr: 0x128344, symSize: 0x8 }
  - { offsetInCU: 0x452B, offset: 0x64AF6C, size: 0x8, addend: 0x0, symName: __ZNK34JoltCustomDoubleSidedShapeSettings6CreateEv, symObjAddr: 0x0, symBinAddr: 0x12BE70, symSize: 0x1C4 }
  - { offsetInCU: 0x4FF4, offset: 0x64BA35, size: 0x8, addend: 0x0, symName: __ZN12_GLOBAL__N_122construct_double_sidedEv.llvm.16758751352162287740, symObjAddr: 0x2FC, symBinAddr: 0x12C944, symSize: 0x40 }
  - { offsetInCU: 0x5245, offset: 0x64BC86, size: 0x8, addend: 0x0, symName: __ZN12_GLOBAL__N_129collide_shape_vs_double_sidedEPKN3JPH5ShapeES3_NS0_4Vec3ES4_RKNS0_5Mat44ES7_RKNS0_17SubShapeIDCreatorESA_RKNS0_20CollideShapeSettingsERNS0_18CollisionCollectorINS0_18CollideShapeResultENS0_36CollisionCollectorTraitsCollideShapeEEERKNS0_11ShapeFilterE.llvm.16758751352162287740, symObjAddr: 0x33C, symBinAddr: 0x12C100, symSize: 0x188 }
  - { offsetInCU: 0x548B, offset: 0x64BECC, size: 0x8, addend: 0x0, symName: __ZN12_GLOBAL__N_126cast_shape_vs_double_sidedERKN3JPH9ShapeCastERKNS0_17ShapeCastSettingsEPKNS0_5ShapeENS0_4Vec3ERKNS0_11ShapeFilterERKNS0_5Mat44ERKNS0_17SubShapeIDCreatorESJ_RNS0_18CollisionCollectorINS0_15ShapeCastResultENS0_33CollisionCollectorTraitsCastShapeEEE.llvm.16758751352162287740, symObjAddr: 0x4C4, symBinAddr: 0x24C968, symSize: 0x17C }
  - { offsetInCU: 0x595E, offset: 0x64C39F, size: 0x8, addend: 0x0, symName: __ZN34JoltCustomDoubleSidedShapeSettingsD1Ev, symObjAddr: 0x640, symBinAddr: 0x12C654, symSize: 0x118 }
  - { offsetInCU: 0x5E3F, offset: 0x64C880, size: 0x8, addend: 0x0, symName: __ZN34JoltCustomDoubleSidedShapeSettingsD0Ev, symObjAddr: 0x758, symBinAddr: 0x12CE38, symSize: 0x120 }
  - { offsetInCU: 0x6395, offset: 0x64CDD6, size: 0x8, addend: 0x0, symName: __ZN26JoltCustomDoubleSidedShapeD1Ev, symObjAddr: 0x878, symBinAddr: 0x8A450, symSize: 0x60 }
  - { offsetInCU: 0x654C, offset: 0x64CF8D, size: 0x8, addend: 0x0, symName: __ZN26JoltCustomDoubleSidedShapeD0Ev, symObjAddr: 0x8D8, symBinAddr: 0x1A8C8, symSize: 0x68 }
  - { offsetInCU: 0x673A, offset: 0x64D17B, size: 0x8, addend: 0x0, symName: __ZNK3JPH14DecoratedShape12MustBeStaticEv, symObjAddr: 0x940, symBinAddr: 0x12CC90, symSize: 0x10 }
  - { offsetInCU: 0x6764, offset: 0x64D1A5, size: 0x8, addend: 0x0, symName: __ZNK3JPH14DecoratedShape12MustBeStaticEv, symObjAddr: 0x940, symBinAddr: 0x12CC90, symSize: 0x10 }
  - { offsetInCU: 0x678B, offset: 0x64D1CC, size: 0x8, addend: 0x0, symName: __ZNK3JPH14DecoratedShape15GetCenterOfMassEv, symObjAddr: 0x950, symBinAddr: 0x24D5E0, symSize: 0x10 }
  - { offsetInCU: 0x67B5, offset: 0x64D1F6, size: 0x8, addend: 0x0, symName: __ZNK3JPH14DecoratedShape15GetCenterOfMassEv, symObjAddr: 0x950, symBinAddr: 0x24D5E0, symSize: 0x10 }
  - { offsetInCU: 0x67DC, offset: 0x64D21D, size: 0x8, addend: 0x0, symName: __ZNK24JoltCustomDecoratedShape14GetLocalBoundsEv, symObjAddr: 0x960, symBinAddr: 0x12CF58, symSize: 0x10 }
  - { offsetInCU: 0x6806, offset: 0x64D247, size: 0x8, addend: 0x0, symName: __ZNK24JoltCustomDecoratedShape14GetLocalBoundsEv, symObjAddr: 0x960, symBinAddr: 0x12CF58, symSize: 0x10 }
  - { offsetInCU: 0x682D, offset: 0x64D26E, size: 0x8, addend: 0x0, symName: __ZNK3JPH14DecoratedShape26GetSubShapeIDBitsRecursiveEv, symObjAddr: 0x970, symBinAddr: 0x11F78, symSize: 0x10 }
  - { offsetInCU: 0x6857, offset: 0x64D298, size: 0x8, addend: 0x0, symName: __ZNK3JPH14DecoratedShape26GetSubShapeIDBitsRecursiveEv, symObjAddr: 0x970, symBinAddr: 0x11F78, symSize: 0x10 }
  - { offsetInCU: 0x687E, offset: 0x64D2BF, size: 0x8, addend: 0x0, symName: __ZNK24JoltCustomDecoratedShape19GetWorldSpaceBoundsERKN3JPH5Mat44ENS0_4Vec3E, symObjAddr: 0x980, symBinAddr: 0x12D1B0, symSize: 0x10 }
  - { offsetInCU: 0x68C6, offset: 0x64D307, size: 0x8, addend: 0x0, symName: __ZNK24JoltCustomDecoratedShape19GetWorldSpaceBoundsERKN3JPH5Mat44ENS0_4Vec3E, symObjAddr: 0x980, symBinAddr: 0x12D1B0, symSize: 0x10 }
  - { offsetInCU: 0x68ED, offset: 0x64D32E, size: 0x8, addend: 0x0, symName: __ZNK24JoltCustomDecoratedShape14GetInnerRadiusEv, symObjAddr: 0x990, symBinAddr: 0x12D20C, symSize: 0x10 }
  - { offsetInCU: 0x6917, offset: 0x64D358, size: 0x8, addend: 0x0, symName: __ZNK24JoltCustomDecoratedShape14GetInnerRadiusEv, symObjAddr: 0x990, symBinAddr: 0x12D20C, symSize: 0x10 }
  - { offsetInCU: 0x693E, offset: 0x64D37F, size: 0x8, addend: 0x0, symName: __ZNK24JoltCustomDecoratedShape17GetMassPropertiesEv, symObjAddr: 0x9A0, symBinAddr: 0x12D21C, symSize: 0x10 }
  - { offsetInCU: 0x6968, offset: 0x64D3A9, size: 0x8, addend: 0x0, symName: __ZNK24JoltCustomDecoratedShape17GetMassPropertiesEv, symObjAddr: 0x9A0, symBinAddr: 0x12D21C, symSize: 0x10 }
  - { offsetInCU: 0x698F, offset: 0x64D3D0, size: 0x8, addend: 0x0, symName: __ZNK24JoltCustomDecoratedShape16GetSurfaceNormalERKN3JPH10SubShapeIDENS0_4Vec3E, symObjAddr: 0x9B0, symBinAddr: 0x24ECB4, symSize: 0x10 }
  - { offsetInCU: 0x69D7, offset: 0x64D418, size: 0x8, addend: 0x0, symName: __ZNK24JoltCustomDecoratedShape16GetSurfaceNormalERKN3JPH10SubShapeIDENS0_4Vec3E, symObjAddr: 0x9B0, symBinAddr: 0x24ECB4, symSize: 0x10 }
  - { offsetInCU: 0x69FE, offset: 0x64D43F, size: 0x8, addend: 0x0, symName: __ZNK24JoltCustomDecoratedShape19GetSubShapeUserDataERKN3JPH10SubShapeIDE, symObjAddr: 0x9C0, symBinAddr: 0x12D508, symSize: 0x10 }
  - { offsetInCU: 0x6A36, offset: 0x64D477, size: 0x8, addend: 0x0, symName: __ZNK24JoltCustomDecoratedShape19GetSubShapeUserDataERKN3JPH10SubShapeIDE, symObjAddr: 0x9C0, symBinAddr: 0x12D508, symSize: 0x10 }
  - { offsetInCU: 0x6A5D, offset: 0x64D49E, size: 0x8, addend: 0x0, symName: __ZNK24JoltCustomDecoratedShape27GetSubShapeTransformedShapeERKN3JPH10SubShapeIDENS0_4Vec3ENS0_4QuatES4_RS1_, symObjAddr: 0x9D0, symBinAddr: 0x24F320, symSize: 0x18 }
  - { offsetInCU: 0x6AFB, offset: 0x64D53C, size: 0x8, addend: 0x0, symName: __ZNK24JoltCustomDecoratedShape18GetSubmergedVolumeERKN3JPH5Mat44ENS0_4Vec3ERKNS0_5PlaneERfS8_RS4_, symObjAddr: 0x9E8, symBinAddr: 0x12D694, symSize: 0x10 }
  - { offsetInCU: 0x6B7B, offset: 0x64D5BC, size: 0x8, addend: 0x0, symName: __ZNK24JoltCustomDecoratedShape18GetSubmergedVolumeERKN3JPH5Mat44ENS0_4Vec3ERKNS0_5PlaneERfS8_RS4_, symObjAddr: 0x9E8, symBinAddr: 0x12D694, symSize: 0x10 }
  - { offsetInCU: 0x6BA2, offset: 0x64D5E3, size: 0x8, addend: 0x0, symName: __ZNK24JoltCustomDecoratedShape7CastRayERKN3JPH7RayCastERKNS0_17SubShapeIDCreatorERNS0_13RayCastResultE, symObjAddr: 0x9F8, symBinAddr: 0x24F65C, symSize: 0x10 }
  - { offsetInCU: 0x6BF6, offset: 0x64D637, size: 0x8, addend: 0x0, symName: __ZNK24JoltCustomDecoratedShape7CastRayERKN3JPH7RayCastERKNS0_17SubShapeIDCreatorERNS0_13RayCastResultE, symObjAddr: 0x9F8, symBinAddr: 0x24F65C, symSize: 0x10 }
  - { offsetInCU: 0x6C1D, offset: 0x64D65E, size: 0x8, addend: 0x0, symName: __ZNK24JoltCustomDecoratedShape7CastRayERKN3JPH7RayCastERKNS0_15RayCastSettingsERKNS0_17SubShapeIDCreatorERNS0_18CollisionCollectorINS0_13RayCastResultENS0_31CollisionCollectorTraitsCastRayEEERKNS0_11ShapeFilterE, symObjAddr: 0xA08, symBinAddr: 0x12D9E4, symSize: 0x10 }
  - { offsetInCU: 0x6C8D, offset: 0x64D6CE, size: 0x8, addend: 0x0, symName: __ZNK24JoltCustomDecoratedShape7CastRayERKN3JPH7RayCastERKNS0_15RayCastSettingsERKNS0_17SubShapeIDCreatorERNS0_18CollisionCollectorINS0_13RayCastResultENS0_31CollisionCollectorTraitsCastRayEEERKNS0_11ShapeFilterE, symObjAddr: 0xA08, symBinAddr: 0x12D9E4, symSize: 0x10 }
  - { offsetInCU: 0x6CB4, offset: 0x64D6F5, size: 0x8, addend: 0x0, symName: __ZNK24JoltCustomDecoratedShape12CollidePointEN3JPH4Vec3ERKNS0_17SubShapeIDCreatorERNS0_18CollisionCollectorINS0_18CollidePointResultENS0_36CollisionCollectorTraitsCollideShapeEEERKNS0_11ShapeFilterE, symObjAddr: 0xA18, symBinAddr: 0x24FD84, symSize: 0x10 }
  - { offsetInCU: 0x6D18, offset: 0x64D759, size: 0x8, addend: 0x0, symName: __ZNK24JoltCustomDecoratedShape12CollidePointEN3JPH4Vec3ERKNS0_17SubShapeIDCreatorERNS0_18CollisionCollectorINS0_18CollidePointResultENS0_36CollisionCollectorTraitsCollideShapeEEERKNS0_11ShapeFilterE, symObjAddr: 0xA18, symBinAddr: 0x24FD84, symSize: 0x10 }
  - { offsetInCU: 0x6D3F, offset: 0x64D780, size: 0x8, addend: 0x0, symName: __ZNK24JoltCustomDecoratedShape23CollideSoftBodyVerticesERKN3JPH5Mat44ENS0_4Vec3EPNS0_14SoftBodyVertexEjfS4_i, symObjAddr: 0xA28, symBinAddr: 0x12DC74, symSize: 0x18 }
  - { offsetInCU: 0x6DF8, offset: 0x64D839, size: 0x8, addend: 0x0, symName: __ZNK24JoltCustomDecoratedShape24CollectTransformedShapesERKN3JPH5AABoxENS0_4Vec3ENS0_4QuatES4_RKNS0_17SubShapeIDCreatorERNS0_18CollisionCollectorINS0_16TransformedShapeENS0_36CollisionCollectorTraitsCollideShapeEEERKNS0_11ShapeFilterE, symObjAddr: 0xA40, symBinAddr: 0x2504BC, symSize: 0x20 }
  - { offsetInCU: 0x6EB4, offset: 0x64D8F5, size: 0x8, addend: 0x0, symName: __ZNK24JoltCustomDecoratedShape14TransformShapeERKN3JPH5Mat44ERNS0_18CollisionCollectorINS0_16TransformedShapeENS0_36CollisionCollectorTraitsCollideShapeEEE, symObjAddr: 0xA60, symBinAddr: 0x12DDDC, symSize: 0x10 }
  - { offsetInCU: 0x6EFA, offset: 0x64D93B, size: 0x8, addend: 0x0, symName: __ZNK24JoltCustomDecoratedShape14TransformShapeERKN3JPH5Mat44ERNS0_18CollisionCollectorINS0_16TransformedShapeENS0_36CollisionCollectorTraitsCollideShapeEEE, symObjAddr: 0xA60, symBinAddr: 0x12DDDC, symSize: 0x10 }
  - { offsetInCU: 0x6F21, offset: 0x64D962, size: 0x8, addend: 0x0, symName: __ZNK24JoltCustomDecoratedShape17GetTrianglesStartERN3JPH5Shape19GetTrianglesContextERKNS0_5AABoxENS0_4Vec3ENS0_4QuatES7_, symObjAddr: 0xA70, symBinAddr: 0x250BC0, symSize: 0x18 }
  - { offsetInCU: 0x6FBD, offset: 0x64D9FE, size: 0x8, addend: 0x0, symName: __ZNK24JoltCustomDecoratedShape16GetTrianglesNextERN3JPH5Shape19GetTrianglesContextEiPNS0_6Float3EPPKNS0_15PhysicsMaterialE, symObjAddr: 0xA88, symBinAddr: 0x12DEE8, symSize: 0x10 }
  - { offsetInCU: 0x701F, offset: 0x64DA60, size: 0x8, addend: 0x0, symName: __ZNK24JoltCustomDecoratedShape16GetTrianglesNextERN3JPH5Shape19GetTrianglesContextEiPNS0_6Float3EPPKNS0_15PhysicsMaterialE, symObjAddr: 0xA88, symBinAddr: 0x12DEE8, symSize: 0x10 }
  - { offsetInCU: 0x7046, offset: 0x64DA87, size: 0x8, addend: 0x0, symName: __ZNK3JPH5Shape17SaveMaterialStateERNS_5ArrayINS_8RefConstINS_15PhysicsMaterialEEENS_12STLAllocatorIS4_EEEE, symObjAddr: 0xA98, symBinAddr: 0x2512FC, symSize: 0x4 }
  - { offsetInCU: 0x707A, offset: 0x64DABB, size: 0x8, addend: 0x0, symName: __ZN3JPH5Shape20RestoreMaterialStateEPKNS_8RefConstINS_15PhysicsMaterialEEEj, symObjAddr: 0xA9C, symBinAddr: 0x12E0B4, symSize: 0x4 }
  - { offsetInCU: 0x70BD, offset: 0x64DAFE, size: 0x8, addend: 0x0, symName: __ZNK24JoltCustomDecoratedShape8GetStatsEv, symObjAddr: 0xAA0, symBinAddr: 0x251A64, symSize: 0xC }
  - { offsetInCU: 0x70E4, offset: 0x64DB25, size: 0x8, addend: 0x0, symName: __ZNK24JoltCustomDecoratedShape9GetVolumeEv, symObjAddr: 0xAAC, symBinAddr: 0x12E248, symSize: 0x10 }
  - { offsetInCU: 0x710E, offset: 0x64DB4F, size: 0x8, addend: 0x0, symName: __ZNK24JoltCustomDecoratedShape9GetVolumeEv, symObjAddr: 0xAAC, symBinAddr: 0x12E248, symSize: 0x10 }
  - { offsetInCU: 0x7135, offset: 0x64DB76, size: 0x8, addend: 0x0, symName: __ZNK24JoltCustomDecoratedShape12IsValidScaleEN3JPH4Vec3E, symObjAddr: 0xABC, symBinAddr: 0x251F48, symSize: 0x10 }
  - { offsetInCU: 0x716F, offset: 0x64DBB0, size: 0x8, addend: 0x0, symName: __ZNK24JoltCustomDecoratedShape12IsValidScaleEN3JPH4Vec3E, symObjAddr: 0xABC, symBinAddr: 0x251F48, symSize: 0x10 }
  - { offsetInCU: 0x32C3, offset: 0x650F27, size: 0x8, addend: 0x0, symName: __ZN20JoltCustomEmptyShape13register_typeEv, symObjAddr: 0x0, symBinAddr: 0x25E314, symSize: 0x228 }
  - { offsetInCU: 0x3596, offset: 0x6511FA, size: 0x8, addend: 0x0, symName: __ZN12_GLOBAL__N_115construct_emptyEv.llvm.15813297193531259728, symObjAddr: 0x228, symBinAddr: 0x134D8C, symSize: 0x40 }
  - { offsetInCU: 0x3765, offset: 0x6513C9, size: 0x8, addend: 0x0, symName: __ZN12_GLOBAL__N_112collide_noopEPKN3JPH5ShapeES3_NS0_4Vec3ES4_RKNS0_5Mat44ES7_RKNS0_17SubShapeIDCreatorESA_RKNS0_20CollideShapeSettingsERNS0_18CollisionCollectorINS0_18CollideShapeResultENS0_36CollisionCollectorTraitsCollideShapeEEERKNS0_11ShapeFilterE.llvm.15813297193531259728, symObjAddr: 0x268, symBinAddr: 0x25E728, symSize: 0x4 }
  - { offsetInCU: 0x3804, offset: 0x651468, size: 0x8, addend: 0x0, symName: __ZN12_GLOBAL__N_19cast_noopERKN3JPH9ShapeCastERKNS0_17ShapeCastSettingsEPKNS0_5ShapeENS0_4Vec3ERKNS0_11ShapeFilterERKNS0_5Mat44ERKNS0_17SubShapeIDCreatorESJ_RNS0_18CollisionCollectorINS0_15ShapeCastResultENS0_33CollisionCollectorTraitsCastShapeEEE.llvm.15813297193531259728, symObjAddr: 0x26C, symBinAddr: 0x135260, symSize: 0x4 }
  - { offsetInCU: 0x388C, offset: 0x6514F0, size: 0x8, addend: 0x0, symName: __ZNK20JoltCustomEmptyShape15GetCenterOfMassEv, symObjAddr: 0x270, symBinAddr: 0x25E958, symSize: 0xC }
  - { offsetInCU: 0x38B5, offset: 0x651519, size: 0x8, addend: 0x0, symName: __ZNK20JoltCustomEmptyShape17GetMassPropertiesEv, symObjAddr: 0x27C, symBinAddr: 0x13534C, symSize: 0x20 }
  - { offsetInCU: 0x38E9, offset: 0x65154D, size: 0x8, addend: 0x0, symName: __ZN20JoltCustomEmptyShapeD1Ev, symObjAddr: 0x29C, symBinAddr: 0x25EA78, symSize: 0x4 }
  - { offsetInCU: 0x3928, offset: 0x65158C, size: 0x8, addend: 0x0, symName: __ZN20JoltCustomEmptyShapeD0Ev, symObjAddr: 0x2A0, symBinAddr: 0x13548C, symSize: 0xC }
  - { offsetInCU: 0x3956, offset: 0x6515BA, size: 0x8, addend: 0x0, symName: __ZN20JoltCustomEmptyShapeD0Ev, symObjAddr: 0x2A0, symBinAddr: 0x13548C, symSize: 0xC }
  - { offsetInCU: 0x397B, offset: 0x6515DF, size: 0x8, addend: 0x0, symName: __ZNK3JPH5Shape12MustBeStaticEv, symObjAddr: 0x2AC, symBinAddr: 0x25EDC8, symSize: 0x8 }
  - { offsetInCU: 0x3A0B, offset: 0x65166F, size: 0x8, addend: 0x0, symName: __ZNK20JoltCustomEmptyShape14GetLocalBoundsEv, symObjAddr: 0x2B4, symBinAddr: 0x1356A8, symSize: 0xC }
  - { offsetInCU: 0x3A33, offset: 0x651697, size: 0x8, addend: 0x0, symName: __ZNK20JoltCustomEmptyShape14GetLocalBoundsEv, symObjAddr: 0x2B4, symBinAddr: 0x1356A8, symSize: 0xC }
  - { offsetInCU: 0x3A7C, offset: 0x6516E0, size: 0x8, addend: 0x0, symName: __ZNK20JoltCustomEmptyShape14GetLocalBoundsEv, symObjAddr: 0x2B4, symBinAddr: 0x1356A8, symSize: 0xC }
  - { offsetInCU: 0x3AC4, offset: 0x651728, size: 0x8, addend: 0x0, symName: __ZNK20JoltCustomEmptyShape26GetSubShapeIDBitsRecursiveEv, symObjAddr: 0x2C0, symBinAddr: 0x25EF0C, symSize: 0x8 }
  - { offsetInCU: 0x3C95, offset: 0x6518F9, size: 0x8, addend: 0x0, symName: __ZNK3JPH5Shape19GetWorldSpaceBoundsERKNS_5Mat44ENS_4Vec3E, symObjAddr: 0x2C8, symBinAddr: 0x135A34, symSize: 0xB8 }
  - { offsetInCU: 0x3F2D, offset: 0x651B91, size: 0x8, addend: 0x0, symName: __ZNK20JoltCustomEmptyShape14GetInnerRadiusEv, symObjAddr: 0x380, symBinAddr: 0x25F164, symSize: 0x8 }
  - { offsetInCU: 0x3F68, offset: 0x651BCC, size: 0x8, addend: 0x0, symName: __ZNK20JoltCustomEmptyShape11GetMaterialERKN3JPH10SubShapeIDE, symObjAddr: 0x388, symBinAddr: 0x135D3C, symSize: 0xC }
  - { offsetInCU: 0x3FA0, offset: 0x651C04, size: 0x8, addend: 0x0, symName: __ZNK20JoltCustomEmptyShape11GetMaterialERKN3JPH10SubShapeIDE, symObjAddr: 0x388, symBinAddr: 0x135D3C, symSize: 0xC }
  - { offsetInCU: 0x3FB2, offset: 0x651C16, size: 0x8, addend: 0x0, symName: __ZNK20JoltCustomEmptyShape16GetSurfaceNormalERKN3JPH10SubShapeIDENS0_4Vec3E, symObjAddr: 0x394, symBinAddr: 0x25F464, symSize: 0xC }
  - { offsetInCU: 0x3FF7, offset: 0x651C5B, size: 0x8, addend: 0x0, symName: __ZNK3JPH5Shape17GetSupportingFaceERKNS_10SubShapeIDENS_4Vec3ES4_RKNS_5Mat44ERNS_11StaticArrayIS4_Lj32EEE, symObjAddr: 0x3A0, symBinAddr: 0x135E94, symSize: 0x4 }
  - { offsetInCU: 0x4062, offset: 0x651CC6, size: 0x8, addend: 0x0, symName: __ZNK3JPH5Shape19GetSubShapeUserDataERKNS_10SubShapeIDE, symObjAddr: 0x3A4, symBinAddr: 0x25F5E8, symSize: 0x8 }
  - { offsetInCU: 0x4097, offset: 0x651CFB, size: 0x8, addend: 0x0, symName: __ZNK20JoltCustomEmptyShape18GetSubmergedVolumeERKN3JPH5Mat44ENS0_4Vec3ERKNS0_5PlaneERfS8_RS4_, symObjAddr: 0x3AC, symBinAddr: 0x1360D4, symSize: 0x10 }
  - { offsetInCU: 0x4110, offset: 0x651D74, size: 0x8, addend: 0x0, symName: __ZNK20JoltCustomEmptyShape7CastRayERKN3JPH7RayCastERKNS0_17SubShapeIDCreatorERNS0_13RayCastResultE, symObjAddr: 0x3BC, symBinAddr: 0x25F6D8, symSize: 0x8 }
  - { offsetInCU: 0x4161, offset: 0x651DC5, size: 0x8, addend: 0x0, symName: __ZNK20JoltCustomEmptyShape7CastRayERKN3JPH7RayCastERKNS0_15RayCastSettingsERKNS0_17SubShapeIDCreatorERNS0_18CollisionCollectorINS0_13RayCastResultENS0_31CollisionCollectorTraitsCastRayEEERKNS0_11ShapeFilterE, symObjAddr: 0x3C4, symBinAddr: 0x1362B0, symSize: 0x4 }
  - { offsetInCU: 0x41CC, offset: 0x651E30, size: 0x8, addend: 0x0, symName: __ZNK20JoltCustomEmptyShape12CollidePointEN3JPH4Vec3ERKNS0_17SubShapeIDCreatorERNS0_18CollisionCollectorINS0_18CollidePointResultENS0_36CollisionCollectorTraitsCollideShapeEEERKNS0_11ShapeFilterE, symObjAddr: 0x3C8, symBinAddr: 0x25F7C8, symSize: 0x4 }
  - { offsetInCU: 0x4229, offset: 0x651E8D, size: 0x8, addend: 0x0, symName: __ZNK20JoltCustomEmptyShape23CollideSoftBodyVerticesERKN3JPH5Mat44ENS0_4Vec3EPNS0_14SoftBodyVertexEjfS4_i, symObjAddr: 0x3CC, symBinAddr: 0x136394, symSize: 0x4 }
  - { offsetInCU: 0x42B2, offset: 0x651F16, size: 0x8, addend: 0x0, symName: __ZNK20JoltCustomEmptyShape17GetTrianglesStartERN3JPH5Shape19GetTrianglesContextERKNS0_5AABoxENS0_4Vec3ENS0_4QuatES7_, symObjAddr: 0x3D0, symBinAddr: 0x25F9B0, symSize: 0x4 }
  - { offsetInCU: 0x431E, offset: 0x651F82, size: 0x8, addend: 0x0, symName: __ZNK20JoltCustomEmptyShape16GetTrianglesNextERN3JPH5Shape19GetTrianglesContextEiPNS0_6Float3EPPKNS0_15PhysicsMaterialE, symObjAddr: 0x3D4, symBinAddr: 0x13657C, symSize: 0x8 }
  - { offsetInCU: 0x437D, offset: 0x651FE1, size: 0x8, addend: 0x0, symName: __ZNK3JPH5Shape17SaveSubShapeStateERNS_5ArrayINS_8RefConstIS0_EENS_12STLAllocatorIS3_EEEE, symObjAddr: 0x3DC, symBinAddr: 0x25FB98, symSize: 0x4 }
  - { offsetInCU: 0x43B1, offset: 0x652015, size: 0x8, addend: 0x0, symName: __ZN3JPH5Shape20RestoreSubShapeStateEPKNS_8RefConstIS0_EEj, symObjAddr: 0x3E0, symBinAddr: 0x1368D8, symSize: 0x4 }
  - { offsetInCU: 0x43F4, offset: 0x652058, size: 0x8, addend: 0x0, symName: __ZNK20JoltCustomEmptyShape8GetStatsEv, symObjAddr: 0x3E4, symBinAddr: 0x25FC98, symSize: 0xC }
  - { offsetInCU: 0x441B, offset: 0x65207F, size: 0x8, addend: 0x0, symName: __ZNK20JoltCustomEmptyShape9GetVolumeEv, symObjAddr: 0x3F0, symBinAddr: 0x1369C0, symSize: 0x8 }
  - { offsetInCU: 0x4440, offset: 0x6520A4, size: 0x8, addend: 0x0, symName: __ZNK20JoltCustomEmptyShape12IsValidScaleEN3JPH4Vec3E, symObjAddr: 0x3F8, symBinAddr: 0x25FDA8, symSize: 0x8 }
  - { offsetInCU: 0x6536, offset: 0x658638, size: 0x8, addend: 0x0, symName: __ZNK21JoltCustomMotionShape14GetLocalBoundsEv, symObjAddr: 0x0, symBinAddr: 0x268408, symSize: 0x50 }
  - { offsetInCU: 0x662F, offset: 0x658731, size: 0x8, addend: 0x0, symName: __ZNK21JoltCustomMotionShape17GetSupportingFaceERKN3JPH10SubShapeIDENS0_4Vec3ES4_RKNS0_5Mat44ERNS0_11StaticArrayIS4_Lj32EEE, symObjAddr: 0x50, symBinAddr: 0x13E7C4, symSize: 0x4 }
  - { offsetInCU: 0x67AB, offset: 0x6588AD, size: 0x8, addend: 0x0, symName: __ZNK21JoltCustomMotionShape18GetSupportFunctionEN3JPH11ConvexShape12ESupportModeERNS1_13SupportBufferENS0_4Vec3E, symObjAddr: 0x54, symBinAddr: 0x2687D0, symSize: 0x5C }
  - { offsetInCU: 0x6948, offset: 0x658A4A, size: 0x8, addend: 0x0, symName: __ZN21JoltCustomMotionShapeD1Ev, symObjAddr: 0xB0, symBinAddr: 0x13E914, symSize: 0x60 }
  - { offsetInCU: 0x6AE3, offset: 0x658BE5, size: 0x8, addend: 0x0, symName: __ZN21JoltCustomMotionShapeD0Ev, symObjAddr: 0x110, symBinAddr: 0x2689B0, symSize: 0x68 }
  - { offsetInCU: 0x6C9F, offset: 0x658DA1, size: 0x8, addend: 0x0, symName: __ZNK21JoltCustomMotionShape12MustBeStaticEv, symObjAddr: 0x178, symBinAddr: 0x13EA9C, symSize: 0x8 }
  - { offsetInCU: 0x6CC6, offset: 0x658DC8, size: 0x8, addend: 0x0, symName: __ZNK21JoltCustomMotionShape15GetCenterOfMassEv, symObjAddr: 0x180, symBinAddr: 0x268C10, symSize: 0x168 }
  - { offsetInCU: 0x70A2, offset: 0x6591A4, size: 0x8, addend: 0x0, symName: __ZNK21JoltCustomMotionShape26GetSubShapeIDBitsRecursiveEv, symObjAddr: 0x2E8, symBinAddr: 0x13EB58, symSize: 0x164 }
  - { offsetInCU: 0x74B2, offset: 0x6595B4, size: 0x8, addend: 0x0, symName: __ZNK21JoltCustomMotionShape19GetWorldSpaceBoundsERKN3JPH5Mat44ENS0_4Vec3E, symObjAddr: 0x44C, symBinAddr: 0x268EC8, symSize: 0x178 }
  - { offsetInCU: 0x78E6, offset: 0x6599E8, size: 0x8, addend: 0x0, symName: __ZNK21JoltCustomMotionShape14GetInnerRadiusEv, symObjAddr: 0x5C4, symBinAddr: 0x13EE78, symSize: 0x164 }
  - { offsetInCU: 0x7D68, offset: 0x659E6A, size: 0x8, addend: 0x0, symName: __ZNK21JoltCustomMotionShape17GetMassPropertiesEv, symObjAddr: 0x728, symBinAddr: 0x269430, symSize: 0x174 }
  - { offsetInCU: 0x824D, offset: 0x65A34F, size: 0x8, addend: 0x0, symName: __ZNK21JoltCustomMotionShape11GetMaterialERKN3JPH10SubShapeIDE, symObjAddr: 0x89C, symBinAddr: 0x13F0E8, symSize: 0x164 }
  - { offsetInCU: 0x8639, offset: 0x65A73B, size: 0x8, addend: 0x0, symName: __ZNK21JoltCustomMotionShape16GetSurfaceNormalERKN3JPH10SubShapeIDENS0_4Vec3E, symObjAddr: 0xA00, symBinAddr: 0x270420, symSize: 0x168 }
  - { offsetInCU: 0x8A35, offset: 0x65AB37, size: 0x8, addend: 0x0, symName: __ZNK21JoltCustomMotionShape19GetSubShapeUserDataERKN3JPH10SubShapeIDE, symObjAddr: 0xB68, symBinAddr: 0x13F39C, symSize: 0x164 }
  - { offsetInCU: 0x8F8A, offset: 0x65B08C, size: 0x8, addend: 0x0, symName: __ZNK21JoltCustomMotionShape27GetSubShapeTransformedShapeERKN3JPH10SubShapeIDENS0_4Vec3ENS0_4QuatES4_RS1_, symObjAddr: 0xCCC, symBinAddr: 0x270C4C, symSize: 0x18C }
  - { offsetInCU: 0x951F, offset: 0x65B621, size: 0x8, addend: 0x0, symName: __ZNK21JoltCustomMotionShape18GetSubmergedVolumeERKN3JPH5Mat44ENS0_4Vec3ERKNS0_5PlaneERfS8_RS4_, symObjAddr: 0xE58, symBinAddr: 0x13F5FC, symSize: 0x160 }
  - { offsetInCU: 0x995D, offset: 0x65BA5F, size: 0x8, addend: 0x0, symName: __ZNK21JoltCustomMotionShape7CastRayERKN3JPH7RayCastERKNS0_17SubShapeIDCreatorERNS0_13RayCastResultE, symObjAddr: 0xFB8, symBinAddr: 0x2710E0, symSize: 0x164 }
  - { offsetInCU: 0x9D6B, offset: 0x65BE6D, size: 0x8, addend: 0x0, symName: __ZNK21JoltCustomMotionShape7CastRayERKN3JPH7RayCastERKNS0_15RayCastSettingsERKNS0_17SubShapeIDCreatorERNS0_18CollisionCollectorINS0_13RayCastResultENS0_31CollisionCollectorTraitsCastRayEEERKNS0_11ShapeFilterE, symObjAddr: 0x111C, symBinAddr: 0x13FA9C, symSize: 0x160 }
  - { offsetInCU: 0xA199, offset: 0x65C29B, size: 0x8, addend: 0x0, symName: __ZNK21JoltCustomMotionShape12CollidePointEN3JPH4Vec3ERKNS0_17SubShapeIDCreatorERNS0_18CollisionCollectorINS0_18CollidePointResultENS0_36CollisionCollectorTraitsCollideShapeEEERKNS0_11ShapeFilterE, symObjAddr: 0x127C, symBinAddr: 0x271AEC, symSize: 0x160 }
  - { offsetInCU: 0xA5B7, offset: 0x65C6B9, size: 0x8, addend: 0x0, symName: __ZNK21JoltCustomMotionShape23CollideSoftBodyVerticesERKN3JPH5Mat44ENS0_4Vec3EPNS0_14SoftBodyVertexEjfS4_i, symObjAddr: 0x13DC, symBinAddr: 0x13FCB4, symSize: 0x160 }
  - { offsetInCU: 0xAA04, offset: 0x65CB06, size: 0x8, addend: 0x0, symName: __ZNK21JoltCustomMotionShape24CollectTransformedShapesERKN3JPH5AABoxENS0_4Vec3ENS0_4QuatES4_RKNS0_17SubShapeIDCreatorERNS0_18CollisionCollectorINS0_16TransformedShapeENS0_36CollisionCollectorTraitsCollideShapeEEERKNS0_11ShapeFilterE, symObjAddr: 0x153C, symBinAddr: 0x2721A8, symSize: 0x160 }
  - { offsetInCU: 0xAE4F, offset: 0x65CF51, size: 0x8, addend: 0x0, symName: __ZNK21JoltCustomMotionShape14TransformShapeERKN3JPH5Mat44ERNS0_18CollisionCollectorINS0_16TransformedShapeENS0_36CollisionCollectorTraitsCollideShapeEEE, symObjAddr: 0x169C, symBinAddr: 0x13FE8C, symSize: 0x160 }
  - { offsetInCU: 0xB24D, offset: 0x65D34F, size: 0x8, addend: 0x0, symName: __ZNK21JoltCustomMotionShape17GetTrianglesStartERN3JPH5Shape19GetTrianglesContextERKNS0_5AABoxENS0_4Vec3ENS0_4QuatES7_, symObjAddr: 0x17FC, symBinAddr: 0x272720, symSize: 0x160 }
  - { offsetInCU: 0xB67A, offset: 0x65D77C, size: 0x8, addend: 0x0, symName: __ZNK21JoltCustomMotionShape16GetTrianglesNextERN3JPH5Shape19GetTrianglesContextEiPNS0_6Float3EPPKNS0_15PhysicsMaterialE, symObjAddr: 0x195C, symBinAddr: 0x14023C, symSize: 0x164 }
  - { offsetInCU: 0xBA98, offset: 0x65DB9A, size: 0x8, addend: 0x0, symName: __ZNK21JoltCustomMotionShape8GetStatsEv, symObjAddr: 0x1AC0, symBinAddr: 0x272EBC, symSize: 0xC }
  - { offsetInCU: 0xBABF, offset: 0x65DBC1, size: 0x8, addend: 0x0, symName: __ZNK21JoltCustomMotionShape9GetVolumeEv, symObjAddr: 0x1ACC, symBinAddr: 0x1405F0, symSize: 0x164 }
  - { offsetInCU: 0xBE9D, offset: 0x65DF9F, size: 0x8, addend: 0x0, symName: __ZNK21JoltCustomMotionShape12IsValidScaleEN3JPH4Vec3E, symObjAddr: 0x1C30, symBinAddr: 0x273554, symSize: 0x164 }
  - { offsetInCU: 0xC28B, offset: 0x65E38D, size: 0x8, addend: 0x0, symName: __ZN12_GLOBAL__N_123JoltMotionConvexSupportD1Ev, symObjAddr: 0x1D94, symBinAddr: 0x1408A0, symSize: 0x4 }
  - { offsetInCU: 0xC2B6, offset: 0x65E3B8, size: 0x8, addend: 0x0, symName: __ZN12_GLOBAL__N_123JoltMotionConvexSupportD0Ev, symObjAddr: 0x1D98, symBinAddr: 0x2738C8, symSize: 0x4 }
  - { offsetInCU: 0xC33A, offset: 0x65E43C, size: 0x8, addend: 0x0, symName: __ZNK12_GLOBAL__N_123JoltMotionConvexSupport10GetSupportEN3JPH4Vec3E, symObjAddr: 0x1D9C, symBinAddr: 0x1409CC, symSize: 0x80 }
  - { offsetInCU: 0xC3CE, offset: 0x65E4D0, size: 0x8, addend: 0x0, symName: __ZNK12_GLOBAL__N_123JoltMotionConvexSupport15GetConvexRadiusEv, symObjAddr: 0x1E1C, symBinAddr: 0x273B2C, symSize: 0x10 }
  - { offsetInCU: 0x48A1, offset: 0x663185, size: 0x8, addend: 0x0, symName: __ZNK26JoltCustomRayShapeSettings6CreateEv, symObjAddr: 0x0, symBinAddr: 0x27E348, symSize: 0x230 }
  - { offsetInCU: 0x540C, offset: 0x663CF0, size: 0x8, addend: 0x0, symName: __ZN12_GLOBAL__N_113construct_rayEv.llvm.4844697417872670786, symObjAddr: 0x2D0, symBinAddr: 0x14788C, symSize: 0x54 }
  - { offsetInCU: 0x566F, offset: 0x663F53, size: 0x8, addend: 0x0, symName: __ZN12_GLOBAL__N_120collide_ray_vs_shapeEPKN3JPH5ShapeES3_NS0_4Vec3ES4_RKNS0_5Mat44ES7_RKNS0_17SubShapeIDCreatorESA_RKNS0_20CollideShapeSettingsERNS0_18CollisionCollectorINS0_18CollideShapeResultENS0_36CollisionCollectorTraitsCollideShapeEEERKNS0_11ShapeFilterE.llvm.4844697417872670786, symObjAddr: 0x324, symBinAddr: 0x27E7E0, symSize: 0x518 }
  - { offsetInCU: 0x5EF3, offset: 0x6647D7, size: 0x8, addend: 0x0, symName: __ZN12_GLOBAL__N_112collide_noopEPKN3JPH5ShapeES3_NS0_4Vec3ES4_RKNS0_5Mat44ES7_RKNS0_17SubShapeIDCreatorESA_RKNS0_20CollideShapeSettingsERNS0_18CollisionCollectorINS0_18CollideShapeResultENS0_36CollisionCollectorTraitsCollideShapeEEERKNS0_11ShapeFilterE.llvm.4844697417872670786, symObjAddr: 0x83C, symBinAddr: 0x1479C4, symSize: 0x4 }
  - { offsetInCU: 0x5F92, offset: 0x664876, size: 0x8, addend: 0x0, symName: __ZN12_GLOBAL__N_19cast_noopERKN3JPH9ShapeCastERKNS0_17ShapeCastSettingsEPKNS0_5ShapeENS0_4Vec3ERKNS0_11ShapeFilterERKNS0_5Mat44ERKNS0_17SubShapeIDCreatorESJ_RNS0_18CollisionCollectorINS0_15ShapeCastResultENS0_33CollisionCollectorTraitsCastShapeEEE.llvm.4844697417872670786, symObjAddr: 0x840, symBinAddr: 0x27F0CC, symSize: 0x4 }
  - { offsetInCU: 0x6A66, offset: 0x66534A, size: 0x8, addend: 0x0, symName: __ZNK18JoltCustomRayShape14GetLocalBoundsEv, symObjAddr: 0x844, symBinAddr: 0x147D18, symSize: 0x20 }
  - { offsetInCU: 0x6B80, offset: 0x665464, size: 0x8, addend: 0x0, symName: __ZNK18JoltCustomRayShape17GetMassPropertiesEv, symObjAddr: 0x864, symBinAddr: 0x27F498, symSize: 0x30 }
  - { offsetInCU: 0x6C14, offset: 0x6654F8, size: 0x8, addend: 0x0, symName: __ZNK18JoltCustomRayShape18GetSupportFunctionEN3JPH11ConvexShape12ESupportModeERNS1_13SupportBufferENS0_4Vec3E, symObjAddr: 0x894, symBinAddr: 0x148058, symSize: 0x24 }
  - { offsetInCU: 0x6DA1, offset: 0x665685, size: 0x8, addend: 0x0, symName: __ZN26JoltCustomRayShapeSettingsD1Ev, symObjAddr: 0x8B8, symBinAddr: 0x1480C8, symSize: 0x118 }
  - { offsetInCU: 0x726B, offset: 0x665B4F, size: 0x8, addend: 0x0, symName: __ZN26JoltCustomRayShapeSettingsD0Ev, symObjAddr: 0x9D0, symBinAddr: 0x1481E0, symSize: 0x120 }
  - { offsetInCU: 0x778E, offset: 0x666072, size: 0x8, addend: 0x0, symName: __ZN18JoltCustomRayShapeD1Ev, symObjAddr: 0xAF0, symBinAddr: 0x9FA78, symSize: 0x94 }
  - { offsetInCU: 0x7A3A, offset: 0x66631E, size: 0x8, addend: 0x0, symName: __ZN18JoltCustomRayShapeD0Ev, symObjAddr: 0xB84, symBinAddr: 0x2809C0, symSize: 0x9C }
  - { offsetInCU: 0x7D07, offset: 0x6665EB, size: 0x8, addend: 0x0, symName: __ZNK3JPH5Shape15GetCenterOfMassEv, symObjAddr: 0xC20, symBinAddr: 0x280E40, symSize: 0xC }
  - { offsetInCU: 0x7D2E, offset: 0x666612, size: 0x8, addend: 0x0, symName: __ZNK3JPH11ConvexShape26GetSubShapeIDBitsRecursiveEv, symObjAddr: 0xC2C, symBinAddr: 0x148E50, symSize: 0x8 }
  - { offsetInCU: 0x7D55, offset: 0x666639, size: 0x8, addend: 0x0, symName: __ZNK18JoltCustomRayShape14GetInnerRadiusEv, symObjAddr: 0xC34, symBinAddr: 0x1BA8C, symSize: 0x8 }
  - { offsetInCU: 0x7DCB, offset: 0x6666AF, size: 0x8, addend: 0x0, symName: __ZNK3JPH11ConvexShape11GetMaterialERKNS_10SubShapeIDE, symObjAddr: 0xC3C, symBinAddr: 0x281800, symSize: 0x18 }
  - { offsetInCU: 0x7E03, offset: 0x6666E7, size: 0x8, addend: 0x0, symName: __ZNK3JPH11ConvexShape11GetMaterialERKNS_10SubShapeIDE, symObjAddr: 0xC3C, symBinAddr: 0x281800, symSize: 0x18 }
  - { offsetInCU: 0x7E1E, offset: 0x666702, size: 0x8, addend: 0x0, symName: __ZNK3JPH11ConvexShape11GetMaterialERKNS_10SubShapeIDE, symObjAddr: 0xC3C, symBinAddr: 0x281800, symSize: 0x18 }
  - { offsetInCU: 0x7E56, offset: 0x66673A, size: 0x8, addend: 0x0, symName: __ZNK18JoltCustomRayShape16GetSurfaceNormalERKN3JPH10SubShapeIDENS0_4Vec3E, symObjAddr: 0xC54, symBinAddr: 0x14948C, symSize: 0xC }
  - { offsetInCU: 0x7E91, offset: 0x666775, size: 0x8, addend: 0x0, symName: __ZNK18JoltCustomRayShape18GetSubmergedVolumeERKN3JPH5Mat44ENS0_4Vec3ERKNS0_5PlaneERfS8_RS4_, symObjAddr: 0xC60, symBinAddr: 0x281C0C, symSize: 0x10 }
  - { offsetInCU: 0x7F02, offset: 0x6667E6, size: 0x8, addend: 0x0, symName: __ZNK18JoltCustomRayShape7CastRayERKN3JPH7RayCastERKNS0_17SubShapeIDCreatorERNS0_13RayCastResultE, symObjAddr: 0xC70, symBinAddr: 0x281D4C, symSize: 0x8 }
  - { offsetInCU: 0x7F49, offset: 0x66682D, size: 0x8, addend: 0x0, symName: __ZNK18JoltCustomRayShape7CastRayERKN3JPH7RayCastERKNS0_15RayCastSettingsERKNS0_17SubShapeIDCreatorERNS0_18CollisionCollectorINS0_13RayCastResultENS0_31CollisionCollectorTraitsCastRayEEERKNS0_11ShapeFilterE, symObjAddr: 0xC78, symBinAddr: 0x149A88, symSize: 0x4 }
  - { offsetInCU: 0x7FA8, offset: 0x66688C, size: 0x8, addend: 0x0, symName: __ZNK18JoltCustomRayShape12CollidePointEN3JPH4Vec3ERKNS0_17SubShapeIDCreatorERNS0_18CollisionCollectorINS0_18CollidePointResultENS0_36CollisionCollectorTraitsCollideShapeEEERKNS0_11ShapeFilterE, symObjAddr: 0xC7C, symBinAddr: 0x2827EC, symSize: 0x4 }
  - { offsetInCU: 0x7FFB, offset: 0x6668DF, size: 0x8, addend: 0x0, symName: __ZNK18JoltCustomRayShape23CollideSoftBodyVerticesERKN3JPH5Mat44ENS0_4Vec3EPNS0_14SoftBodyVertexEjfS4_i, symObjAddr: 0xC80, symBinAddr: 0x282C54, symSize: 0x4 }
  - { offsetInCU: 0x8072, offset: 0x666956, size: 0x8, addend: 0x0, symName: __ZNK18JoltCustomRayShape8GetStatsEv, symObjAddr: 0xC84, symBinAddr: 0x14A43C, symSize: 0xC }
  - { offsetInCU: 0x8095, offset: 0x666979, size: 0x8, addend: 0x0, symName: __ZNK18JoltCustomRayShape9GetVolumeEv, symObjAddr: 0xC90, symBinAddr: 0x14A448, symSize: 0x8 }
  - { offsetInCU: 0x812A, offset: 0x666A0E, size: 0x8, addend: 0x0, symName: __ZNK3JPH5Shape12IsValidScaleENS_4Vec3E, symObjAddr: 0xC98, symBinAddr: 0x14A49C, symSize: 0x30 }
  - { offsetInCU: 0x81BD, offset: 0x666AA1, size: 0x8, addend: 0x0, symName: __ZN3JPH11ShapeFilterD1Ev, symObjAddr: 0xCC8, symBinAddr: 0x283C74, symSize: 0x4 }
  - { offsetInCU: 0x81E6, offset: 0x666ACA, size: 0x8, addend: 0x0, symName: __ZN25JoltQueryCollectorClosestIN3JPH18CollisionCollectorINS0_13RayCastResultENS0_31CollisionCollectorTraitsCastRayEEEED1Ev, symObjAddr: 0xCCC, symBinAddr: 0x283F88, symSize: 0x4 }
  - { offsetInCU: 0x8211, offset: 0x666AF5, size: 0x8, addend: 0x0, symName: __ZN25JoltQueryCollectorClosestIN3JPH18CollisionCollectorINS0_13RayCastResultENS0_31CollisionCollectorTraitsCastRayEEEED0Ev, symObjAddr: 0xCD0, symBinAddr: 0x14AE6C, symSize: 0x4 }
  - { offsetInCU: 0x8252, offset: 0x666B36, size: 0x8, addend: 0x0, symName: __ZN25JoltQueryCollectorClosestIN3JPH18CollisionCollectorINS0_13RayCastResultENS0_31CollisionCollectorTraitsCastRayEEEE5ResetEv, symObjAddr: 0xCD4, symBinAddr: 0x284524, symSize: 0x14 }
  - { offsetInCU: 0x8293, offset: 0x666B77, size: 0x8, addend: 0x0, symName: __ZN3JPH18CollisionCollectorINS_13RayCastResultENS_31CollisionCollectorTraitsCastRayEE6OnBodyERKNS_4BodyE, symObjAddr: 0xCE8, symBinAddr: 0x14B554, symSize: 0x4 }
  - { offsetInCU: 0x8303, offset: 0x666BE7, size: 0x8, addend: 0x0, symName: __ZN25JoltQueryCollectorClosestIN3JPH18CollisionCollectorINS0_13RayCastResultENS0_31CollisionCollectorTraitsCastRayEEEE6AddHitERKS2_, symObjAddr: 0xCEC, symBinAddr: 0x2851E8, symSize: 0x38 }
  - { offsetInCU: 0x8349, offset: 0x666C2D, size: 0x8, addend: 0x0, symName: __ZN25JoltQueryCollectorClosestIN3JPH18CollisionCollectorINS0_13RayCastResultENS0_31CollisionCollectorTraitsCastRayEEEE6AddHitERKS2_, symObjAddr: 0xCEC, symBinAddr: 0x2851E8, symSize: 0x38 }
  - { offsetInCU: 0x83A4, offset: 0x666C88, size: 0x8, addend: 0x0, symName: __ZN3JPH11ShapeFilterD0Ev, symObjAddr: 0xD24, symBinAddr: 0x14B7B4, symSize: 0x4 }
  - { offsetInCU: 0x83CD, offset: 0x666CB1, size: 0x8, addend: 0x0, symName: __ZNK3JPH11ShapeFilter13ShouldCollideEPKNS_5ShapeERKNS_10SubShapeIDE, symObjAddr: 0xD28, symBinAddr: 0xA1BA8, symSize: 0x8 }
  - { offsetInCU: 0x8410, offset: 0x666CF4, size: 0x8, addend: 0x0, symName: __ZNK3JPH11ShapeFilter13ShouldCollideEPKNS_5ShapeERKNS_10SubShapeIDES3_S6_, symObjAddr: 0xD30, symBinAddr: 0x286004, symSize: 0x8 }
  - { offsetInCU: 0x846F, offset: 0x666D53, size: 0x8, addend: 0x0, symName: __ZN12_GLOBAL__N_125JoltCustomRayShapeSupportD1Ev, symObjAddr: 0xD38, symBinAddr: 0x286384, symSize: 0x4 }
  - { offsetInCU: 0x849A, offset: 0x666D7E, size: 0x8, addend: 0x0, symName: __ZN12_GLOBAL__N_125JoltCustomRayShapeSupportD0Ev, symObjAddr: 0xD3C, symBinAddr: 0x14D130, symSize: 0x4 }
  - { offsetInCU: 0x84F6, offset: 0x666DDA, size: 0x8, addend: 0x0, symName: __ZNK12_GLOBAL__N_125JoltCustomRayShapeSupport10GetSupportEN3JPH4Vec3E, symObjAddr: 0xD40, symBinAddr: 0x14D54C, symSize: 0x3C }
  - { offsetInCU: 0x85D5, offset: 0x666EB9, size: 0x8, addend: 0x0, symName: __ZNK12_GLOBAL__N_125JoltCustomRayShapeSupport15GetConvexRadiusEv, symObjAddr: 0xD7C, symBinAddr: 0x288E50, symSize: 0x8 }
  - { offsetInCU: 0x415B, offset: 0x66B0D3, size: 0x8, addend: 0x0, symName: __ZNK31JoltCustomUserDataShapeSettings6CreateEv, symObjAddr: 0x0, symBinAddr: 0x1552EC, symSize: 0x1C4 }
  - { offsetInCU: 0x49BA, offset: 0x66B932, size: 0x8, addend: 0x0, symName: __ZN23JoltCustomUserDataShape13register_typeEv, symObjAddr: 0x1C4, symBinAddr: 0x292B44, symSize: 0x238 }
  - { offsetInCU: 0x4CF3, offset: 0x66BC6B, size: 0x8, addend: 0x0, symName: __ZN12_GLOBAL__N_128construct_override_user_dataEv.llvm.9337674620476832797, symObjAddr: 0x3FC, symBinAddr: 0x1554BC, symSize: 0x40 }
  - { offsetInCU: 0x4F44, offset: 0x66BEBC, size: 0x8, addend: 0x0, symName: __ZN12_GLOBAL__N_135collide_override_user_data_vs_shapeEPKN3JPH5ShapeES3_NS0_4Vec3ES4_RKNS0_5Mat44ES7_RKNS0_17SubShapeIDCreatorESA_RKNS0_20CollideShapeSettingsERNS0_18CollisionCollectorINS0_18CollideShapeResultENS0_36CollisionCollectorTraitsCollideShapeEEERKNS0_11ShapeFilterE.llvm.9337674620476832797, symObjAddr: 0x43C, symBinAddr: 0x293294, symSize: 0x144 }
  - { offsetInCU: 0x5188, offset: 0x66C100, size: 0x8, addend: 0x0, symName: __ZN12_GLOBAL__N_135collide_shape_vs_override_user_dataEPKN3JPH5ShapeES3_NS0_4Vec3ES4_RKNS0_5Mat44ES7_RKNS0_17SubShapeIDCreatorESA_RKNS0_20CollideShapeSettingsERNS0_18CollisionCollectorINS0_18CollideShapeResultENS0_36CollisionCollectorTraitsCollideShapeEEERKNS0_11ShapeFilterE.llvm.9337674620476832797, symObjAddr: 0x580, symBinAddr: 0x15564C, symSize: 0x144 }
  - { offsetInCU: 0x53CC, offset: 0x66C344, size: 0x8, addend: 0x0, symName: __ZN12_GLOBAL__N_132cast_override_user_data_vs_shapeERKN3JPH9ShapeCastERKNS0_17ShapeCastSettingsEPKNS0_5ShapeENS0_4Vec3ERKNS0_11ShapeFilterERKNS0_5Mat44ERKNS0_17SubShapeIDCreatorESJ_RNS0_18CollisionCollectorINS0_15ShapeCastResultENS0_33CollisionCollectorTraitsCastShapeEEE.llvm.9337674620476832797, symObjAddr: 0x6C4, symBinAddr: 0x293748, symSize: 0x16C }
  - { offsetInCU: 0x56E7, offset: 0x66C65F, size: 0x8, addend: 0x0, symName: __ZN12_GLOBAL__N_132cast_shape_vs_override_user_dataERKN3JPH9ShapeCastERKNS0_17ShapeCastSettingsEPKNS0_5ShapeENS0_4Vec3ERKNS0_11ShapeFilterERKNS0_5Mat44ERKNS0_17SubShapeIDCreatorESJ_RNS0_18CollisionCollectorINS0_15ShapeCastResultENS0_33CollisionCollectorTraitsCastShapeEEE.llvm.9337674620476832797, symObjAddr: 0x830, symBinAddr: 0x155A9C, symSize: 0x130 }
  - { offsetInCU: 0x5CCA, offset: 0x66CC42, size: 0x8, addend: 0x0, symName: __ZN31JoltCustomUserDataShapeSettingsD1Ev, symObjAddr: 0x960, symBinAddr: 0x29428C, symSize: 0x118 }
  - { offsetInCU: 0x61AB, offset: 0x66D123, size: 0x8, addend: 0x0, symName: __ZN31JoltCustomUserDataShapeSettingsD0Ev, symObjAddr: 0xA78, symBinAddr: 0x156480, symSize: 0x120 }
  - { offsetInCU: 0x6701, offset: 0x66D679, size: 0x8, addend: 0x0, symName: __ZN23JoltCustomUserDataShapeD1Ev, symObjAddr: 0xB98, symBinAddr: 0x294814, symSize: 0x60 }
  - { offsetInCU: 0x68B8, offset: 0x66D830, size: 0x8, addend: 0x0, symName: __ZN23JoltCustomUserDataShapeD0Ev, symObjAddr: 0xBF8, symBinAddr: 0x1565F4, symSize: 0x68 }
  - { offsetInCU: 0x6AA6, offset: 0x66DA1E, size: 0x8, addend: 0x0, symName: __ZNK23JoltCustomUserDataShape19GetSubShapeUserDataERKN3JPH10SubShapeIDE, symObjAddr: 0xC60, symBinAddr: 0x294C7C, symSize: 0x8 }
  - { offsetInCU: 0x6ADE, offset: 0x66DA56, size: 0x8, addend: 0x0, symName: __ZNK23JoltCustomUserDataShape19GetSubShapeUserDataERKN3JPH10SubShapeIDE, symObjAddr: 0xC60, symBinAddr: 0x294C7C, symSize: 0x8 }
  - { offsetInCU: 0x9B8F, offset: 0x677695, size: 0x8, addend: 0x0, symName: __ZNK23JoltCylinderShapeImpl3D8get_dataEv, symObjAddr: 0x0, symBinAddr: 0x164A68, symSize: 0x1E4 }
  - { offsetInCU: 0xA216, offset: 0x677D1C, size: 0x8, addend: 0x0, symName: __ZN23JoltCylinderShapeImpl3D8set_dataERKN5godot7VariantE, symObjAddr: 0x1E4, symBinAddr: 0xB0A70, symSize: 0x3C0 }
  - { offsetInCU: 0xAD42, offset: 0x678848, size: 0x8, addend: 0x0, symName: __ZN23JoltCylinderShapeImpl3D10set_marginEf, symObjAddr: 0x5A4, symBinAddr: 0x2AB3B0, symSize: 0xF0 }
  - { offsetInCU: 0xAEFD, offset: 0x678A03, size: 0x8, addend: 0x0, symName: __ZNK23JoltCylinderShapeImpl3D9to_stringEv, symObjAddr: 0x694, symBinAddr: 0x1652A4, symSize: 0x300 }
  - { offsetInCU: 0xBE6E, offset: 0x679974, size: 0x8, addend: 0x0, symName: __ZNK23JoltCylinderShapeImpl3D6_buildEv, symObjAddr: 0x994, symBinAddr: 0x2ABBA8, symSize: 0x384 }
  - { offsetInCU: 0xCBAD, offset: 0x67A6B3, size: 0x8, addend: 0x0, symName: __ZN23JoltCylinderShapeImpl3DD1Ev, symObjAddr: 0xD18, symBinAddr: 0x165B40, symSize: 0x88 }
  - { offsetInCU: 0xD059, offset: 0x67AB5F, size: 0x8, addend: 0x0, symName: __ZN23JoltCylinderShapeImpl3DD0Ev, symObjAddr: 0xDA0, symBinAddr: 0x2AC1C0, symSize: 0x88 }
  - { offsetInCU: 0xD510, offset: 0x67B016, size: 0x8, addend: 0x0, symName: __ZNK23JoltCylinderShapeImpl3D8get_typeEv, symObjAddr: 0xE28, symBinAddr: 0x16655C, symSize: 0x8 }
  - { offsetInCU: 0xD537, offset: 0x67B03D, size: 0x8, addend: 0x0, symName: __ZNK23JoltCylinderShapeImpl3D9is_convexEv, symObjAddr: 0xE30, symBinAddr: 0x2ACAF8, symSize: 0x8 }
  - { offsetInCU: 0xD55E, offset: 0x67B064, size: 0x8, addend: 0x0, symName: __ZNK23JoltCylinderShapeImpl3D10get_marginEv, symObjAddr: 0xE38, symBinAddr: 0x166B08, symSize: 0x8 }
  - { offsetInCU: 0xDF6E, offset: 0x689DBB, size: 0x8, addend: 0x0, symName: __ZNK24JoltHeightMapShapeImpl3D8get_dataEv, symObjAddr: 0x0, symBinAddr: 0x16D5E8, symSize: 0x260 }
  - { offsetInCU: 0xE822, offset: 0x68A66F, size: 0x8, addend: 0x0, symName: __ZN24JoltHeightMapShapeImpl3D8set_dataERKN5godot7VariantE, symObjAddr: 0x260, symBinAddr: 0x2B6788, symSize: 0x4C4 }
  - { offsetInCU: 0xF838, offset: 0x68B685, size: 0x8, addend: 0x0, symName: __ZNK24JoltHeightMapShapeImpl3D9to_stringEv, symObjAddr: 0x724, symBinAddr: 0x16D9F0, symSize: 0x308 }
  - { offsetInCU: 0x11000, offset: 0x68CE4D, size: 0x8, addend: 0x0, symName: __ZNK24JoltHeightMapShapeImpl3D6_buildEv, symObjAddr: 0xA2C, symBinAddr: 0x16DD00, symSize: 0x8B4 }
  - { offsetInCU: 0x12B55, offset: 0x68E9A2, size: 0x8, addend: 0x0, symName: __ZNK24JoltHeightMapShapeImpl3D11_build_meshEv, symObjAddr: 0x15F8, symBinAddr: 0x2B74A0, symSize: 0x828 }
  - { offsetInCU: 0x143B8, offset: 0x690205, size: 0x8, addend: 0x0, symName: __ZNK24JoltHeightMapShapeImpl3D19_build_double_sidedEPKN3JPH5ShapeE, symObjAddr: 0x12E0, symBinAddr: 0x16E694, symSize: 0x318 }
  - { offsetInCU: 0x15D61, offset: 0x691BAE, size: 0x8, addend: 0x0, symName: __ZN24JoltHeightMapShapeImpl3DD1Ev, symObjAddr: 0x1E20, symBinAddr: 0x16EAE8, symSize: 0x98 }
  - { offsetInCU: 0x16250, offset: 0x69209D, size: 0x8, addend: 0x0, symName: __ZN24JoltHeightMapShapeImpl3DD0Ev, symObjAddr: 0x1EB8, symBinAddr: 0xB644C, symSize: 0x98 }
  - { offsetInCU: 0x1674A, offset: 0x692597, size: 0x8, addend: 0x0, symName: __ZNK24JoltHeightMapShapeImpl3D8get_typeEv, symObjAddr: 0x1F50, symBinAddr: 0x2B8590, symSize: 0x8 }
  - { offsetInCU: 0x16771, offset: 0x6925BE, size: 0x8, addend: 0x0, symName: __ZNK24JoltHeightMapShapeImpl3D9is_convexEv, symObjAddr: 0x1F58, symBinAddr: 0x2B9700, symSize: 0x8 }
  - { offsetInCU: 0x16798, offset: 0x6925E5, size: 0x8, addend: 0x0, symName: __ZNK24JoltHeightMapShapeImpl3D10get_marginEv, symObjAddr: 0x1F60, symBinAddr: 0x16FF00, symSize: 0x8 }
  - { offsetInCU: 0x167BD, offset: 0x69260A, size: 0x8, addend: 0x0, symName: __ZN24JoltHeightMapShapeImpl3D10set_marginEf, symObjAddr: 0x1F68, symBinAddr: 0x2BC49C, symSize: 0x4 }
  - { offsetInCU: 0x9993, offset: 0x69D55F, size: 0x8, addend: 0x0, symName: __ZNK28JoltSeparationRayShapeImpl3D8get_dataEv, symObjAddr: 0x0, symBinAddr: 0x2C8768, symSize: 0x1E0 }
  - { offsetInCU: 0x9FE3, offset: 0x69DBAF, size: 0x8, addend: 0x0, symName: __ZN28JoltSeparationRayShapeImpl3D8set_dataERKN5godot7VariantE, symObjAddr: 0x1E0, symBinAddr: 0x178620, symSize: 0x3CC }
  - { offsetInCU: 0xAAF7, offset: 0x69E6C3, size: 0x8, addend: 0x0, symName: __ZNK28JoltSeparationRayShapeImpl3D9to_stringEv, symObjAddr: 0x5AC, symBinAddr: 0x1789F4, symSize: 0x268 }
  - { offsetInCU: 0xB923, offset: 0x69F4EF, size: 0x8, addend: 0x0, symName: __ZNK28JoltSeparationRayShapeImpl3D6_buildEv, symObjAddr: 0x814, symBinAddr: 0xC19DC, symSize: 0x3E4 }
  - { offsetInCU: 0xC8A4, offset: 0x6A0470, size: 0x8, addend: 0x0, symName: __ZN28JoltSeparationRayShapeImpl3DD1Ev, symObjAddr: 0xBF8, symBinAddr: 0x2C9304, symSize: 0x88 }
  - { offsetInCU: 0xCD50, offset: 0x6A091C, size: 0x8, addend: 0x0, symName: __ZN28JoltSeparationRayShapeImpl3DD0Ev, symObjAddr: 0xC80, symBinAddr: 0x179B50, symSize: 0x88 }
  - { offsetInCU: 0xD207, offset: 0x6A0DD3, size: 0x8, addend: 0x0, symName: __ZNK28JoltSeparationRayShapeImpl3D8get_typeEv, symObjAddr: 0xD08, symBinAddr: 0x2CB0E4, symSize: 0x8 }
  - { offsetInCU: 0xD22E, offset: 0x6A0DFA, size: 0x8, addend: 0x0, symName: __ZNK28JoltSeparationRayShapeImpl3D9is_convexEv, symObjAddr: 0xD10, symBinAddr: 0x17A664, symSize: 0x8 }
  - { offsetInCU: 0xD255, offset: 0x6A0E21, size: 0x8, addend: 0x0, symName: __ZNK28JoltSeparationRayShapeImpl3D10get_marginEv, symObjAddr: 0xD18, symBinAddr: 0x2CBE5C, symSize: 0x8 }
  - { offsetInCU: 0xD27A, offset: 0x6A0E46, size: 0x8, addend: 0x0, symName: __ZN28JoltSeparationRayShapeImpl3D10set_marginEf, symObjAddr: 0xD20, symBinAddr: 0xC1DC0, symSize: 0x4 }
  - { offsetInCU: 0x47C3, offset: 0x6A6487, size: 0x8, addend: 0x0, symName: __ZN5godot7vformatIJNS_6StringEiEEES1_RKS1_DpKT_, symObjAddr: 0x2750, symBinAddr: 0x2F30F0, symSize: 0x23C }
  - { offsetInCU: 0x4E04, offset: 0x6A6AC8, size: 0x8, addend: 0x0, symName: __ZN5godot7vformatIJNS_7Vector3ENS_6StringEEEES2_RKS2_DpKT_, symObjAddr: 0x9A0, symBinAddr: 0x2F1BFC, symSize: 0x240 }
  - { offsetInCU: 0x53EC, offset: 0x6A70B0, size: 0x8, addend: 0x0, symName: __ZN5godot7vformatIJNS_5BasisENS_7Vector3ENS_6StringEEEES3_RKS3_DpKT_, symObjAddr: 0xFA4, symBinAddr: 0x2F2068, symSize: 0x2C0 }
  - { offsetInCU: 0x6082, offset: 0x6A7D46, size: 0x8, addend: 0x0, symName: __ZNSt3__1L19piecewise_constructE.llvm.4143734199453303626, symObjAddr: 0x468C, symBinAddr: 0x309F78, symSize: 0x0 }
  - { offsetInCU: 0x13992, offset: 0x6B5656, size: 0x8, addend: 0x0, symName: __ZNSt3__112__hash_tableINS_17__hash_value_typeIP22JoltShapedObjectImpl3DiEENS_22__unordered_map_hasherIS3_S4_N7HashMapIS3_iN5godot20HashMapHasherDefaultENS7_24HashMapComparatorDefaultIS3_EEE6HasherENSB_10ComparatorELb1EEENS_21__unordered_map_equalIS3_S4_SD_SC_Lb1EEENS_9allocatorIS4_EEE25__emplace_unique_key_argsIS3_JRKNS_21piecewise_construct_tENS_5tupleIJRKS3_EEENSO_IJEEEEEENS_4pairINS_15__hash_iteratorIPNS_11__hash_nodeIS4_PvEEEEbEERKT_DpOT0_, symObjAddr: 0x2F84, symBinAddr: 0x2F4888, symSize: 0x32C }
  - { offsetInCU: 0x13F6F, offset: 0x6B5C33, size: 0x8, addend: 0x0, symName: __ZNSt3__112__hash_tableINS_17__hash_value_typeIP22JoltShapedObjectImpl3DiEENS_22__unordered_map_hasherIS3_S4_N7HashMapIS3_iN5godot20HashMapHasherDefaultENS7_24HashMapComparatorDefaultIS3_EEE6HasherENSB_10ComparatorELb1EEENS_21__unordered_map_equalIS3_S4_SD_SC_Lb1EEENS_9allocatorIS4_EEE14__erase_uniqueIS3_EEmRKT_, symObjAddr: 0x32B0, symBinAddr: 0x185158, symSize: 0x218 }
  - { offsetInCU: 0x1445E, offset: 0x6B6122, size: 0x8, addend: 0x0, symName: __ZNSt3__113unordered_mapIP22JoltShapedObjectImpl3DiN7HashMapIS2_iN5godot20HashMapHasherDefaultENS4_24HashMapComparatorDefaultIS2_EEE6HasherENS8_10ComparatorENS_9allocatorINS_4pairIKS2_iEEEEEC2ERKSG_, symObjAddr: 0x298C, symBinAddr: 0x184724, symSize: 0x128 }
  - { offsetInCU: 0x14866, offset: 0x6B652A, size: 0x8, addend: 0x0, symName: __ZN15JoltShapeImpl3D15set_solver_biasEf, symObjAddr: 0x1B8, symBinAddr: 0x182B10, symSize: 0x224 }
  - { offsetInCU: 0x14F3B, offset: 0x6B6BFF, size: 0x8, addend: 0x0, symName: __ZNK15JoltShapeImpl3D17_owners_to_stringEv, symObjAddr: 0x3DC, symBinAddr: 0x2F191C, symSize: 0x104 }
  - { offsetInCU: 0x158A7, offset: 0x6B756B, size: 0x8, addend: 0x0, symName: __ZN15JoltShapeImpl3D10with_scaleEPKN3JPH5ShapeERKN5godot7Vector3E, symObjAddr: 0x640, symBinAddr: 0x182D74, symSize: 0x360 }
  - { offsetInCU: 0x169D7, offset: 0x6B869B, size: 0x8, addend: 0x0, symName: __ZN15JoltShapeImpl3D17with_basis_originEPKN3JPH5ShapeERKN5godot5BasisERKNS4_7Vector3E, symObjAddr: 0xBE0, symBinAddr: 0x183128, symSize: 0x3C4 }
  - { offsetInCU: 0x17AEF, offset: 0x6B97B3, size: 0x8, addend: 0x0, symName: __ZN15JoltShapeImpl3D26with_center_of_mass_offsetEPKN3JPH5ShapeERKN5godot7Vector3E, symObjAddr: 0x1264, symBinAddr: 0x183514, symSize: 0x360 }
  - { offsetInCU: 0x18B1C, offset: 0x6BA7E0, size: 0x8, addend: 0x0, symName: __ZN15JoltShapeImpl3D14with_user_dataEPKN3JPH5ShapeEy, symObjAddr: 0x16C8, symBinAddr: 0x2F27A0, symSize: 0x2E4 }
  - { offsetInCU: 0x1A292, offset: 0x6BBF56, size: 0x8, addend: 0x0, symName: __ZN15JoltShapeImpl3D21without_custom_shapesEPKN3JPH5ShapeE, symObjAddr: 0x19AC, symBinAddr: 0x1838E4, symSize: 0xDA4 }
  - { offsetInCU: 0x1DB86, offset: 0x6BF84A, size: 0x8, addend: 0x0, symName: __ZNSt3__112__hash_tableINS_17__hash_value_typeIP22JoltShapedObjectImpl3DiEENS_22__unordered_map_hasherIS3_S4_N7HashMapIS3_iN5godot20HashMapHasherDefaultENS7_24HashMapComparatorDefaultIS3_EEE6HasherENSB_10ComparatorELb1EEENS_21__unordered_map_equalIS3_S4_SD_SC_Lb1EEENS_9allocatorIS4_EEE11__do_rehashILb1EEEvm, symObjAddr: 0x2AB4, symBinAddr: 0x2F3BD8, symSize: 0x1AC }
  - { offsetInCU: 0x1DFE3, offset: 0x6BFCA7, size: 0x8, addend: 0x0, symName: __ZNSt3__112__hash_tableINS_17__hash_value_typeIP22JoltShapedObjectImpl3DiEENS_22__unordered_map_hasherIS3_S4_N7HashMapIS3_iN5godot20HashMapHasherDefaultENS7_24HashMapComparatorDefaultIS3_EEE6HasherENSB_10ComparatorELb1EEENS_21__unordered_map_equalIS3_S4_SD_SC_Lb1EEENS_9allocatorIS4_EEE25__emplace_unique_key_argsIS3_JRKNS_4pairIKS3_iEEEEENSL_INS_15__hash_iteratorIPNS_11__hash_nodeIS4_PvEEEEbEERKT_DpOT0_, symObjAddr: 0x2C60, symBinAddr: 0x184E20, symSize: 0x324 }
  - { offsetInCU: 0x446E, offset: 0x6C587C, size: 0x8, addend: 0x0, symName: __ZN19JoltShapeInstance3D7next_idE, symObjAddr: 0x163C, symBinAddr: 0x3620F8, symSize: 0x0 }
  - { offsetInCU: 0x51F8, offset: 0x6C6606, size: 0x8, addend: 0x0, symName: __ZN19JoltShapeInstance3D9try_buildEv, symObjAddr: 0x1A0, symBinAddr: 0x18F174, symSize: 0x250 }
  - { offsetInCU: 0x94DD, offset: 0x6D0598, size: 0x8, addend: 0x0, symName: __ZNK21JoltSphereShapeImpl3D8get_dataEv, symObjAddr: 0x0, symBinAddr: 0x192844, symSize: 0x40 }
  - { offsetInCU: 0x95BA, offset: 0x6D0675, size: 0x8, addend: 0x0, symName: __ZN21JoltSphereShapeImpl3D8set_dataERKN5godot7VariantE, symObjAddr: 0x40, symBinAddr: 0x1928FC, symSize: 0xFC }
  - { offsetInCU: 0x985C, offset: 0x6D0917, size: 0x8, addend: 0x0, symName: __ZNK21JoltSphereShapeImpl3D9to_stringEv, symObjAddr: 0x13C, symBinAddr: 0x192A44, symSize: 0x1D4 }
  - { offsetInCU: 0xA428, offset: 0x6D14E3, size: 0x8, addend: 0x0, symName: __ZNK21JoltSphereShapeImpl3D6_buildEv, symObjAddr: 0x310, symBinAddr: 0x192DA4, symSize: 0x3A4 }
  - { offsetInCU: 0xB264, offset: 0x6D231F, size: 0x8, addend: 0x0, symName: __ZN21JoltSphereShapeImpl3DD1Ev, symObjAddr: 0x6B4, symBinAddr: 0x193154, symSize: 0x88 }
  - { offsetInCU: 0xB710, offset: 0x6D27CB, size: 0x8, addend: 0x0, symName: __ZN21JoltSphereShapeImpl3DD0Ev, symObjAddr: 0x73C, symBinAddr: 0x193228, symSize: 0x88 }
  - { offsetInCU: 0xBBC7, offset: 0x6D2C82, size: 0x8, addend: 0x0, symName: __ZNK21JoltSphereShapeImpl3D8get_typeEv, symObjAddr: 0x7C4, symBinAddr: 0x1932FC, symSize: 0x8 }
  - { offsetInCU: 0xBBEE, offset: 0x6D2CA9, size: 0x8, addend: 0x0, symName: __ZNK21JoltSphereShapeImpl3D9is_convexEv, symObjAddr: 0x7CC, symBinAddr: 0x19333C, symSize: 0x8 }
  - { offsetInCU: 0xBC15, offset: 0x6D2CD0, size: 0x8, addend: 0x0, symName: __ZNK21JoltSphereShapeImpl3D10get_marginEv, symObjAddr: 0x7D4, symBinAddr: 0x19337C, symSize: 0x8 }
  - { offsetInCU: 0xBC3A, offset: 0x6D2CF5, size: 0x8, addend: 0x0, symName: __ZN21JoltSphereShapeImpl3D10set_marginEf, symObjAddr: 0x7DC, symBinAddr: 0x193500, symSize: 0x4 }
  - { offsetInCU: 0x9AAE, offset: 0x6DD2C8, size: 0x8, addend: 0x0, symName: __ZNK28JoltWorldBoundaryShapeImpl3D8get_dataEv, symObjAddr: 0x0, symBinAddr: 0x195B18, symSize: 0x1C }
  - { offsetInCU: 0x9B71, offset: 0x6DD38B, size: 0x8, addend: 0x0, symName: __ZN28JoltWorldBoundaryShapeImpl3D8set_dataERKN5godot7VariantE, symObjAddr: 0x1C, symBinAddr: 0x195B80, symSize: 0x150 }
  - { offsetInCU: 0x9F3F, offset: 0x6DD759, size: 0x8, addend: 0x0, symName: __ZNK28JoltWorldBoundaryShapeImpl3D6_buildEv, symObjAddr: 0x16C, symBinAddr: 0x195F44, symSize: 0x200 }
  - { offsetInCU: 0xA5EC, offset: 0x6DDE06, size: 0x8, addend: 0x0, symName: __ZN28JoltWorldBoundaryShapeImpl3DD1Ev, symObjAddr: 0x36C, symBinAddr: 0x196190, symSize: 0x88 }
  - { offsetInCU: 0xAA98, offset: 0x6DE2B2, size: 0x8, addend: 0x0, symName: __ZN28JoltWorldBoundaryShapeImpl3DD0Ev, symObjAddr: 0x3F4, symBinAddr: 0x19621C, symSize: 0x88 }
  - { offsetInCU: 0xAF4F, offset: 0x6DE769, size: 0x8, addend: 0x0, symName: __ZNK28JoltWorldBoundaryShapeImpl3D8get_typeEv, symObjAddr: 0x47C, symBinAddr: 0xCF144, symSize: 0x8 }
  - { offsetInCU: 0xAF76, offset: 0x6DE790, size: 0x8, addend: 0x0, symName: __ZNK28JoltWorldBoundaryShapeImpl3D9is_convexEv, symObjAddr: 0x484, symBinAddr: 0x1964C4, symSize: 0x8 }
  - { offsetInCU: 0xAF9D, offset: 0x6DE7B7, size: 0x8, addend: 0x0, symName: __ZNK28JoltWorldBoundaryShapeImpl3D10get_marginEv, symObjAddr: 0x48C, symBinAddr: 0x1964D4, symSize: 0x8 }
  - { offsetInCU: 0xAFC2, offset: 0x6DE7DC, size: 0x8, addend: 0x0, symName: __ZN28JoltWorldBoundaryShapeImpl3D10set_marginEf, symObjAddr: 0x494, symBinAddr: 0x1964E4, symSize: 0x4 }
  - { offsetInCU: 0x372C, offset: 0x6E2A34, size: 0x8, addend: 0x0, symName: __ZNSt3__126__throw_bad_variant_accessB7v160006Ev, symObjAddr: 0xA90, symBinAddr: 0x19B614, symSize: 0xC }
  - { offsetInCU: 0xAD30, offset: 0x6EA038, size: 0x8, addend: 0x0, symName: __ZNK18JoltBodyAccessor3D9get_countEv, symObjAddr: 0x320, symBinAddr: 0x19A494, symSize: 0x8C }
  - { offsetInCU: 0xAF43, offset: 0x6EA24B, size: 0x8, addend: 0x0, symName: __ZNK18JoltBodyAccessor3D6get_atEi, symObjAddr: 0x3AC, symBinAddr: 0x19A564, symSize: 0x174 }
  - { offsetInCU: 0xBA35, offset: 0x6EAD3D, size: 0x8, addend: 0x0, symName: __ZNK18JoltBodyAccessor3D6get_atEi, symObjAddr: 0x3AC, symBinAddr: 0x19A564, symSize: 0x174 }
  - { offsetInCU: 0xC059, offset: 0x6EB361, size: 0x8, addend: 0x0, symName: __ZNK16JoltBodyReader3D7try_getEi, symObjAddr: 0x544, symBinAddr: 0x19A7A4, symSize: 0x128 }
  - { offsetInCU: 0xC3F4, offset: 0x6EB6FC, size: 0x8, addend: 0x0, symName: __ZN16JoltBodyReader3D17_acquire_internalEPKN3JPH6BodyIDEi, symObjAddr: 0x674, symBinAddr: 0x19A8D4, symSize: 0x40 }
  - { offsetInCU: 0xC454, offset: 0x6EB75C, size: 0x8, addend: 0x0, symName: __ZN16JoltBodyReader3D17_release_internalEv, symObjAddr: 0x6B4, symBinAddr: 0x19A960, symSize: 0x48 }
  - { offsetInCU: 0xC525, offset: 0x6EB82D, size: 0x8, addend: 0x0, symName: __ZNK16JoltBodyWriter3D7try_getEi, symObjAddr: 0x720, symBinAddr: 0x19A9B8, symSize: 0x128 }
  - { offsetInCU: 0xC8C0, offset: 0x6EBBC8, size: 0x8, addend: 0x0, symName: __ZN16JoltBodyWriter3D17_acquire_internalEPKN3JPH6BodyIDEi, symObjAddr: 0x850, symBinAddr: 0x19AB58, symSize: 0x40 }
  - { offsetInCU: 0xC920, offset: 0x6EBC28, size: 0x8, addend: 0x0, symName: __ZN16JoltBodyWriter3D17_release_internalEv, symObjAddr: 0x890, symBinAddr: 0x19ACF4, symSize: 0x48 }
  - { offsetInCU: 0xC9FC, offset: 0x6EBD04, size: 0x8, addend: 0x0, symName: __ZN16JoltBodyReader3DD1Ev, symObjAddr: 0x8D8, symBinAddr: 0x19AEC8, symSize: 0x60 }
  - { offsetInCU: 0xCC34, offset: 0x6EBF3C, size: 0x8, addend: 0x0, symName: __ZN16JoltBodyReader3DD0Ev, symObjAddr: 0x938, symBinAddr: 0x19B0C4, symSize: 0x5C }
  - { offsetInCU: 0xCE95, offset: 0x6EC19D, size: 0x8, addend: 0x0, symName: __ZN16JoltBodyWriter3DD1Ev, symObjAddr: 0x994, symBinAddr: 0x19B158, symSize: 0x60 }
  - { offsetInCU: 0xD0CD, offset: 0x6EC3D5, size: 0x8, addend: 0x0, symName: __ZN16JoltBodyWriter3DD0Ev, symObjAddr: 0x9F4, symBinAddr: 0x19B240, symSize: 0x5C }
  - { offsetInCU: 0xD311, offset: 0x6EC619, size: 0x8, addend: 0x0, symName: __ZNSt3__116__variant_detail12__visitation6__base12__dispatcherIJLm0EEE10__dispatchB7v160006IOZNS0_6__dtorINS0_8__traitsIJN3JPH6BodyIDENS8_5ArrayIS9_NS8_12STLAllocatorIS9_EEEEN18JoltBodyAccessor3D10BodyIDSpanEEEELNS0_6_TraitE1EE9__destroyB7v160006EvEUlRT_E_JRNS0_6__baseILSH_1EJS9_SD_SF_EEEEEEDcSJ_DpT0_, symObjAddr: 0xA50, symBinAddr: 0x19B2E8, symSize: 0x4 }
  - { offsetInCU: 0xD476, offset: 0x6EC77E, size: 0x8, addend: 0x0, symName: __ZNSt3__116__variant_detail12__visitation6__base12__dispatcherIJLm1EEE10__dispatchB7v160006IOZNS0_6__dtorINS0_8__traitsIJN3JPH6BodyIDENS8_5ArrayIS9_NS8_12STLAllocatorIS9_EEEEN18JoltBodyAccessor3D10BodyIDSpanEEEELNS0_6_TraitE1EE9__destroyB7v160006EvEUlRT_E_JRNS0_6__baseILSH_1EJS9_SD_SF_EEEEEEDcSJ_DpT0_, symObjAddr: 0xA54, symBinAddr: 0x19B4E4, symSize: 0x38 }
  - { offsetInCU: 0xD611, offset: 0x6EC919, size: 0x8, addend: 0x0, symName: __ZNSt3__116__variant_detail12__visitation6__base12__dispatcherIJLm2EEE10__dispatchB7v160006IOZNS0_6__dtorINS0_8__traitsIJN3JPH6BodyIDENS8_5ArrayIS9_NS8_12STLAllocatorIS9_EEEEN18JoltBodyAccessor3D10BodyIDSpanEEEELNS0_6_TraitE1EE9__destroyB7v160006EvEUlRT_E_JRNS0_6__baseILSH_1EJS9_SD_SF_EEEEEEDcSJ_DpT0_, symObjAddr: 0xA8C, symBinAddr: 0x19B5E8, symSize: 0x4 }
  - { offsetInCU: 0xD658, offset: 0x6EC960, size: 0x8, addend: 0x0, symName: '__ZNSt3__116__variant_detail12__visitation6__base12__dispatcherIJLm0EEE10__dispatchB7v160006IONS1_9__variant15__value_visitorIN12_GLOBAL__N_115VariantVisitorsIJZNK18JoltBodyAccessor3D7get_idsEvE3$_0ZNKSA_7get_idsEvE3$_1ZNKSA_7get_idsEvE3$_2EEEEEJRKNS0_6__baseILNS0_6_TraitE1EJN3JPH6BodyIDENSJ_5ArrayISK_NSJ_12STLAllocatorISK_EEEENSA_10BodyIDSpanEEEEEEEDcT_DpT0_.llvm.6760722963907704544', symObjAddr: 0xA9C, symBinAddr: 0x19B628, symSize: 0x8 }
  - { offsetInCU: 0xD73A, offset: 0x6ECA42, size: 0x8, addend: 0x0, symName: '__ZNSt3__116__variant_detail12__visitation6__base12__dispatcherIJLm1EEE10__dispatchB7v160006IONS1_9__variant15__value_visitorIN12_GLOBAL__N_115VariantVisitorsIJZNK18JoltBodyAccessor3D7get_idsEvE3$_0ZNKSA_7get_idsEvE3$_1ZNKSA_7get_idsEvE3$_2EEEEEJRKNS0_6__baseILNS0_6_TraitE1EJN3JPH6BodyIDENSJ_5ArrayISK_NSJ_12STLAllocatorISK_EEEENSA_10BodyIDSpanEEEEEEEDcT_DpT0_.llvm.6760722963907704544', symObjAddr: 0xAA4, symBinAddr: 0x19B9CC, symSize: 0x8 }
  - { offsetInCU: 0xD76E, offset: 0x6ECA76, size: 0x8, addend: 0x0, symName: '__ZNSt3__116__variant_detail12__visitation6__base12__dispatcherIJLm1EEE10__dispatchB7v160006IONS1_9__variant15__value_visitorIN12_GLOBAL__N_115VariantVisitorsIJZNK18JoltBodyAccessor3D7get_idsEvE3$_0ZNKSA_7get_idsEvE3$_1ZNKSA_7get_idsEvE3$_2EEEEEJRKNS0_6__baseILNS0_6_TraitE1EJN3JPH6BodyIDENSJ_5ArrayISK_NSJ_12STLAllocatorISK_EEEENSA_10BodyIDSpanEEEEEEEDcT_DpT0_.llvm.6760722963907704544', symObjAddr: 0xAA4, symBinAddr: 0x19B9CC, symSize: 0x8 }
  - { offsetInCU: 0xD78A, offset: 0x6ECA92, size: 0x8, addend: 0x0, symName: '__ZNSt3__116__variant_detail12__visitation6__base12__dispatcherIJLm1EEE10__dispatchB7v160006IONS1_9__variant15__value_visitorIN12_GLOBAL__N_115VariantVisitorsIJZNK18JoltBodyAccessor3D7get_idsEvE3$_0ZNKSA_7get_idsEvE3$_1ZNKSA_7get_idsEvE3$_2EEEEEJRKNS0_6__baseILNS0_6_TraitE1EJN3JPH6BodyIDENSJ_5ArrayISK_NSJ_12STLAllocatorISK_EEEENSA_10BodyIDSpanEEEEEEEDcT_DpT0_.llvm.6760722963907704544', symObjAddr: 0xAA4, symBinAddr: 0x19B9CC, symSize: 0x8 }
  - { offsetInCU: 0xD7A7, offset: 0x6ECAAF, size: 0x8, addend: 0x0, symName: '__ZNSt3__116__variant_detail12__visitation6__base12__dispatcherIJLm1EEE10__dispatchB7v160006IONS1_9__variant15__value_visitorIN12_GLOBAL__N_115VariantVisitorsIJZNK18JoltBodyAccessor3D7get_idsEvE3$_0ZNKSA_7get_idsEvE3$_1ZNKSA_7get_idsEvE3$_2EEEEEJRKNS0_6__baseILNS0_6_TraitE1EJN3JPH6BodyIDENSJ_5ArrayISK_NSJ_12STLAllocatorISK_EEEENSA_10BodyIDSpanEEEEEEEDcT_DpT0_.llvm.6760722963907704544', symObjAddr: 0xAA4, symBinAddr: 0x19B9CC, symSize: 0x8 }
  - { offsetInCU: 0xD7C3, offset: 0x6ECACB, size: 0x8, addend: 0x0, symName: '__ZNSt3__116__variant_detail12__visitation6__base12__dispatcherIJLm1EEE10__dispatchB7v160006IONS1_9__variant15__value_visitorIN12_GLOBAL__N_115VariantVisitorsIJZNK18JoltBodyAccessor3D7get_idsEvE3$_0ZNKSA_7get_idsEvE3$_1ZNKSA_7get_idsEvE3$_2EEEEEJRKNS0_6__baseILNS0_6_TraitE1EJN3JPH6BodyIDENSJ_5ArrayISK_NSJ_12STLAllocatorISK_EEEENSA_10BodyIDSpanEEEEEEEDcT_DpT0_.llvm.6760722963907704544', symObjAddr: 0xAA4, symBinAddr: 0x19B9CC, symSize: 0x8 }
  - { offsetInCU: 0xD7E0, offset: 0x6ECAE8, size: 0x8, addend: 0x0, symName: '__ZNSt3__116__variant_detail12__visitation6__base12__dispatcherIJLm1EEE10__dispatchB7v160006IONS1_9__variant15__value_visitorIN12_GLOBAL__N_115VariantVisitorsIJZNK18JoltBodyAccessor3D7get_idsEvE3$_0ZNKSA_7get_idsEvE3$_1ZNKSA_7get_idsEvE3$_2EEEEEJRKNS0_6__baseILNS0_6_TraitE1EJN3JPH6BodyIDENSJ_5ArrayISK_NSJ_12STLAllocatorISK_EEEENSA_10BodyIDSpanEEEEEEEDcT_DpT0_.llvm.6760722963907704544', symObjAddr: 0xAA4, symBinAddr: 0x19B9CC, symSize: 0x8 }
  - { offsetInCU: 0xD888, offset: 0x6ECB90, size: 0x8, addend: 0x0, symName: '__ZNSt3__116__variant_detail12__visitation6__base12__dispatcherIJLm2EEE10__dispatchB7v160006IONS1_9__variant15__value_visitorIN12_GLOBAL__N_115VariantVisitorsIJZNK18JoltBodyAccessor3D7get_idsEvE3$_0ZNKSA_7get_idsEvE3$_1ZNKSA_7get_idsEvE3$_2EEEEEJRKNS0_6__baseILNS0_6_TraitE1EJN3JPH6BodyIDENSJ_5ArrayISK_NSJ_12STLAllocatorISK_EEEENSA_10BodyIDSpanEEEEEEEDcT_DpT0_.llvm.6760722963907704544', symObjAddr: 0xAAC, symBinAddr: 0x19BAA0, symSize: 0x8 }
  - { offsetInCU: 0xD8BC, offset: 0x6ECBC4, size: 0x8, addend: 0x0, symName: '__ZNSt3__116__variant_detail12__visitation6__base12__dispatcherIJLm2EEE10__dispatchB7v160006IONS1_9__variant15__value_visitorIN12_GLOBAL__N_115VariantVisitorsIJZNK18JoltBodyAccessor3D7get_idsEvE3$_0ZNKSA_7get_idsEvE3$_1ZNKSA_7get_idsEvE3$_2EEEEEJRKNS0_6__baseILNS0_6_TraitE1EJN3JPH6BodyIDENSJ_5ArrayISK_NSJ_12STLAllocatorISK_EEEENSA_10BodyIDSpanEEEEEEEDcT_DpT0_.llvm.6760722963907704544', symObjAddr: 0xAAC, symBinAddr: 0x19BAA0, symSize: 0x8 }
  - { offsetInCU: 0xD8D8, offset: 0x6ECBE0, size: 0x8, addend: 0x0, symName: '__ZNSt3__116__variant_detail12__visitation6__base12__dispatcherIJLm2EEE10__dispatchB7v160006IONS1_9__variant15__value_visitorIN12_GLOBAL__N_115VariantVisitorsIJZNK18JoltBodyAccessor3D7get_idsEvE3$_0ZNKSA_7get_idsEvE3$_1ZNKSA_7get_idsEvE3$_2EEEEEJRKNS0_6__baseILNS0_6_TraitE1EJN3JPH6BodyIDENSJ_5ArrayISK_NSJ_12STLAllocatorISK_EEEENSA_10BodyIDSpanEEEEEEEDcT_DpT0_.llvm.6760722963907704544', symObjAddr: 0xAAC, symBinAddr: 0x19BAA0, symSize: 0x8 }
  - { offsetInCU: 0xD8F5, offset: 0x6ECBFD, size: 0x8, addend: 0x0, symName: '__ZNSt3__116__variant_detail12__visitation6__base12__dispatcherIJLm2EEE10__dispatchB7v160006IONS1_9__variant15__value_visitorIN12_GLOBAL__N_115VariantVisitorsIJZNK18JoltBodyAccessor3D7get_idsEvE3$_0ZNKSA_7get_idsEvE3$_1ZNKSA_7get_idsEvE3$_2EEEEEJRKNS0_6__baseILNS0_6_TraitE1EJN3JPH6BodyIDENSJ_5ArrayISK_NSJ_12STLAllocatorISK_EEEENSA_10BodyIDSpanEEEEEEEDcT_DpT0_.llvm.6760722963907704544', symObjAddr: 0xAAC, symBinAddr: 0x19BAA0, symSize: 0x8 }
  - { offsetInCU: 0xD911, offset: 0x6ECC19, size: 0x8, addend: 0x0, symName: '__ZNSt3__116__variant_detail12__visitation6__base12__dispatcherIJLm2EEE10__dispatchB7v160006IONS1_9__variant15__value_visitorIN12_GLOBAL__N_115VariantVisitorsIJZNK18JoltBodyAccessor3D7get_idsEvE3$_0ZNKSA_7get_idsEvE3$_1ZNKSA_7get_idsEvE3$_2EEEEEJRKNS0_6__baseILNS0_6_TraitE1EJN3JPH6BodyIDENSJ_5ArrayISK_NSJ_12STLAllocatorISK_EEEENSA_10BodyIDSpanEEEEEEEDcT_DpT0_.llvm.6760722963907704544', symObjAddr: 0xAAC, symBinAddr: 0x19BAA0, symSize: 0x8 }
  - { offsetInCU: 0xD943, offset: 0x6ECC4B, size: 0x8, addend: 0x0, symName: '__ZNSt3__116__variant_detail12__visitation6__base12__dispatcherIJLm0EEE10__dispatchB7v160006IONS1_9__variant15__value_visitorIN12_GLOBAL__N_115VariantVisitorsIJZNK18JoltBodyAccessor3D9get_countEvE3$_3ZNKSA_9get_countEvE3$_4ZNKSA_9get_countEvE3$_5EEEEEJRKNS0_6__baseILNS0_6_TraitE1EJN3JPH6BodyIDENSJ_5ArrayISK_NSJ_12STLAllocatorISK_EEEENSA_10BodyIDSpanEEEEEEEDcT_DpT0_.llvm.6760722963907704544', symObjAddr: 0xAB4, symBinAddr: 0x19BAB0, symSize: 0x8 }
  - { offsetInCU: 0xD9F8, offset: 0x6ECD00, size: 0x8, addend: 0x0, symName: '__ZNSt3__116__variant_detail12__visitation6__base12__dispatcherIJLm1EEE10__dispatchB7v160006IONS1_9__variant15__value_visitorIN12_GLOBAL__N_115VariantVisitorsIJZNK18JoltBodyAccessor3D9get_countEvE3$_3ZNKSA_9get_countEvE3$_4ZNKSA_9get_countEvE3$_5EEEEEJRKNS0_6__baseILNS0_6_TraitE1EJN3JPH6BodyIDENSJ_5ArrayISK_NSJ_12STLAllocatorISK_EEEENSA_10BodyIDSpanEEEEEEEDcT_DpT0_.llvm.6760722963907704544', symObjAddr: 0xABC, symBinAddr: 0x19BD34, symSize: 0x8 }
  - { offsetInCU: 0xDA2C, offset: 0x6ECD34, size: 0x8, addend: 0x0, symName: '__ZNSt3__116__variant_detail12__visitation6__base12__dispatcherIJLm1EEE10__dispatchB7v160006IONS1_9__variant15__value_visitorIN12_GLOBAL__N_115VariantVisitorsIJZNK18JoltBodyAccessor3D9get_countEvE3$_3ZNKSA_9get_countEvE3$_4ZNKSA_9get_countEvE3$_5EEEEEJRKNS0_6__baseILNS0_6_TraitE1EJN3JPH6BodyIDENSJ_5ArrayISK_NSJ_12STLAllocatorISK_EEEENSA_10BodyIDSpanEEEEEEEDcT_DpT0_.llvm.6760722963907704544', symObjAddr: 0xABC, symBinAddr: 0x19BD34, symSize: 0x8 }
  - { offsetInCU: 0xDA48, offset: 0x6ECD50, size: 0x8, addend: 0x0, symName: '__ZNSt3__116__variant_detail12__visitation6__base12__dispatcherIJLm1EEE10__dispatchB7v160006IONS1_9__variant15__value_visitorIN12_GLOBAL__N_115VariantVisitorsIJZNK18JoltBodyAccessor3D9get_countEvE3$_3ZNKSA_9get_countEvE3$_4ZNKSA_9get_countEvE3$_5EEEEEJRKNS0_6__baseILNS0_6_TraitE1EJN3JPH6BodyIDENSJ_5ArrayISK_NSJ_12STLAllocatorISK_EEEENSA_10BodyIDSpanEEEEEEEDcT_DpT0_.llvm.6760722963907704544', symObjAddr: 0xABC, symBinAddr: 0x19BD34, symSize: 0x8 }
  - { offsetInCU: 0xDA65, offset: 0x6ECD6D, size: 0x8, addend: 0x0, symName: '__ZNSt3__116__variant_detail12__visitation6__base12__dispatcherIJLm1EEE10__dispatchB7v160006IONS1_9__variant15__value_visitorIN12_GLOBAL__N_115VariantVisitorsIJZNK18JoltBodyAccessor3D9get_countEvE3$_3ZNKSA_9get_countEvE3$_4ZNKSA_9get_countEvE3$_5EEEEEJRKNS0_6__baseILNS0_6_TraitE1EJN3JPH6BodyIDENSJ_5ArrayISK_NSJ_12STLAllocatorISK_EEEENSA_10BodyIDSpanEEEEEEEDcT_DpT0_.llvm.6760722963907704544', symObjAddr: 0xABC, symBinAddr: 0x19BD34, symSize: 0x8 }
  - { offsetInCU: 0xDA81, offset: 0x6ECD89, size: 0x8, addend: 0x0, symName: '__ZNSt3__116__variant_detail12__visitation6__base12__dispatcherIJLm1EEE10__dispatchB7v160006IONS1_9__variant15__value_visitorIN12_GLOBAL__N_115VariantVisitorsIJZNK18JoltBodyAccessor3D9get_countEvE3$_3ZNKSA_9get_countEvE3$_4ZNKSA_9get_countEvE3$_5EEEEEJRKNS0_6__baseILNS0_6_TraitE1EJN3JPH6BodyIDENSJ_5ArrayISK_NSJ_12STLAllocatorISK_EEEENSA_10BodyIDSpanEEEEEEEDcT_DpT0_.llvm.6760722963907704544', symObjAddr: 0xABC, symBinAddr: 0x19BD34, symSize: 0x8 }
  - { offsetInCU: 0xDA9E, offset: 0x6ECDA6, size: 0x8, addend: 0x0, symName: '__ZNSt3__116__variant_detail12__visitation6__base12__dispatcherIJLm1EEE10__dispatchB7v160006IONS1_9__variant15__value_visitorIN12_GLOBAL__N_115VariantVisitorsIJZNK18JoltBodyAccessor3D9get_countEvE3$_3ZNKSA_9get_countEvE3$_4ZNKSA_9get_countEvE3$_5EEEEEJRKNS0_6__baseILNS0_6_TraitE1EJN3JPH6BodyIDENSJ_5ArrayISK_NSJ_12STLAllocatorISK_EEEENSA_10BodyIDSpanEEEEEEEDcT_DpT0_.llvm.6760722963907704544', symObjAddr: 0xABC, symBinAddr: 0x19BD34, symSize: 0x8 }
  - { offsetInCU: 0xDB32, offset: 0x6ECE3A, size: 0x8, addend: 0x0, symName: '__ZNSt3__116__variant_detail12__visitation6__base12__dispatcherIJLm2EEE10__dispatchB7v160006IONS1_9__variant15__value_visitorIN12_GLOBAL__N_115VariantVisitorsIJZNK18JoltBodyAccessor3D9get_countEvE3$_3ZNKSA_9get_countEvE3$_4ZNKSA_9get_countEvE3$_5EEEEEJRKNS0_6__baseILNS0_6_TraitE1EJN3JPH6BodyIDENSJ_5ArrayISK_NSJ_12STLAllocatorISK_EEEENSA_10BodyIDSpanEEEEEEEDcT_DpT0_.llvm.6760722963907704544', symObjAddr: 0xAC4, symBinAddr: 0x19BF78, symSize: 0x8 }
  - { offsetInCU: 0xDB66, offset: 0x6ECE6E, size: 0x8, addend: 0x0, symName: '__ZNSt3__116__variant_detail12__visitation6__base12__dispatcherIJLm2EEE10__dispatchB7v160006IONS1_9__variant15__value_visitorIN12_GLOBAL__N_115VariantVisitorsIJZNK18JoltBodyAccessor3D9get_countEvE3$_3ZNKSA_9get_countEvE3$_4ZNKSA_9get_countEvE3$_5EEEEEJRKNS0_6__baseILNS0_6_TraitE1EJN3JPH6BodyIDENSJ_5ArrayISK_NSJ_12STLAllocatorISK_EEEENSA_10BodyIDSpanEEEEEEEDcT_DpT0_.llvm.6760722963907704544', symObjAddr: 0xAC4, symBinAddr: 0x19BF78, symSize: 0x8 }
  - { offsetInCU: 0xDB82, offset: 0x6ECE8A, size: 0x8, addend: 0x0, symName: '__ZNSt3__116__variant_detail12__visitation6__base12__dispatcherIJLm2EEE10__dispatchB7v160006IONS1_9__variant15__value_visitorIN12_GLOBAL__N_115VariantVisitorsIJZNK18JoltBodyAccessor3D9get_countEvE3$_3ZNKSA_9get_countEvE3$_4ZNKSA_9get_countEvE3$_5EEEEEJRKNS0_6__baseILNS0_6_TraitE1EJN3JPH6BodyIDENSJ_5ArrayISK_NSJ_12STLAllocatorISK_EEEENSA_10BodyIDSpanEEEEEEEDcT_DpT0_.llvm.6760722963907704544', symObjAddr: 0xAC4, symBinAddr: 0x19BF78, symSize: 0x8 }
  - { offsetInCU: 0xDB9F, offset: 0x6ECEA7, size: 0x8, addend: 0x0, symName: '__ZNSt3__116__variant_detail12__visitation6__base12__dispatcherIJLm2EEE10__dispatchB7v160006IONS1_9__variant15__value_visitorIN12_GLOBAL__N_115VariantVisitorsIJZNK18JoltBodyAccessor3D9get_countEvE3$_3ZNKSA_9get_countEvE3$_4ZNKSA_9get_countEvE3$_5EEEEEJRKNS0_6__baseILNS0_6_TraitE1EJN3JPH6BodyIDENSJ_5ArrayISK_NSJ_12STLAllocatorISK_EEEENSA_10BodyIDSpanEEEEEEEDcT_DpT0_.llvm.6760722963907704544', symObjAddr: 0xAC4, symBinAddr: 0x19BF78, symSize: 0x8 }
  - { offsetInCU: 0xDBBB, offset: 0x6ECEC3, size: 0x8, addend: 0x0, symName: '__ZNSt3__116__variant_detail12__visitation6__base12__dispatcherIJLm2EEE10__dispatchB7v160006IONS1_9__variant15__value_visitorIN12_GLOBAL__N_115VariantVisitorsIJZNK18JoltBodyAccessor3D9get_countEvE3$_3ZNKSA_9get_countEvE3$_4ZNKSA_9get_countEvE3$_5EEEEEJRKNS0_6__baseILNS0_6_TraitE1EJN3JPH6BodyIDENSJ_5ArrayISK_NSJ_12STLAllocatorISK_EEEENSA_10BodyIDSpanEEEEEEEDcT_DpT0_.llvm.6760722963907704544', symObjAddr: 0xAC4, symBinAddr: 0x19BF78, symSize: 0x8 }
  - { offsetInCU: 0x271B9, offset: 0x71418D, size: 0x8, addend: 0x0, symName: __ZNSt3__112__hash_tableIN3JPH6BodyIDEN7HashSetIS2_N21JoltContactListener3D12BodyIDHasherEN5godot24HashMapComparatorDefaultIS2_EEE6HasherENS9_10ComparatorENS_9allocatorIS2_EEE25__emplace_unique_key_argsIS2_JS2_EEENS_4pairINS_15__hash_iteratorIPNS_11__hash_nodeIS2_PvEEEEbEERKT_DpOT0_, symObjAddr: 0x3C24, symBinAddr: 0x1A4DB0, symSize: 0x4C4 }
  - { offsetInCU: 0x27C0E, offset: 0x714BE2, size: 0x8, addend: 0x0, symName: __ZN21JoltContactListener3D15_flush_contactsEv, symObjAddr: 0xD0, symBinAddr: 0x1A0304, symSize: 0x9C0 }
  - { offsetInCU: 0x2A9B3, offset: 0x717987, size: 0x8, addend: 0x0, symName: __ZN21JoltContactListener3D18_flush_area_shiftsEv, symObjAddr: 0xA90, symBinAddr: 0x1A0D90, symSize: 0x3E4 }
  - { offsetInCU: 0x2C293, offset: 0x719267, size: 0x8, addend: 0x0, symName: __ZN21JoltContactListener3D17_flush_area_exitsEv, symObjAddr: 0xE74, symBinAddr: 0x1A117C, symSize: 0x5DC }
  - { offsetInCU: 0x2E50D, offset: 0x71B4E1, size: 0x8, addend: 0x0, symName: __ZN21JoltContactListener3D18_flush_area_entersEv, symObjAddr: 0x1450, symBinAddr: 0x1A19D4, symSize: 0x598 }
  - { offsetInCU: 0x30CE7, offset: 0x71DCBB, size: 0x8, addend: 0x0, symName: __ZNSt3__112__hash_tableIN3JPH14SubShapeIDPairEN7HashSetIS2_N21JoltContactListener3D15ShapePairHasherEN5godot24HashMapComparatorDefaultIS2_EEE6HasherENS9_10ComparatorENS_9allocatorIS2_EEE25__emplace_unique_key_argsIS2_JRKS2_EEENS_4pairINS_15__hash_iteratorIPNS_11__hash_nodeIS2_PvEEEEbEERKT_DpOT0_, symObjAddr: 0x40E8, symBinAddr: 0x1580C, symSize: 0x5A0 }
  - { offsetInCU: 0x31E74, offset: 0x71EE48, size: 0x8, addend: 0x0, symName: __ZN21JoltContactListener3D14OnContactAddedERKN3JPH4BodyES3_RKNS0_15ContactManifoldERNS0_15ContactSettingsE, symObjAddr: 0x19E8, symBinAddr: 0x1A211C, symSize: 0x38C }
  - { offsetInCU: 0x329DA, offset: 0x71F9AE, size: 0x8, addend: 0x0, symName: __ZN21JoltContactListener3D17_try_add_contactsERKN3JPH4BodyES3_RKNS0_15ContactManifoldERNS0_15ContactSettingsE, symObjAddr: 0x1D74, symBinAddr: 0x1A2520, symSize: 0xDD8 }
  - { offsetInCU: 0x353A2, offset: 0x722376, size: 0x8, addend: 0x0, symName: __ZN21JoltContactListener3D26_try_evaluate_area_overlapERKN3JPH4BodyES3_RKNS0_15ContactManifoldE, symObjAddr: 0x2B4C, symBinAddr: 0x1A343C, symSize: 0x10C }
  - { offsetInCU: 0x36A74, offset: 0x723A48, size: 0x8, addend: 0x0, symName: '__ZZN21JoltContactListener3D26_try_evaluate_area_overlapERKN3JPH4BodyES3_RKNS0_15ContactManifoldEENK3$_1clIRK14JoltAreaImpl3DSB_EEDaOT_OT0_RKNS0_14SubShapeIDPairE', symObjAddr: 0x372C, symBinAddr: 0x1A4904, symSize: 0xD4 }
  - { offsetInCU: 0x36ED1, offset: 0x723EA5, size: 0x8, addend: 0x0, symName: '__ZZN21JoltContactListener3D26_try_evaluate_area_overlapERKN3JPH4BodyES3_RKNS0_15ContactManifoldEENK3$_1clIRK14JoltAreaImpl3DRK14JoltBodyImpl3DEEDaOT_OT0_RKNS0_14SubShapeIDPairE', symObjAddr: 0x3800, symBinAddr: 0xD9A24, symSize: 0xC0 }
  - { offsetInCU: 0x3730D, offset: 0x7242E1, size: 0x8, addend: 0x0, symName: __ZN21JoltContactListener3D18OnContactPersistedERKN3JPH4BodyES3_RKNS0_15ContactManifoldERNS0_15ContactSettingsE, symObjAddr: 0x2C58, symBinAddr: 0x1A36D4, symSize: 0x38C }
  - { offsetInCU: 0x383E8, offset: 0x7253BC, size: 0x8, addend: 0x0, symName: __ZN21JoltContactListener3D16OnContactRemovedERKN3JPH14SubShapeIDPairE, symObjAddr: 0x2FE4, symBinAddr: 0x1A3B0C, symSize: 0x3EC }
  - { offsetInCU: 0x393FC, offset: 0x7263D0, size: 0x8, addend: 0x0, symName: __ZNSt3__112__hash_tableIN3JPH14SubShapeIDPairEN7HashSetIS2_N21JoltContactListener3D15ShapePairHasherEN5godot24HashMapComparatorDefaultIS2_EEE6HasherENS9_10ComparatorENS_9allocatorIS2_EEE4findIS2_EENS_15__hash_iteratorIPNS_11__hash_nodeIS2_PvEEEERKT_, symObjAddr: 0x4688, symBinAddr: 0x1A5664, symSize: 0x1F4 }
  - { offsetInCU: 0x3945C, offset: 0x726430, size: 0x8, addend: 0x0, symName: __ZNSt3__112__hash_tableIN3JPH14SubShapeIDPairEN7HashSetIS2_N21JoltContactListener3D15ShapePairHasherEN5godot24HashMapComparatorDefaultIS2_EEE6HasherENS9_10ComparatorENS_9allocatorIS2_EEE4findIS2_EENS_15__hash_iteratorIPNS_11__hash_nodeIS2_PvEEEERKT_, symObjAddr: 0x4688, symBinAddr: 0x1A5664, symSize: 0x1F4 }
  - { offsetInCU: 0x39479, offset: 0x72644D, size: 0x8, addend: 0x0, symName: __ZNSt3__112__hash_tableIN3JPH14SubShapeIDPairEN7HashSetIS2_N21JoltContactListener3D15ShapePairHasherEN5godot24HashMapComparatorDefaultIS2_EEE6HasherENS9_10ComparatorENS_9allocatorIS2_EEE4findIS2_EENS_15__hash_iteratorIPNS_11__hash_nodeIS2_PvEEEERKT_, symObjAddr: 0x4688, symBinAddr: 0x1A5664, symSize: 0x1F4 }
  - { offsetInCU: 0x395E9, offset: 0x7265BD, size: 0x8, addend: 0x0, symName: __ZNSt3__112__hash_tableIN3JPH14SubShapeIDPairEN7HashSetIS2_N21JoltContactListener3D15ShapePairHasherEN5godot24HashMapComparatorDefaultIS2_EEE6HasherENS9_10ComparatorENS_9allocatorIS2_EEE6removeENS_21__hash_const_iteratorIPNS_11__hash_nodeIS2_PvEEEE, symObjAddr: 0x487C, symBinAddr: 0x30348, symSize: 0x134 }
  - { offsetInCU: 0x39669, offset: 0x72663D, size: 0x8, addend: 0x0, symName: __ZNSt3__112__hash_tableIN3JPH14SubShapeIDPairEN7HashSetIS2_N21JoltContactListener3D15ShapePairHasherEN5godot24HashMapComparatorDefaultIS2_EEE6HasherENS9_10ComparatorENS_9allocatorIS2_EEE6removeENS_21__hash_const_iteratorIPNS_11__hash_nodeIS2_PvEEEE, symObjAddr: 0x487C, symBinAddr: 0x30348, symSize: 0x134 }
  - { offsetInCU: 0x39686, offset: 0x72665A, size: 0x8, addend: 0x0, symName: __ZNSt3__112__hash_tableIN3JPH14SubShapeIDPairEN7HashSetIS2_N21JoltContactListener3D15ShapePairHasherEN5godot24HashMapComparatorDefaultIS2_EEE6HasherENS9_10ComparatorENS_9allocatorIS2_EEE6removeENS_21__hash_const_iteratorIPNS_11__hash_nodeIS2_PvEEEE, symObjAddr: 0x487C, symBinAddr: 0x30348, symSize: 0x134 }
  - { offsetInCU: 0x39946, offset: 0x72691A, size: 0x8, addend: 0x0, symName: __ZN21JoltContactListener3D25OnSoftBodyContactValidateERKN3JPH4BodyES3_RNS0_23SoftBodyContactSettingsE, symObjAddr: 0x33D0, symBinAddr: 0x1A3F30, symSize: 0x54 }
  - { offsetInCU: 0x399BA, offset: 0x72698E, size: 0x8, addend: 0x0, symName: __ZN21JoltContactListener3D25OnSoftBodyContactValidateERKN3JPH4BodyES3_RNS0_23SoftBodyContactSettingsE, symObjAddr: 0x33D0, symBinAddr: 0x1A3F30, symSize: 0x54 }
  - { offsetInCU: 0x399D6, offset: 0x7269AA, size: 0x8, addend: 0x0, symName: __ZN21JoltContactListener3D25OnSoftBodyContactValidateERKN3JPH4BodyES3_RNS0_23SoftBodyContactSettingsE, symObjAddr: 0x33D0, symBinAddr: 0x1A3F30, symSize: 0x54 }
  - { offsetInCU: 0x399FB, offset: 0x7269CF, size: 0x8, addend: 0x0, symName: __ZN21JoltContactListener3D25OnSoftBodyContactValidateERKN3JPH4BodyES3_RNS0_23SoftBodyContactSettingsE, symObjAddr: 0x33D0, symBinAddr: 0x1A3F30, symSize: 0x54 }
  - { offsetInCU: 0x39AEE, offset: 0x726AC2, size: 0x8, addend: 0x0, symName: __ZThn8_N21JoltContactListener3D25OnSoftBodyContactValidateERKN3JPH4BodyES3_RNS0_23SoftBodyContactSettingsE, symObjAddr: 0x3424, symBinAddr: 0xD9B40, symSize: 0x54 }
  - { offsetInCU: 0x39B6C, offset: 0x726B40, size: 0x8, addend: 0x0, symName: __ZThn8_N21JoltContactListener3D25OnSoftBodyContactValidateERKN3JPH4BodyES3_RNS0_23SoftBodyContactSettingsE, symObjAddr: 0x3424, symBinAddr: 0xD9B40, symSize: 0x54 }
  - { offsetInCU: 0x39B88, offset: 0x726B5C, size: 0x8, addend: 0x0, symName: __ZThn8_N21JoltContactListener3D25OnSoftBodyContactValidateERKN3JPH4BodyES3_RNS0_23SoftBodyContactSettingsE, symObjAddr: 0x3424, symBinAddr: 0xD9B40, symSize: 0x54 }
  - { offsetInCU: 0x39BAD, offset: 0x726B81, size: 0x8, addend: 0x0, symName: __ZThn8_N21JoltContactListener3D25OnSoftBodyContactValidateERKN3JPH4BodyES3_RNS0_23SoftBodyContactSettingsE, symObjAddr: 0x3424, symBinAddr: 0xD9B40, symSize: 0x54 }
  - { offsetInCU: 0x39C61, offset: 0x726C35, size: 0x8, addend: 0x0, symName: __ZN21JoltContactListener3D22OnSoftBodyContactAddedERKN3JPH4BodyERKNS0_16SoftBodyManifoldE, symObjAddr: 0x3478, symBinAddr: 0x1A3FD0, symSize: 0x4 }
  - { offsetInCU: 0x39C92, offset: 0x726C66, size: 0x8, addend: 0x0, symName: __ZN21JoltContactListener3D22OnSoftBodyContactAddedERKN3JPH4BodyERKNS0_16SoftBodyManifoldE, symObjAddr: 0x3478, symBinAddr: 0x1A3FD0, symSize: 0x4 }
  - { offsetInCU: 0x39C9D, offset: 0x726C71, size: 0x8, addend: 0x0, symName: __ZN21JoltContactListener3D23_try_add_debug_contactsERKN3JPH4BodyERKNS0_16SoftBodyManifoldE, symObjAddr: 0x347C, symBinAddr: 0x1A4500, symSize: 0x2A8 }
  - { offsetInCU: 0x3A926, offset: 0x7278FA, size: 0x8, addend: 0x0, symName: __ZThn8_N21JoltContactListener3D22OnSoftBodyContactAddedERKN3JPH4BodyERKNS0_16SoftBodyManifoldE, symObjAddr: 0x3724, symBinAddr: 0x1A47A8, symSize: 0x8 }
  - { offsetInCU: 0x3A9C7, offset: 0x72799B, size: 0x8, addend: 0x0, symName: __ZNKSt3__112__hash_tableIN3JPH14SubShapeIDPairEN7HashSetIS2_N21JoltContactListener3D15ShapePairHasherEN5godot24HashMapComparatorDefaultIS2_EEE6HasherENS9_10ComparatorENS_9allocatorIS2_EEE4findIS2_EENS_21__hash_const_iteratorIPNS_11__hash_nodeIS2_PvEEEERKT_, symObjAddr: 0x3900, symBinAddr: 0x1A4A40, symSize: 0x1F4 }
  - { offsetInCU: 0x3AA27, offset: 0x7279FB, size: 0x8, addend: 0x0, symName: __ZNKSt3__112__hash_tableIN3JPH14SubShapeIDPairEN7HashSetIS2_N21JoltContactListener3D15ShapePairHasherEN5godot24HashMapComparatorDefaultIS2_EEE6HasherENS9_10ComparatorENS_9allocatorIS2_EEE4findIS2_EENS_21__hash_const_iteratorIPNS_11__hash_nodeIS2_PvEEEERKT_, symObjAddr: 0x3900, symBinAddr: 0x1A4A40, symSize: 0x1F4 }
  - { offsetInCU: 0x3AA44, offset: 0x727A18, size: 0x8, addend: 0x0, symName: __ZNKSt3__112__hash_tableIN3JPH14SubShapeIDPairEN7HashSetIS2_N21JoltContactListener3D15ShapePairHasherEN5godot24HashMapComparatorDefaultIS2_EEE6HasherENS9_10ComparatorENS_9allocatorIS2_EEE4findIS2_EENS_21__hash_const_iteratorIPNS_11__hash_nodeIS2_PvEEEERKT_, symObjAddr: 0x3900, symBinAddr: 0x1A4A40, symSize: 0x1F4 }
  - { offsetInCU: 0x3ABB4, offset: 0x727B88, size: 0x8, addend: 0x0, symName: __ZN21JoltContactListener3DD1Ev, symObjAddr: 0x38C0, symBinAddr: 0xD9B94, symSize: 0x4 }
  - { offsetInCU: 0x3ABD7, offset: 0x727BAB, size: 0x8, addend: 0x0, symName: __ZN21JoltContactListener3DD1Ev, symObjAddr: 0x38C0, symBinAddr: 0xD9B94, symSize: 0x4 }
  - { offsetInCU: 0x3ABE2, offset: 0x727BB6, size: 0x8, addend: 0x0, symName: __ZN21JoltContactListener3DD2Ev, symObjAddr: 0x3AF4, symBinAddr: 0x1A4C80, symSize: 0x130 }
  - { offsetInCU: 0x3C01E, offset: 0x728FF2, size: 0x8, addend: 0x0, symName: __ZN21JoltContactListener3DD0Ev, symObjAddr: 0x38C4, symBinAddr: 0x1A49D8, symSize: 0x14 }
